(dp0
S'items'
p1
(lp2
(dp3
S'fullcons'
p4
S'                                          GTATAAACTGCTTTATACTGTTAAACTGCGAATGGCTCATTAAATCAGTTATAGTTTATTTGATGGTACTTACTACTCGGATAACCGTAGTAATTCTAGAGCTAATACGTGCGTAAATCCCGACTTCTGGAAGGGACGTATTTATTAGATAAAAGGCCAGCCGAGCTTGCTCGACTTTAGGTGAATCATGATAACTCCACGAATCGCATGGCCTTGCGCCGGCGATGTTTCATTCAAATTTCTGCCCTATCAACTTTCGATGGTAGGATAGAGGCCTACCATGGTGGTAACGGGTGACGGAGGATTAGGGTTCGATTCCGGAGAGGGAGCCTGAGAAATGGCTACCACATCCAAGGAAGGCAGCAGGCGCGCAAATTACCCAATCCCGACACGGGGAGGTAGTGACAATAAATAACAATGCCGAGCATTTTATGTTTGGCAATTGGAATGAGCACAATCTAAACCCCTTAACGAGGATCCATTGGAGGGCAAGTCTGGTGCCAGCAGCCGCGGTAATTCCAGCTCCAATAGCGTATATTTAAGTTGTTGCAGTTAAAAAGCTCGTAGTTGGATTTCGGGTGGGTTGTAGTGGTCCGGTTCGCTGTGTACTGCTACGGCCTTCCTTTCTGCCGGAAACAGGCTCTTGGGCTTCACTGTCTGGGACCTGGAGTCGGCGAGGTTACTTTGAGTAAATTAGAGTGTTCAAAGCAAGCTTACGCTCTGAATACATTAGCATGGAATAACACGATAGGACTCTGGCCTATCTTGTTGGTCTGTAGGACTGGAGTAATGATTAAGAGGGACAGTCGGGGGCATTCGTATTTCATTGTCAGAGGTGAAATTCTTGGATTTATGAAAGACGAACTTCTGCGAAAGCATTTGCCNAAGGATGTTTTCATTAATCAA                '
p5
sS'compactcons'
p6
S'GTATAAACTGCTTTATACTGTTAAACTGCGAATGGCTCATTAAATCAGTTATAGTTTATTTGATGGTACTTACTACTCGGATAACCGTAGTAATTCTAGAGCTAATACGTGCGTAAATCCCGACTTCTGGAAGGGACGTATTTATTAGATAAAAGGCCAGCCGAGCTTGCTCGACTTTAGGTGAATCATGATAACTCCACGAATCGCATGGCCTTGCGCCGGCGATGTTTCATTCAAATTTCTGCCCTATCAACTTTCGATGGTAGGATAGAGGCCTACCATGGTGGTAACGGGTGACGGAGGATTAGGGTTCGATTCCGGAGAGGGAGCCTGAGAAATGGCTACCACATCCAAGGAAGGCAGCAGGCGCGCAAATTACCCAATCCCGACACGGGGAGGTAGTGACAATAAATAACAATGCCGAGCATTTTATGTTTGGCAATTGGAATGAGCACAATCTAAACCCCTTAACGAGGATCCATTGGAGGGCAAGTCTGGTGCCAGCAGCCGCGGTAATTCCAGCTCCAATAGCGTATATTTAAGTTGTTGCAGTTAAAAAGCTCGTAGTTGGATTTCGGGTGGGTTGTAGTGGTCCGGTTCGCTGTGTACTGCTACGGCCTTCCTTTCTGCCGGAAACAGGCTCTTGGGCTTCACTGTCTGGGACCTGGAGTCGGCGAGGTTACTTTGAGTAAATTAGAGTGTTCAAAGCAAGCTTACGCTCTGAATACATTAGCATGGAATAACACGATAGGACTCTGGCCTATCTTGTTGGTCTGTAGGACTGGAGTAATGATTAAGAGGGACAGTCGGGGGCATTCGTATTTCATTGTCAGAGGTGAAATTCTTGGATTTATGAAAGACGAACTTCTGCGAAAGCATTTGCCNAAGGATGTTTTCATTAATCAA'
p7
sS'itemtype'
p8
S'frwdrev'
p9
sS'useseq'
p10
I01
sS'notes'
p11
S''
p12
sS'hasseq'
p13
I01
sS'children'
p14
(lp15
(dp16
g4
g12
sg6
g12
sg8
S'file'
p17
sg10
I00
sg11
g12
sg13
I00
sg14
(lp18
sS'isreverse'
p19
I00
sS'id'
p20
I1
sS'name'
p21
S'5-13T1_thickWall_BLU1902-chloro18sF.ab1'
p22
sa(dp23
g4
g12
sg6
g12
sg8
S'file'
p24
sg10
I00
sg11
g12
sg13
I00
sg14
(lp25
sg19
I01
sg20
I2
sg21
S'5-13T1_thickWall_BLU1902-chloro18SmidR.ab1'
p26
sasg19
I00
sg20
I0
sg21
S'5-13T1_thickWall_BLU1902_18SA'
p27
sa(dp28
g4
S'                                                           AAAACTGCGAANGGNNCANNNANNCANTNATAGTTTATTTGATGGTACTTACTACTCGGATAACCGTAGTAATTCTAGAGCTAATACGTGCGTAAATCCCGACTTCTGGAAGGGACGTATTTATTAGATAAAAGGCCANCCGAGCTTGCTCGACTTTAGGTGAATCATGATAACTCCACGAATCGCATGGCCTTGTGCCGGCGATGTTTCATTCAAATTTCTGCCCTATCAACTTTCGATGGTAGGATAGAGGCCTACCATGGTGGTAACGGGTGACGGAGGATTAGGGTTCGATTCCGGAGAGGGAGCCTGAGAAATGGCTACCACATCCAAGGAAGGCAGCAGGCGCGCAAATTACCCAATCCCGACACGGGGAGGTAGTGACAATAAATAACAATGCCGAGCATTTTATGTTTGGCAATTGGAATGAGCACAATCTAAACCCCTTAACGAGGATCCATTGGAGGGCAAGTCTGGTGCCAGCAGCCGCGGTAATTCCAGCTCCAATAGCGTATATTTAAGTTGTTGCAGTTAAAAAGCTCGTAGTTGGATTTCGGGTGGGTTGTAGTGGTCCGGTTCGCTGTGTACTGCTACGGCCTTCCTTTCTGCCGGAAACGGGCTCTTGGGCTTTACTGTCTGGGACCCGGAGTCGGCGAGGTTACTTTGAGTAAATTAGAGTGTTCAAAGCAAGCTTACGCTCTGAATACATTAGCATGGAATAACACGATAGGACTCTGGCCTATCTTGTTGGTCTGTAGGACTGGAGTAATGATTAAGAGGGACAGTCGGGGGCATTCGTATTTCATTGTCAGAGGTGAAATTCTTGGATTTATGAAAGACGAACTTCTGCGAAAGCATTTGCCAAGGATGTTT                                                                        '
p29
sg6
S'AAAACTGCGAANGGNNCANNNANNCANTNATAGTTTATTTGATGGTACTTACTACTCGGATAACCGTAGTAATTCTAGAGCTAATACGTGCGTAAATCCCGACTTCTGGAAGGGACGTATTTATTAGATAAAAGGCCANCCGAGCTTGCTCGACTTTAGGTGAATCATGATAACTCCACGAATCGCATGGCCTTGTGCCGGCGATGTTTCATTCAAATTTCTGCCCTATCAACTTTCGATGGTAGGATAGAGGCCTACCATGGTGGTAACGGGTGACGGAGGATTAGGGTTCGATTCCGGAGAGGGAGCCTGAGAAATGGCTACCACATCCAAGGAAGGCAGCAGGCGCGCAAATTACCCAATCCCGACACGGGGAGGTAGTGACAATAAATAACAATGCCGAGCATTTTATGTTTGGCAATTGGAATGAGCACAATCTAAACCCCTTAACGAGGATCCATTGGAGGGCAAGTCTGGTGCCAGCAGCCGCGGTAATTCCAGCTCCAATAGCGTATATTTAAGTTGTTGCAGTTAAAAAGCTCGTAGTTGGATTTCGGGTGGGTTGTAGTGGTCCGGTTCGCTGTGTACTGCTACGGCCTTCCTTTCTGCCGGAAACGGGCTCTTGGGCTTTACTGTCTGGGACCCGGAGTCGGCGAGGTTACTTTGAGTAAATTAGAGTGTTCAAAGCAAGCTTACGCTCTGAATACATTAGCATGGAATAACACGATAGGACTCTGGCCTATCTTGTTGGTCTGTAGGACTGGAGTAATGATTAAGAGGGACAGTCGGGGGCATTCGTATTTCATTGTCAGAGGTGAAATTCTTGGATTTATGAAAGACGAACTTCTGCGAAAGCATTTGCCAAGGATGTTT'
p30
sg8
S'frwdrev'
p31
sg10
I01
sg11
g12
sg13
I01
sg14
(lp32
(dp33
g4
g12
sg6
g12
sg8
S'file'
p34
sg10
I00
sg11
g12
sg13
I00
sg14
(lp35
sg19
I00
sg20
I4
sg21
S'5-25T3_gear_PAN1918-chloro18sF.ab1'
p36
sa(dp37
g4
g12
sg6
g12
sg8
S'file'
p38
sg10
I00
sg11
g12
sg13
I00
sg14
(lp39
sg19
I01
sg20
I5
sg21
S'5-25T3_gear_PAN1918-chloro18SmidR.ab1'
p40
sasg19
I00
sg20
I3
sg21
S'5-25T3_gear_PAN1918_18SA'
p41
sa(dp42
g4
S'                                                                           TCATTAAATCAGTTATAGTTTATTTGATGGTACCTACTACTCGGATAACCGTAGTAATTCTAGAGCTAATACGTGCGTAAATCCCGACTTCTGGAAGGGACGTATTTATTAGATAAAAGGCCAGCCGGACTCTGTCCGACCTGCGGTGAATCATGATAACTTCACGAATCGTATGGCCTTGTGCCGACGATGTTTCATTCAAATTTCTGCCCTATCAACTTTCGATGGTAGGATAGAGGCCTACCATGGTGGTAACGGGTGACGGAGGATTAGGGTTCGATTCCGGAGAGGGAGCCTGAGAGATGGCTACCACATCCAAGGAAGGCAGCAGGCGCGCAAATTACCCAATCCCGACACGGGGAGGTAGTGACAATAAATAACAATACCGGGCATTTAATGTCTGGTAATTGGAATGAGTACAATCTAAATCCCTTAACGAGGATCCATTGGAGGGCAAGTCTGGTGCCAGCAGCCGCGGTAATTCCAGCTCCAATAGCGTATATTTAAGTTGTTGCAGTTAAAAAGCTCGTAGTTGGATTTCGGGTGGGTTCGGTCGGTCCGCCTCTGGTGTGCACTGATTGAGCCTTCCTTTCTGCCGGGGACGGGTTCCTGGGCCTCACGGTTTGGGACTCGGAGTCGGCGAGGTTACTTTGAGTAAATTAGAGTGTTCAAAGCAAGCCTACGCTCTGAATACATTAGCATGGAATAACGCGATAGGACTCTGGCCTATCTTGTTGGTCTGTAGGACTGGAGTAATGATTAAGAGGGACAGTCGGGGGCATTCGTATTTCATTGTCAGAGGTGAAATTCTTGGATTTATGAAAGACGAACTTCTGCGAAAGCATTTGCCAAGGATGNTTTCATTAATC                                                                                      '
p43
sg6
S'TCATTAAATCAGTTATAGTTTATTTGATGGTACCTACTACTCGGATAACCGTAGTAATTCTAGAGCTAATACGTGCGTAAATCCCGACTTCTGGAAGGGACGTATTTATTAGATAAAAGGCCAGCCGGACTCTGTCCGACCTGCGGTGAATCATGATAACTTCACGAATCGTATGGCCTTGTGCCGACGATGTTTCATTCAAATTTCTGCCCTATCAACTTTCGATGGTAGGATAGAGGCCTACCATGGTGGTAACGGGTGACGGAGGATTAGGGTTCGATTCCGGAGAGGGAGCCTGAGAGATGGCTACCACATCCAAGGAAGGCAGCAGGCGCGCAAATTACCCAATCCCGACACGGGGAGGTAGTGACAATAAATAACAATACCGGGCATTTAATGTCTGGTAATTGGAATGAGTACAATCTAAATCCCTTAACGAGGATCCATTGGAGGGCAAGTCTGGTGCCAGCAGCCGCGGTAATTCCAGCTCCAATAGCGTATATTTAAGTTGTTGCAGTTAAAAAGCTCGTAGTTGGATTTCGGGTGGGTTCGGTCGGTCCGCCTCTGGTGTGCACTGATTGAGCCTTCCTTTCTGCCGGGGACGGGTTCCTGGGCCTCACGGTTTGGGACTCGGAGTCGGCGAGGTTACTTTGAGTAAATTAGAGTGTTCAAAGCAAGCCTACGCTCTGAATACATTAGCATGGAATAACGCGATAGGACTCTGGCCTATCTTGTTGGTCTGTAGGACTGGAGTAATGATTAAGAGGGACAGTCGGGGGCATTCGTATTTCATTGTCAGAGGTGAAATTCTTGGATTTATGAAAGACGAACTTCTGCGAAAGCATTTGCCAAGGATGNTTTCATTAATC'
p44
sg8
S'frwdrev'
p45
sg10
I01
sg11
g12
sg13
I01
sg14
(lp46
(dp47
g4
g12
sg6
g12
sg8
S'file'
p48
sg10
I00
sg11
g12
sg13
I00
sg14
(lp49
sg19
I00
sg20
I7
sg21
S'6-22L2_bigSphere_CAT20TR3-chloro18sF.ab1'
p50
sa(dp51
g4
g12
sg6
g12
sg8
S'file'
p52
sg10
I00
sg11
g12
sg13
I00
sg14
(lp53
sg19
I01
sg20
I8
sg21
S'6-22L2_bigSphere_CAT20TR3-chloro18SmidR.ab1'
p54
sasg19
I00
sg20
I6
sg21
S'6-22L2_bigSphere_CAT20TR3_18SA'
p55
sa(dp56
g4
S'                                                                                  NNGGGCCTCACGNTTNGGGACTCGGAGTCGGCGAGGTTACTTNGAGTAAATTAGAGTGTTCAAAGCAAGNTACGCTCTGAATACATTAGCATGGAATAACGCGATAGGACTCTGGCNTATCTTGTTGGTCTGTAGGACTGGAGTAATGATTAAGAGGGACAGTCGGGGGCATTCGTATTTCATTGTCAGAGGTGAAATTCTTGGATTTATGAAAGACGAACTTCTGCGAAAGCATTTGCCAAGGATGTTTTCATTAATCAAGAACGAAAGTTGGGGGCTCGAAGACGATTAGATACCGTCGTAGTCTCAACCATAAACGATGCCGACTAGGGATTGGCGGGTGTTTCGTTGATGACCCCGCCAGCACCTTATGAGAAATCAAAGTCTTTGGGTTCCGGGGGGAGTATGGTCGCAAGGCTGAAACTTAAAGGAATTGACGGAAGGGCACCACCAGGCGTGGAGCCTGCGGCTTAATTTGACTCAACACGGGAAAACTTACCAGGTCCAGACACGGGAAGGATTGACAGATTGAGAGCTCTTTCTTGATTCTGTGGGTGGTGGTGCATGGCCGTTCTTAGTTGGTGGGTTGCCTTGTCAGGTTGATTCCGGTAACGAACGAGACCTCAGCCTGCTAAATAGTCACAGTTGCCTCTGGCAGCTGGCTGACTTCTTAGAGGGACTATTGTCGTTTAGGCAATGGAAGTATGAGGCAATAACAGGTCTGTGATGCCCTTAGATGTTCTGGGCCGCACGCGCGCTACACTGATGCATTCAACAAGCCTATCCTTGGCCGAGAGGCCCGGGTAATCTTTGAAACTGCATCGTGATGGGGATAGATTATTGCAATTATTAGTCTTCAACGAGGANTGCCTAGTAAGCGCGAGTCATCAGCTCGC                      '
p57
sg6
S'NNGGGCCTCACGNTTNGGGACTCGGAGTCGGCGAGGTTACTTNGAGTAAATTAGAGTGTTCAAAGCAAGNTACGCTCTGAATACATTAGCATGGAATAACGCGATAGGACTCTGGCNTATCTTGTTGGTCTGTAGGACTGGAGTAATGATTAAGAGGGACAGTCGGGGGCATTCGTATTTCATTGTCAGAGGTGAAATTCTTGGATTTATGAAAGACGAACTTCTGCGAAAGCATTTGCCAAGGATGTTTTCATTAATCAAGAACGAAAGTTGGGGGCTCGAAGACGATTAGATACCGTCGTAGTCTCAACCATAAACGATGCCGACTAGGGATTGGCGGGTGTTTCGTTGATGACCCCGCCAGCACCTTATGAGAAATCAAAGTCTTTGGGTTCCGGGGGGAGTATGGTCGCAAGGCTGAAACTTAAAGGAATTGACGGAAGGGCACCACCAGGCGTGGAGCCTGCGGCTTAATTTGACTCAACACGGGAAAACTTACCAGGTCCAGACACGGGAAGGATTGACAGATTGAGAGCTCTTTCTTGATTCTGTGGGTGGTGGTGCATGGCCGTTCTTAGTTGGTGGGTTGCCTTGTCAGGTTGATTCCGGTAACGAACGAGACCTCAGCCTGCTAAATAGTCACAGTTGCCTCTGGCAGCTGGCTGACTTCTTAGAGGGACTATTGTCGTTTAGGCAATGGAAGTATGAGGCAATAACAGGTCTGTGATGCCCTTAGATGTTCTGGGCCGCACGCGCGCTACACTGATGCATTCAACAAGCCTATCCTTGGCCGAGAGGCCCGGGTAATCTTTGAAACTGCATCGTGATGGGGATAGATTATTGCAATTATTAGTCTTCAACGAGGANTGCCTAGTAAGCGCGAGTCATCAGCTCGC'
p58
sg8
S'frwdrev'
p59
sg10
I01
sg11
g12
sg13
I01
sg14
(lp60
(dp61
g4
g12
sg6
g12
sg8
S'file'
p62
sg10
I00
sg11
g12
sg13
I00
sg14
(lp63
sg19
I00
sg20
I10
sg21
S'6-22L2_bigSphere_CAT20TR3-chloro18sMidF.ab1'
p64
sa(dp65
g4
g12
sg6
g12
sg8
S'file'
p66
sg10
I00
sg11
g12
sg13
I00
sg14
(lp67
sg19
I01
sg20
I11
sg21
S'6-22L2_bigSphere_CAT20TR3-snow18sSeqR.ab1'
p68
sasg19
I00
sg20
I9
sg21
S'6-22L2_bigSphere_CAT20TR3_18SB'
p69
sa(dp70
g4
S'                                          AACTGCTTTATACTGTAAAACTGCGAATGGCTCATTAAATCAGTTATAGTTTATTTGATGGTACTTACTACTCGGATAACCGTAGTAATTCTAGAGCTAATACGTGCGTAAATCCCGACTTCTGGAAGGGACGTATTTATTAGATAAAAGGCCAGCCGAGCTTGCTCGACTTTAGGTGAATCATGATAACTCCACGAATCGCATGGCCTTGTGCCGGCGATGTTTCATTCAAATTTCTGCCCTATCAACTTTCGATGGTAGGATAGAGGCCTACCATGGTGGTAACGGGTGACGGAGGATTAGGGTTCGATTCCGGAGAGGGAGCCTGAGAAATGGCTACCACATCCAAGGAAGGCAGCAGGCGCGCAAATTACCCAATCCCGACACGGGGAGGTAGTGACAATAAATAACAATGCCGAGCATTTTATGTTTGGCAATTGGAATGAGCACAATCTAAACCCCTTAACGAGGATCCATTGGAGGGCAAGTCTGGTGCCAGCAGCCGCGGTAATTCCAGCTCCAATAGCGTATATTTAAGTTGTTGCAGTTAAAAAGCTCGTAGTTGGATTTCGGGTGGGTTGTAGTGGTCCGGTTCGCTGTGTACTGCTACGGCCTTCCTTTCTGCCGGAAACGGGCTCTTGGGCTTTACTGTCTGGGACCCGGAGTCGGCGAGGTTACTTTGAGTAAATTAGAGTGTTCAAAGCAAGCTTACGCTCTGAATACATTAGCATGGAATAACACGATAGGACTCTGGCCTATCTTGTTGGTCTGTAGGACTGGAGTAATGATTAAGAGGGACAGTCGGGGGCATTCGTATTTCATTGTCAGAGGTGAAATTCTTGGATTTATGAAAGACGAACTTCTGCGAAAGCATTTGCCAAGGATGTTTTCATTAATCA                                                                        '
p71
sg6
S'AACTGCTTTATACTGTAAAACTGCGAATGGCTCATTAAATCAGTTATAGTTTATTTGATGGTACTTACTACTCGGATAACCGTAGTAATTCTAGAGCTAATACGTGCGTAAATCCCGACTTCTGGAAGGGACGTATTTATTAGATAAAAGGCCAGCCGAGCTTGCTCGACTTTAGGTGAATCATGATAACTCCACGAATCGCATGGCCTTGTGCCGGCGATGTTTCATTCAAATTTCTGCCCTATCAACTTTCGATGGTAGGATAGAGGCCTACCATGGTGGTAACGGGTGACGGAGGATTAGGGTTCGATTCCGGAGAGGGAGCCTGAGAAATGGCTACCACATCCAAGGAAGGCAGCAGGCGCGCAAATTACCCAATCCCGACACGGGGAGGTAGTGACAATAAATAACAATGCCGAGCATTTTATGTTTGGCAATTGGAATGAGCACAATCTAAACCCCTTAACGAGGATCCATTGGAGGGCAAGTCTGGTGCCAGCAGCCGCGGTAATTCCAGCTCCAATAGCGTATATTTAAGTTGTTGCAGTTAAAAAGCTCGTAGTTGGATTTCGGGTGGGTTGTAGTGGTCCGGTTCGCTGTGTACTGCTACGGCCTTCCTTTCTGCCGGAAACGGGCTCTTGGGCTTTACTGTCTGGGACCCGGAGTCGGCGAGGTTACTTTGAGTAAATTAGAGTGTTCAAAGCAAGCTTACGCTCTGAATACATTAGCATGGAATAACACGATAGGACTCTGGCCTATCTTGTTGGTCTGTAGGACTGGAGTAATGATTAAGAGGGACAGTCGGGGGCATTCGTATTTCATTGTCAGAGGTGAAATTCTTGGATTTATGAAAGACGAACTTCTGCGAAAGCATTTGCCAAGGATGTTTTCATTAATCA'
p72
sg8
S'frwdrev'
p73
sg10
I01
sg11
g12
sg13
I01
sg14
(lp74
(dp75
g4
g12
sg6
g12
sg8
S'file'
p76
sg10
I00
sg11
g12
sg13
I00
sg14
(lp77
sg19
I00
sg20
I13
sg21
S'7-12L1_gear_GAR1930-chloro18sF.ab1'
p78
sa(dp79
g4
g12
sg6
g12
sg8
S'file'
p80
sg10
I00
sg11
g12
sg13
I00
sg14
(lp81
sg19
I01
sg20
I14
sg21
S'7-12L1_gear_GAR1930-chloro18SmidR.ab1'
p82
sasg19
I00
sg20
I12
sg21
S'7-12L1_gear_GAR1930_18SA'
p83
sa(dp84
g4
S'                          GTACTGNTACNNNNNNCCTTTCTGCCGGAAACGGGCTCTTGGGCTTTACTGTCTGGGACCCGGAGTCGGCGAGGTTACTTTGAGTAAATTAGAGTGTTCAAAGCAAGCTTACGCTCTGAATACATTAGCATGGAATAACACGATAGGACTCTGGCCTATCTTGTTGGTCTGTAGGACTGGAGTAATGATTAAGAGGGACAGTCNGGGGGCATTCGTATTTCATTGTCAGAGGTGAAATTCTTGGATTTATGAAAGACGAACTTCTGCGAAAGCATTTGCCAAGGATGTTTTCATTAATCAAGAACGAAAGTTGGGGGCTCGAAGACGATTAGATACCGTCGTAGTCTCAACCATAAACGATGCCGACTAGGGATTGGCAGGTGTTCTTTTGATGACCCTGCCAGCACCTTATGAGAAATCAAAGTTTTTGGGTTCCGGGGGGAGTATGGTCGCAAGGCTGAAACTTAAAGGAATTGACGGAAGGGCACCACCAGGCGTGGAGCCTGCGGCTTAATTTGACTCAACACGGGAAAACTTACCAGGTCCAGACACGGGGAGGATTGACAGATTGAGAGCTCTTTCTTGATTCTGTGGGTGGTGGTGCATGGCCGTTCTTAGTTGGTGGGTTGCCTTGTCAGGTTGATTCCGGTAACGAACGAGACCTCAGCCTGCTAAATAGTCACGTCTGCCTCTCGCAGACGGCCGACTTCTTAGAGGGACTATTGTCGTTTAGGCAATGGAAGTATGAGGCAATAACAGGTCTGTGATGCCCTTAGATGTTCTGGGCCGCACGCGCGCTACACTGATGCGTTCAACGAGCCTATCCTTGGCCGAGAGGCCCGGGTAATCTTCGAAACCGCATCGTGATGGGGATAGATTATTGCAATTATTAGTCTTCAACGAGGAATGCCTAGTAAGCGCGAGTCATCAGCTC                      '
p85
sg6
S'GTACTGNTACNNNNNNCCTTTCTGCCGGAAACGGGCTCTTGGGCTTTACTGTCTGGGACCCGGAGTCGGCGAGGTTACTTTGAGTAAATTAGAGTGTTCAAAGCAAGCTTACGCTCTGAATACATTAGCATGGAATAACACGATAGGACTCTGGCCTATCTTGTTGGTCTGTAGGACTGGAGTAATGATTAAGAGGGACAGTCNGGGGGCATTCGTATTTCATTGTCAGAGGTGAAATTCTTGGATTTATGAAAGACGAACTTCTGCGAAAGCATTTGCCAAGGATGTTTTCATTAATCAAGAACGAAAGTTGGGGGCTCGAAGACGATTAGATACCGTCGTAGTCTCAACCATAAACGATGCCGACTAGGGATTGGCAGGTGTTCTTTTGATGACCCTGCCAGCACCTTATGAGAAATCAAAGTTTTTGGGTTCCGGGGGGAGTATGGTCGCAAGGCTGAAACTTAAAGGAATTGACGGAAGGGCACCACCAGGCGTGGAGCCTGCGGCTTAATTTGACTCAACACGGGAAAACTTACCAGGTCCAGACACGGGGAGGATTGACAGATTGAGAGCTCTTTCTTGATTCTGTGGGTGGTGGTGCATGGCCGTTCTTAGTTGGTGGGTTGCCTTGTCAGGTTGATTCCGGTAACGAACGAGACCTCAGCCTGCTAAATAGTCACGTCTGCCTCTCGCAGACGGCCGACTTCTTAGAGGGACTATTGTCGTTTAGGCAATGGAAGTATGAGGCAATAACAGGTCTGTGATGCCCTTAGATGTTCTGGGCCGCACGCGCGCTACACTGATGCGTTCAACGAGCCTATCCTTGGCCGAGAGGCCCGGGTAATCTTCGAAACCGCATCGTGATGGGGATAGATTATTGCAATTATTAGTCTTCAACGAGGAATGCCTAGTAAGCGCGAGTCATCAGCTC'
p86
sg8
S'frwdrev'
p87
sg10
I01
sg11
g12
sg13
I01
sg14
(lp88
(dp89
g4
g12
sg6
g12
sg8
S'file'
p90
sg10
I00
sg11
g12
sg13
I00
sg14
(lp91
sg19
I00
sg20
I16
sg21
S'7-12L1_gear_GAR1930-chloro18sMidF.ab1'
p92
sa(dp93
g4
g12
sg6
g12
sg8
S'file'
p94
sg10
I00
sg11
g12
sg13
I00
sg14
(lp95
sg19
I01
sg20
I17
sg21
S'7-12L1_gear_GAR1930-snow18sSeqR.ab1'
p96
sasg19
I00
sg20
I15
sg21
S'7-12L1_gear_GAR1930_18SB'
p97
sa(dp98
g4
S'                                                                CAGTTATAGTTTATTTGATGGTACTTACTACTCGGATAACCGTAGTAATTCTAGAGCTAATACGTGCGTAAATCCCGACTTCTGGAAGGGACGTATTTATTAGATAAAAGGCCAGCCGAGCTTGCTCGACTTTAGGTGAATCATGATAACTCCACGAATCGCATGGCCTTGTGCCGGCGATGTTTCATTCAAATTTCTGCCCTATCAACTTTCGATGGTAGGATAGAGGCCTACCATGGTGGTAACGGGTGACGGAGGATTAGGGTTCGATTCCGGAGAGGGAGCCTGAGAAATGGCTACCACATCCAAGGAAGGCAGCAGGCGCGCAAATTACCCAATCCCGACACGGGGAGGTAGTGACAATAAATAACAATGCCGAGCATTTTATGTTTGGCAATTGGAATGAGCACAATCTAAACCCCTTAACGAGGATCCATTGGAGGGCAAGTCTGGTGCCAGCAGCCGCGGTAATTCCAGCTCCAATAGCGTATATTTAAGTTGTTGCAGTTAAAAAGCTCGTAGTTGGATTTCGGGTGGGTTGTAGTGGTCCGGTTCGCTGTGTACTGCTACGGCCTTCCTTTCTGCCGGAAACGGGCTCTTGGGCTTTACTGTCTGGGACCCGGAGTCGGCGAGGTTACTTTGAGTAAATTAGAGTGTTCAAAGCAAGCTTACGCTCTGAATACATTAGCATGGAATAACACGATAGGACTCTGGCCTATCTTGTTGGTCTGTAGGACTGGAGTAATGATTAAGAGGGACAGTCGGGGGCATTCGTATTTCATTGTCAGAGGTGAAATTCTTGGATTTATGAAAGACGAACTTCTGCGAAAGCATTTGCCAAGGATGTTTTCATTAATCA                                                       '
p99
sg6
S'CAGTTATAGTTTATTTGATGGTACTTACTACTCGGATAACCGTAGTAATTCTAGAGCTAATACGTGCGTAAATCCCGACTTCTGGAAGGGACGTATTTATTAGATAAAAGGCCAGCCGAGCTTGCTCGACTTTAGGTGAATCATGATAACTCCACGAATCGCATGGCCTTGTGCCGGCGATGTTTCATTCAAATTTCTGCCCTATCAACTTTCGATGGTAGGATAGAGGCCTACCATGGTGGTAACGGGTGACGGAGGATTAGGGTTCGATTCCGGAGAGGGAGCCTGAGAAATGGCTACCACATCCAAGGAAGGCAGCAGGCGCGCAAATTACCCAATCCCGACACGGGGAGGTAGTGACAATAAATAACAATGCCGAGCATTTTATGTTTGGCAATTGGAATGAGCACAATCTAAACCCCTTAACGAGGATCCATTGGAGGGCAAGTCTGGTGCCAGCAGCCGCGGTAATTCCAGCTCCAATAGCGTATATTTAAGTTGTTGCAGTTAAAAAGCTCGTAGTTGGATTTCGGGTGGGTTGTAGTGGTCCGGTTCGCTGTGTACTGCTACGGCCTTCCTTTCTGCCGGAAACGGGCTCTTGGGCTTTACTGTCTGGGACCCGGAGTCGGCGAGGTTACTTTGAGTAAATTAGAGTGTTCAAAGCAAGCTTACGCTCTGAATACATTAGCATGGAATAACACGATAGGACTCTGGCCTATCTTGTTGGTCTGTAGGACTGGAGTAATGATTAAGAGGGACAGTCGGGGGCATTCGTATTTCATTGTCAGAGGTGAAATTCTTGGATTTATGAAAGACGAACTTCTGCGAAAGCATTTGCCAAGGATGTTTTCATTAATCA'
p100
sg8
S'frwdrev'
p101
sg10
I01
sg11
g12
sg13
I01
sg14
(lp102
(dp103
g4
g12
sg6
g12
sg8
S'file'
p104
sg10
I00
sg11
g12
sg13
I00
sg14
(lp105
sg19
I00
sg20
I19
sg21
S'7-12L4_friedEgg_GAR1930-chloro18sF.ab1'
p106
sa(dp107
g4
g12
sg6
g12
sg8
S'file'
p108
sg10
I00
sg11
g12
sg13
I00
sg14
(lp109
sg19
I01
sg20
I20
sg21
S'7-12L4_friedEgg_GAR1930-chloro18SmidR.ab1'
p110
sasg19
I00
sg20
I18
sg21
S'7-12L4_friedEgg_GAR1930_18SA'
p111
sa(dp112
g4
S'                                                          AATCAGTTATAGTTTATTTGATGGTACCTACTACTCGGATAACCGTAGTAATTCTAGAGCTAATACGTGCGTAAATCCCGACTTCTGGAAGGGACGTATTTATTAGATAAAAGGCCAGCCGGACTCTGTCCGACCTGCGGTGAATCATGATAACTTCACGAATCGTATGGCCTTGCGCCGACGATGTTTCATTCAAATTTCTGCCCTATCAACTTTCGATGGTAGGATAGAGGCCTACCATGGTGGTAACGGGTGACGGAGGATTAGGGTTCGATTCCGGAGAGGGAGCCTGAGAGATGGCTACCACATCCAAGGAAGGCAGCAGGCGCGCAAATTACCCAATCCCGACACGGGGAGGTAGTGACAATAAATAACAATACCGGGCATTTAATGTCTGGTAATTGGAATGAGTACAATCTAAATCCCTTAACGAGGATCCATTGGAGGGCAAGTCTGGTGCCAGCAGCCGCGGTAATTCCAGCTCCAATAGCGTATATTTAAGTTGTTGCAGTTAAAAAGCTCGTAGTTGGATTTCGGGTGGGTTCGGTCGGTCCGCCTCTGGTGTGCACTGATTGAGCCTTCCTTTCTGCCGGGGACGGGTTCCTGGGCCTCACGGTTTGGGACTCGGAGTCGGCGAGGTTACTTTGAGTAAATTAGAGTGTTCAAAGCAAGCCTACGCTCTGAATACATTAGCATGGAATAACGCGATAGGACTCTGGCCTATCTTGTTGGTCTGTAGGACTGGAGTAATGATTAAGAGGGACAGTCGGGGGCATTCGTATTTCATTGTCAGAGGTGAAATTCTTGGATTTATGAAAGACGAACTTCTGCGAAAGCATTTGCCAAGGATGTTTTCA                                                                                  '
p113
sg6
S'AATCAGTTATAGTTTATTTGATGGTACCTACTACTCGGATAACCGTAGTAATTCTAGAGCTAATACGTGCGTAAATCCCGACTTCTGGAAGGGACGTATTTATTAGATAAAAGGCCAGCCGGACTCTGTCCGACCTGCGGTGAATCATGATAACTTCACGAATCGTATGGCCTTGCGCCGACGATGTTTCATTCAAATTTCTGCCCTATCAACTTTCGATGGTAGGATAGAGGCCTACCATGGTGGTAACGGGTGACGGAGGATTAGGGTTCGATTCCGGAGAGGGAGCCTGAGAGATGGCTACCACATCCAAGGAAGGCAGCAGGCGCGCAAATTACCCAATCCCGACACGGGGAGGTAGTGACAATAAATAACAATACCGGGCATTTAATGTCTGGTAATTGGAATGAGTACAATCTAAATCCCTTAACGAGGATCCATTGGAGGGCAAGTCTGGTGCCAGCAGCCGCGGTAATTCCAGCTCCAATAGCGTATATTTAAGTTGTTGCAGTTAAAAAGCTCGTAGTTGGATTTCGGGTGGGTTCGGTCGGTCCGCCTCTGGTGTGCACTGATTGAGCCTTCCTTTCTGCCGGGGACGGGTTCCTGGGCCTCACGGTTTGGGACTCGGAGTCGGCGAGGTTACTTTGAGTAAATTAGAGTGTTCAAAGCAAGCCTACGCTCTGAATACATTAGCATGGAATAACGCGATAGGACTCTGGCCTATCTTGTTGGTCTGTAGGACTGGAGTAATGATTAAGAGGGACAGTCGGGGGCATTCGTATTTCATTGTCAGAGGTGAAATTCTTGGATTTATGAAAGACGAACTTCTGCGAAAGCATTTGCCAAGGATGTTTTCA'
p114
sg8
S'frwdrev'
p115
sg10
I01
sg11
g12
sg13
I01
sg14
(lp116
(dp117
g4
g12
sg6
g12
sg8
S'file'
p118
sg10
I00
sg11
g12
sg13
I00
sg14
(lp119
sg19
I00
sg20
I22
sg21
S'7-12L6_smallSphere_PAN1915-chloro18sF.ab1'
p120
sa(dp121
g4
g12
sg6
g12
sg8
S'file'
p122
sg10
I00
sg11
g12
sg13
I00
sg14
(lp123
sg19
I01
sg20
I23
sg21
S'7-12L6_smallSphere_PAN1915-chloro18SmidR.ab1'
p124
sasg19
I00
sg20
I21
sg21
S'7-12L6_smallSphere_PAN1915_18SA'
p125
sa(dp126
g4
S'                                                                   GTTAAACTGCGAATGGCTCATTAAATCAGTTATAGTTTATTTGATGGTACTTACTACTCGGATAACCGTAGTAATTCTAGAGCTAATACGTGCGTAAATCCCGACTTCTGGAAGGGACGTATTTATTAGATAAAAGGCCAGCCGAGCTTGCTCGACTTTAGGTGAATCATGATAACTCCACGAATCGCATGGCCTTGCGCCGGCGATGTTTCATTCAAATTTCTGCCCTATCAACTTTCGATGGTAGGATAGAGGCCTACCATGGTGGTAACGGGTGACGGAGGATTAGGGTTCGATTCCGGAGAGGGAGCCTGAGAAATGGCTACCACATCCAAGGAAGGCAGCAGGCGCGCAAATTACCCAATCCCGACACGGGGAGGTAGTGACAATAAATAACAATGCCGAGCATTTTATGTTTGGCAATTGGAATGAGCACAATCTAAACCCCTTAACGAGGATCCATTGGAGGGCAAGTCTGGTGCCAGCAGCCGCGGTAATTCCAGCTCCAATAGCGTATATTTAAGTTGTTGCAGTTAAAAAGCTCGTAGTTGGATTTCGGGTGGGTTGTAGTGGTCCGGTTCGCTGTGTACTGCTACGGCCTTCCTTTCTGCCGGAAACAGGCTCTTGGGCTTCACTGTCTGGGACCTGGAGTCGGCGAGGTTACTTTGAGTAAATTAGAGTGTTCAAAGCAAGCTTACGCTCTGAATACATTAGCATGGAATAACACGATAGGACTCTGGCCTATCTTGTTGGTCTGTAGGACTGGAGTAATGATTAAGAGGGACAGTCGGGGGCATTCGTATTTCATTGTCAGAGGTGAAATTCTTGGATTTATGAAAGACGAACTTCTGCGAAAGCATTTGCCAAGGATGTTTTCATTAATCAGAACGAAAGNTGGGG                                            '
p127
sg6
S'GTTAAACTGCGAATGGCTCATTAAATCAGTTATAGTTTATTTGATGGTACTTACTACTCGGATAACCGTAGTAATTCTAGAGCTAATACGTGCGTAAATCCCGACTTCTGGAAGGGACGTATTTATTAGATAAAAGGCCAGCCGAGCTTGCTCGACTTTAGGTGAATCATGATAACTCCACGAATCGCATGGCCTTGCGCCGGCGATGTTTCATTCAAATTTCTGCCCTATCAACTTTCGATGGTAGGATAGAGGCCTACCATGGTGGTAACGGGTGACGGAGGATTAGGGTTCGATTCCGGAGAGGGAGCCTGAGAAATGGCTACCACATCCAAGGAAGGCAGCAGGCGCGCAAATTACCCAATCCCGACACGGGGAGGTAGTGACAATAAATAACAATGCCGAGCATTTTATGTTTGGCAATTGGAATGAGCACAATCTAAACCCCTTAACGAGGATCCATTGGAGGGCAAGTCTGGTGCCAGCAGCCGCGGTAATTCCAGCTCCAATAGCGTATATTTAAGTTGTTGCAGTTAAAAAGCTCGTAGTTGGATTTCGGGTGGGTTGTAGTGGTCCGGTTCGCTGTGTACTGCTACGGCCTTCCTTTCTGCCGGAAACAGGCTCTTGGGCTTCACTGTCTGGGACCTGGAGTCGGCGAGGTTACTTTGAGTAAATTAGAGTGTTCAAAGCAAGCTTACGCTCTGAATACATTAGCATGGAATAACACGATAGGACTCTGGCCTATCTTGTTGGTCTGTAGGACTGGAGTAATGATTAAGAGGGACAGTCGGGGGCATTCGTATTTCATTGTCAGAGGTGAAATTCTTGGATTTATGAAAGACGAACTTCTGCGAAAGCATTTGCCAAGGATGTTTTCATTAATCAGAACGAAAGNTGGGG'
p128
sg8
S'frwdrev'
p129
sg10
I01
sg11
g12
sg13
I01
sg14
(lp130
(dp131
g4
g12
sg6
g12
sg8
S'file'
p132
sg10
I00
sg11
g12
sg13
I00
sg14
(lp133
sg19
I00
sg20
I25
sg21
S'7-12L7_thickWall_DOG1906-chloro18sF.ab1'
p134
sa(dp135
g4
g12
sg6
g12
sg8
S'file'
p136
sg10
I00
sg11
g12
sg13
I00
sg14
(lp137
sg19
I01
sg20
I26
sg21
S'7-12L7_thickWall_DOG1906-chloro18SmidR.ab1'
p138
sasg19
I00
sg20
I24
sg21
S'7-12L7_thickWall_DOG1906_18SA'
p139
sa(dp140
g4
S'                                         AAACTGCTTTATACTGTAAAACTGCGAATGGCTCATTAAATCAGTTATAGTTTATTTGATGGTACTTACTACTCGGATAACCGTAGTAATTCTAGAGCTAATACGTGCGTAAATCCCGACTTCTGGAAGGGACGTATTTATTAGATAAAAGGCCAGCCGAGCTTGCTCGACTTTAGGTGAATCATGATAACTCCACGAATCGCATGGCCTTGTGCCGGCGATGTTTCATTCAAATTTCTGCCCTATCAACTTTCGATGGTAGGATAGAGGCCTACCATGGTGGTAACGGGTGACGGAGGATTAGGGTTCGATTCCGGAGAGGGAGCCTGAGAAATGGCTACCACATCCAAGGAAGGCAGCAGGCGCGCAAATTACCCAATCCCGACACGGGGAGGTAGTGACAATAAATAACAATGCCGAGCATTTTATGTTTGGCAATTGGAATGAGCACAATCTAAACCCCTTAACGAGGATCCATTGGAGGGCAAGTCTGGTGCCAGCAGCCGCGGTAATTCCAGCTCCAATAGCGTATATTTAAGTTGTTGCAGTTAAAAAGCTCGTAGTTGGATTTCGGGTGGGTTGTAGTGGTCCGGTTCGCTGTGTACTGCTACGGCCTTCCTTTCTGCCGGAAACGGGCTCTTGGGCTTTACTGTCTGGGACTCGGAGTCGGCGAGGTTACTTTGAGTAAATTAGAGTGTTCAAAGCAAGCTTACGCTCTGAATACATTAGCATGGAATAACACGATAGGACTCTGGCCTATCTTGTTGGTCTGTAGGACTGGAGTAATGATTAAGAGGGACAGTCGGGGGCATTCGTATTTCATTGTCAGAGGTGAAATTCTTGGATTTATGAAAGACGAACTTCTGCGAAAGCATTTGCCAAGGATGTTTTCATTAATCAAGAACNAAAGNNGGGGGNTCNAA                                       '
p141
sg6
S'AAACTGCTTTATACTGTAAAACTGCGAATGGCTCATTAAATCAGTTATAGTTTATTTGATGGTACTTACTACTCGGATAACCGTAGTAATTCTAGAGCTAATACGTGCGTAAATCCCGACTTCTGGAAGGGACGTATTTATTAGATAAAAGGCCAGCCGAGCTTGCTCGACTTTAGGTGAATCATGATAACTCCACGAATCGCATGGCCTTGTGCCGGCGATGTTTCATTCAAATTTCTGCCCTATCAACTTTCGATGGTAGGATAGAGGCCTACCATGGTGGTAACGGGTGACGGAGGATTAGGGTTCGATTCCGGAGAGGGAGCCTGAGAAATGGCTACCACATCCAAGGAAGGCAGCAGGCGCGCAAATTACCCAATCCCGACACGGGGAGGTAGTGACAATAAATAACAATGCCGAGCATTTTATGTTTGGCAATTGGAATGAGCACAATCTAAACCCCTTAACGAGGATCCATTGGAGGGCAAGTCTGGTGCCAGCAGCCGCGGTAATTCCAGCTCCAATAGCGTATATTTAAGTTGTTGCAGTTAAAAAGCTCGTAGTTGGATTTCGGGTGGGTTGTAGTGGTCCGGTTCGCTGTGTACTGCTACGGCCTTCCTTTCTGCCGGAAACGGGCTCTTGGGCTTTACTGTCTGGGACTCGGAGTCGGCGAGGTTACTTTGAGTAAATTAGAGTGTTCAAAGCAAGCTTACGCTCTGAATACATTAGCATGGAATAACACGATAGGACTCTGGCCTATCTTGTTGGTCTGTAGGACTGGAGTAATGATTAAGAGGGACAGTCGGGGGCATTCGTATTTCATTGTCAGAGGTGAAATTCTTGGATTTATGAAAGACGAACTTCTGCGAAAGCATTTGCCAAGGATGTTTTCATTAATCAAGAACNAAAGNNGGGGGNTCNAA'
p142
sg8
S'frwdrev'
p143
sg10
I01
sg11
g12
sg13
I01
sg14
(lp144
(dp145
g4
g12
sg6
g12
sg8
S'file'
p146
sg10
I00
sg11
g12
sg13
I00
sg14
(lp147
sg19
I00
sg20
I28
sg21
S'7-22L1_star_BUG1903-chloro18sF.ab1'
p148
sa(dp149
g4
g12
sg6
g12
sg8
S'file'
p150
sg10
I00
sg11
g12
sg13
I00
sg14
(lp151
sg19
I01
sg20
I29
sg21
S'7-22L1_star_BUG1903-chloro18SmidR.ab1'
p152
sasg19
I00
sg20
I27
sg21
S'7-22L1_star_BUG1903_18SA'
p153
sa(dp154
g4
S'                                                                                                                 AATCAGTTATNGTTTATTTGATGGTACCTACTACTCGGATAACCGTAGTAATTCTAGAGCTAATACGTGCGTAAATCCCGACTTCTGGAAGGGACGTATTTATTAGATAAAAGGCCAGCCGGACTCTGTCCGACCTGCGGTGAATCATGATAACTTCACGAATCGTATGGCCTTGTGCCGACGATGTTTCATTCAAATTTCTGCCCTATCAACTTTCGATGGTAGGATAGAGGCCTACCATGGTGGTAACGGGTGACGGAGGATTAGGGTTCGATTCCGGAGAGGGAGCCTGAGAGATGGCTACCACATCCAAGGAAGGCAGCAGGCGCGCAAATTACCCAATCCCGACACGGGGAGGTAGTGACAATAAATAACAATACCGGGCATTTAATGTCTGGTAATTGGAATGAGTACAATCTAAATCCCTTAACGAGGATCCATTGGAGGGCAAGTCTGGTGCCAGCAGCCGCGGTAATTCCAGCTCCAATAGCGTATATTTAAGTTGTTGCAGTTAAAAAGCTCGTAGTTGGATTTCGGGTGGGTTCGGTCGGTCCGCCTCTGGTGTGCACTGATTGAGCCTTCCTTTCTGCCGGGGACGGGTTCCTGGGCCTCACGGTTTGGGACTCGGAGTCGGCGAGGTTACTTTGAGTAAATTAGAGTGTTCAAAGCAAGCCTACGCTCTGAATACATTAGCATGGAATAACGCGATAGGACTCTGGCCTATCTTGTTGGTCTGTAGGACTGGAGTAATGATTAAGAGGGACAGTCGGGGGCATTCGTATTTCATTGTCAGAGGTGAAATTCTTGGATTTATGAAAGACGAACTTCTGCGAAAGCATTTGCCAAGGATGTTTNC                                                                                                       '
p155
sg6
S'AATCAGTTATNGTTTATTTGATGGTACCTACTACTCGGATAACCGTAGTAATTCTAGAGCTAATACGTGCGTAAATCCCGACTTCTGGAAGGGACGTATTTATTAGATAAAAGGCCAGCCGGACTCTGTCCGACCTGCGGTGAATCATGATAACTTCACGAATCGTATGGCCTTGTGCCGACGATGTTTCATTCAAATTTCTGCCCTATCAACTTTCGATGGTAGGATAGAGGCCTACCATGGTGGTAACGGGTGACGGAGGATTAGGGTTCGATTCCGGAGAGGGAGCCTGAGAGATGGCTACCACATCCAAGGAAGGCAGCAGGCGCGCAAATTACCCAATCCCGACACGGGGAGGTAGTGACAATAAATAACAATACCGGGCATTTAATGTCTGGTAATTGGAATGAGTACAATCTAAATCCCTTAACGAGGATCCATTGGAGGGCAAGTCTGGTGCCAGCAGCCGCGGTAATTCCAGCTCCAATAGCGTATATTTAAGTTGTTGCAGTTAAAAAGCTCGTAGTTGGATTTCGGGTGGGTTCGGTCGGTCCGCCTCTGGTGTGCACTGATTGAGCCTTCCTTTCTGCCGGGGACGGGTTCCTGGGCCTCACGGTTTGGGACTCGGAGTCGGCGAGGTTACTTTGAGTAAATTAGAGTGTTCAAAGCAAGCCTACGCTCTGAATACATTAGCATGGAATAACGCGATAGGACTCTGGCCTATCTTGTTGGTCTGTAGGACTGGAGTAATGATTAAGAGGGACAGTCGGGGGCATTCGTATTTCATTGTCAGAGGTGAAATTCTTGGATTTATGAAAGACGAACTTCTGCGAAAGCATTTGCCAAGGATGTTTNC'
p156
sg8
S'frwdrev'
p157
sg10
I01
sg11
g12
sg13
I01
sg14
(lp158
(dp159
g4
g12
sg6
g12
sg8
S'file'
p160
sg10
I00
sg11
g12
sg13
I00
sg14
(lp161
sg19
I00
sg20
I31
sg21
S'7-22L3_bigSphere_CAT20TR8-chloro18sF.ab1'
p162
sa(dp163
g4
g12
sg6
g12
sg8
S'file'
p164
sg10
I00
sg11
g12
sg13
I00
sg14
(lp165
sg19
I01
sg20
I32
sg21
S'7-22L3_bigSphere_CAT20TR8-chloro18SmidR.ab1'
p166
sasg19
I00
sg20
I30
sg21
S'7-22L3_bigSphere_CAT20TR8_18SA'
p167
sa(dp168
g4
g12
sg6
g12
sg8
S'file'
p169
sg10
I00
sg11
g12
sg13
I00
sg14
(lp170
sg19
I00
sg20
I33
sg21
S'7-22L3_bigSphere_CAT20TR8-chloro18sMidF.ab1'
p171
sa(dp172
g4
S'                                             NTAAANTGCTTNNNNNTGNNNAANTGNGNANNGNNCNNNNNATCNNTTATAGTTTATTTGATGGTACCTACTACTCGGATAACCGTAGTAATTCTAGAGCTAATACGTGCGTAAATCCCGACTTCTGGAAGGGACGTATTTATTAGATAAAAGGCCAGCCGGACTCTGTCCGACCTGCGGTGAATCATGATAACTTCACGAATCGTATGGCCTTGCGCCGACGATGTTTCATTCAAATTTCTGCCCTATCAACTTTCGATGGTAGGATAGAGGCCTACCATGGTGGTAACGGGTGACGGAGGATTAGGGTTCGATTCCGGAGAGGGAGCCTGAGAGATGGCTACCACATCCAAGGAAGGCAGCAGGCGCGCAAATTACCCAATCCCGACACGGGGAGGTAGTGACAATAAATAACAATACCGGGCATTTAATGTNTGGTAATTGGAATGAGTACAATCTAAATCCCTTAACGAGGATCCATTGGAGGGCAAGTNTGGTGCCAGCAGCCGCGGTAATTCCAGCTCCAATAGCGTATATTTAAGTTGTTGCAGTTAAAAAGCTCGTAGTTGGATTTCGGGTGGGTTCGGTCGGTCCGCCTCTGGTGTGCACTGATTGAGCCTTCCTTTCTGCCGGGGACGGGTTCCTGGGCCTCACGGTTTGGGACTCGGAGTCGGCGAGGTTACTTTGAGTAAATTAGAGTGTTCAAAGCAAGCCTACGCTCTGAATACATTAGCATGGAATAACGCGATAGGACTCTGGCCTATCTTGTTGGTCTGTAGGACTGGAGTAATGATTAAGAGGGACAGTCGGGGGCATTCGTATTTCATTGTCAGAGGTGAAATTCTTGGATTTATGAAAGACGAACTTCTGCGAAAGCATTTGCCAAGGATGTTTTNCATTAATCANN                                                                                                                   '
p173
sg6
S'NTAAANTGCTTNNNNNTGNNNAANTGNGNANNGNNCNNNNNATCNNTTATAGTTTATTTGATGGTACCTACTACTCGGATAACCGTAGTAATTCTAGAGCTAATACGTGCGTAAATCCCGACTTCTGGAAGGGACGTATTTATTAGATAAAAGGCCAGCCGGACTCTGTCCGACCTGCGGTGAATCATGATAACTTCACGAATCGTATGGCCTTGCGCCGACGATGTTTCATTCAAATTTCTGCCCTATCAACTTTCGATGGTAGGATAGAGGCCTACCATGGTGGTAACGGGTGACGGAGGATTAGGGTTCGATTCCGGAGAGGGAGCCTGAGAGATGGCTACCACATCCAAGGAAGGCAGCAGGCGCGCAAATTACCCAATCCCGACACGGGGAGGTAGTGACAATAAATAACAATACCGGGCATTTAATGTNTGGTAATTGGAATGAGTACAATCTAAATCCCTTAACGAGGATCCATTGGAGGGCAAGTNTGGTGCCAGCAGCCGCGGTAATTCCAGCTCCAATAGCGTATATTTAAGTTGTTGCAGTTAAAAAGCTCGTAGTTGGATTTCGGGTGGGTTCGGTCGGTCCGCCTCTGGTGTGCACTGATTGAGCCTTCCTTTCTGCCGGGGACGGGTTCCTGGGCCTCACGGTTTGGGACTCGGAGTCGGCGAGGTTACTTTGAGTAAATTAGAGTGTTCAAAGCAAGCCTACGCTCTGAATACATTAGCATGGAATAACGCGATAGGACTCTGGCCTATCTTGTTGGTCTGTAGGACTGGAGTAATGATTAAGAGGGACAGTCGGGGGCATTCGTATTTCATTGTCAGAGGTGAAATTCTTGGATTTATGAAAGACGAACTTCTGCGAAAGCATTTGCCAAGGATGTTTTNCATTAATCANN'
p174
sg8
S'frwdrev'
p175
sg10
I01
sg11
g12
sg13
I01
sg14
(lp176
(dp177
g4
g12
sg6
g12
sg8
S'file'
p178
sg10
I00
sg11
g12
sg13
I00
sg14
(lp179
sg19
I00
sg20
I35
sg21
S'7-27L4_honeycomb_BDW1915-chloro18sF.ab1'
p180
sa(dp181
g4
g12
sg6
g12
sg8
S'file'
p182
sg10
I00
sg11
g12
sg13
I00
sg14
(lp183
sg19
I01
sg20
I36
sg21
S'7-27L4_honeycomb_BDW1915-chloro18SmidR.ab1'
p184
sasg19
I00
sg20
I34
sg21
S'7-27L4_honeycomb_BDW1915_18SA'
p185
sa(dp186
g4
g12
sg6
g12
sg8
S'file'
p187
sg10
I00
sg11
g12
sg13
I00
sg14
(lp188
sg19
I00
sg20
I37
sg21
S'7-27L4_honeycomb_BDW1915-chloro18sMidF.ab1'
p189
sa(dp190
g4
S'                                                                                   TCAGTTATAGTTTATTTGATGGTACCTACTACTCGGATAACCGTAGTAATTCTAGAGCTAATACGTGCGTAAATCCCGACTTCTGGAAGGGACGTATTTATTAGATAAAAGGCCAGCCGGACTCTGTCCGACCTGCGGTGAATCATGATAACTTCACGAATCGTATGGCCTTGTGCCGACGATGTTTCATTCAAATTTCTGCCCTATCAACTTTCGATGGTAGGATAGAGGCCTACCATGGTGGTAACGGGTGACGGAGGATTAGGGTTCGATTCCGGAGAGGGAGCCTGAGAGATGGCTACCACATCCAAGGAAGGCAGCAGGCGCGCAAATTACCCAATCCCGACACGGGGAGGTAGTGACAATAAATAACAATACCGGGCATTTAATGTCTGGTAATTGGAATGAGTACAATCTAAATCCCTTAACGAGGATCCATTGGAGGGCAAGTCTGGTGCCAGCAGCCGCGGTAATTCCAGCTCCAATAGCGTATATTTAAGTTGTTGCAGTTAAAAAGCTCGTAGTTGGATTTCGGGTGGGTTCGGTCGGTCCGCCTCTGGTGTGCACTGATTGAGCCTTCCTTTCTGCCGGGGACGGGTTCCTGGGCCTCACGGTTTGGGACTCGGAGTCGGCGAGGTTACTTTGAGTAAATTAGAGTGTTCAAAGCAAGCCTACGCTCTGAATACATTAGCATGGAATAACGCGATAGGACTCTGGCCTATCTTGTTGGTCTGTAGGACTGGAGTAATGATTAAGAGGGACAGTC GGGGGCATTCGTATTTCATTGTCAGAGGTGAAATTCTTGGATTTATGAAAGACGAACTTCTGCGAAAGCATTTGCCAAGGATGTTTTC                                                                                                      '
p191
sg6
S'TCAGTTATAGTTTATTTGATGGTACCTACTACTCGGATAACCGTAGTAATTCTAGAGCTAATACGTGCGTAAATCCCGACTTCTGGAAGGGACGTATTTATTAGATAAAAGGCCAGCCGGACTCTGTCCGACCTGCGGTGAATCATGATAACTTCACGAATCGTATGGCCTTGTGCCGACGATGTTTCATTCAAATTTCTGCCCTATCAACTTTCGATGGTAGGATAGAGGCCTACCATGGTGGTAACGGGTGACGGAGGATTAGGGTTCGATTCCGGAGAGGGAGCCTGAGAGATGGCTACCACATCCAAGGAAGGCAGCAGGCGCGCAAATTACCCAATCCCGACACGGGGAGGTAGTGACAATAAATAACAATACCGGGCATTTAATGTCTGGTAATTGGAATGAGTACAATCTAAATCCCTTAACGAGGATCCATTGGAGGGCAAGTCTGGTGCCAGCAGCCGCGGTAATTCCAGCTCCAATAGCGTATATTTAAGTTGTTGCAGTTAAAAAGCTCGTAGTTGGATTTCGGGTGGGTTCGGTCGGTCCGCCTCTGGTGTGCACTGATTGAGCCTTCCTTTCTGCCGGGGACGGGTTCCTGGGCCTCACGGTTTGGGACTCGGAGTCGGCGAGGTTACTTTGAGTAAATTAGAGTGTTCAAAGCAAGCCTACGCTCTGAATACATTAGCATGGAATAACGCGATAGGACTCTGGCCTATCTTGTTGGTCTGTAGGACTGGAGTAATGATTAAGAGGGACAGTCGGGGGCATTCGTATTTCATTGTCAGAGGTGAAATTCTTGGATTTATGAAAGACGAACTTCTGCGAAAGCATTTGCCAAGGATGTTTTC'
p192
sg8
S'frwdrev'
p193
sg10
I01
sg11
g12
sg13
I01
sg14
(lp194
(dp195
g4
g12
sg6
g12
sg8
S'file'
p196
sg10
I00
sg11
g12
sg13
I00
sg14
(lp197
sg19
I00
sg20
I39
sg21
S'7-27L5_smallSphere_BUG1902-chloro18sF.ab1'
p198
sa(dp199
g4
g12
sg6
g12
sg8
S'file'
p200
sg10
I00
sg11
g12
sg13
I00
sg14
(lp201
sg19
I01
sg20
I40
sg21
S'7-27L5_smallSphere_BUG1902-chloro18SmidR.ab1'
p202
sasg19
I00
sg20
I38
sg21
S'7-27L5_smallSphere_BUG1902_18SA'
p203
sa(dp204
g4
g12
sg6
g12
sg8
S'file'
p205
sg10
I00
sg11
g12
sg13
I00
sg14
(lp206
sg19
I00
sg20
I41
sg21
S'7-27L5_smallSphere_BUG1902-chloro18sMidF.ab1'
p207
sa(dp208
g4
S'                                 TCAGTTATAGTTTATTTGATGGTACCTACTACTCGGATAACCGTAGTAATTCTAGAGCTAATACGTGCGTAAATCCCGACTTCTGGAAGGGACGTATTTATTAGATAAAAGGCCAGCCGGACTCTGTCCGACCTGCGGTGAATCATGATAACTTCACGAATCGTATGGCCTTGCGCCGACGATGTTTCATTCAAATTTCTGCCCTATCAACTTTCGATGGTAGGATAGAGGCCTACCATGGTGGTAACGGGTGACGGAGGATTAGGGTTCGATTCCGGAGAGGGAGCCTGAGAGATGGCTACCACATCCAAGGAAGGCAGCAGGCGCGCAAATTACCCAATCCCGACACGGGGAGGTAGTGACAATAAATAACAATACCGGGCATTTAATGTCTGGTAATTGGAATGAGTACAATCTAAATCCCTTAACGAGGATCCATTGGAGGGCAAGTCTGGTGCCAGCAGCCGCGGTAATTCCAGCTCCAATAGCGTATATTTAAGTTGTTGCAGTTAAAAAGCTCGTAGTTGGATTTCGGGTGGGTTCGGTCGGTCCGCCTCTGGTGTGCACTGATTGAGCCTTCCTTTCTGCCGGGGACGGGTTCCTGGGCCTCACGGTTTGGGACTCGGAGTCGGCGAGGTTACTTTGAGTAAATTAGAGTGTTCAAAGCAAGCCTACGCTCTGAATACATTAGCATGGAATAACGCGATAGGACTCTGGCCTATCTTGTTGGTCTGTAGGACTGGAGTAATGATTAAGAGGGACAGTCGGGGGCATTCGTATTTCATTGTCAGAGGTGAAATTCTTGGATTTATGAAAGACGAACTTCTGCGAAAGCATTTGCCAAGGATGTTTTCATTAATCAANNNCGAANGTNGGGG                               '
p209
sg6
S'TCAGTTATAGTTTATTTGATGGTACCTACTACTCGGATAACCGTAGTAATTCTAGAGCTAATACGTGCGTAAATCCCGACTTCTGGAAGGGACGTATTTATTAGATAAAAGGCCAGCCGGACTCTGTCCGACCTGCGGTGAATCATGATAACTTCACGAATCGTATGGCCTTGCGCCGACGATGTTTCATTCAAATTTCTGCCCTATCAACTTTCGATGGTAGGATAGAGGCCTACCATGGTGGTAACGGGTGACGGAGGATTAGGGTTCGATTCCGGAGAGGGAGCCTGAGAGATGGCTACCACATCCAAGGAAGGCAGCAGGCGCGCAAATTACCCAATCCCGACACGGGGAGGTAGTGACAATAAATAACAATACCGGGCATTTAATGTCTGGTAATTGGAATGAGTACAATCTAAATCCCTTAACGAGGATCCATTGGAGGGCAAGTCTGGTGCCAGCAGCCGCGGTAATTCCAGCTCCAATAGCGTATATTTAAGTTGTTGCAGTTAAAAAGCTCGTAGTTGGATTTCGGGTGGGTTCGGTCGGTCCGCCTCTGGTGTGCACTGATTGAGCCTTCCTTTCTGCCGGGGACGGGTTCCTGGGCCTCACGGTTTGGGACTCGGAGTCGGCGAGGTTACTTTGAGTAAATTAGAGTGTTCAAAGCAAGCCTACGCTCTGAATACATTAGCATGGAATAACGCGATAGGACTCTGGCCTATCTTGTTGGTCTGTAGGACTGGAGTAATGATTAAGAGGGACAGTCGGGGGCATTCGTATTTCATTGTCAGAGGTGAAATTCTTGGATTTATGAAAGACGAACTTCTGCGAAAGCATTTGCCAAGGATGTTTTCATTAATCAANNNCGAANGTNGGGG'
p210
sg8
S'frwdrev'
p211
sg10
I01
sg11
g12
sg13
I01
sg14
(lp212
(dp213
g4
g12
sg6
g12
sg8
S'file'
p214
sg10
I00
sg11
g12
sg13
I00
sg14
(lp215
sg19
I00
sg20
I43
sg21
S'7-27L7_halo_PAN1930-chloro18sF.ab1'
p216
sa(dp217
g4
g12
sg6
g12
sg8
S'file'
p218
sg10
I00
sg11
g12
sg13
I00
sg14
(lp219
sg19
I01
sg20
I44
sg21
S'7-27L7_halo_PAN1930-chloro18SmidR.ab1'
p220
sasg19
I00
sg20
I42
sg21
S'7-27L7_halo_PAN1930_18SA'
p221
sa(dp222
g4
g12
sg6
g12
sg8
S'file'
p223
sg10
I00
sg11
g12
sg13
I00
sg14
(lp224
sg19
I00
sg20
I45
sg21
S'7-27L7_halo_PAN1930-chloro18sMidF.ab1'
p225
sa(dp226
g4
S'                                                                          TCATTAAATCAGTTATAGTTTATTTGATGGTACTTACTACTCGGATAACCGTAGTAATTCTAGAGCTAATACGTGCGTAAATCCCGACTTCTGGAAGGGACGTATTTATTAGATAAAAGGCCAGCCGAGCTTGCTCGACTTTAGGTGAATCATGATAACTCCACGAATCGCATGGCCTTGTGCCGGCGATGTTTCATTCAAATTTCTGCCCTATCAACTTTCGATGGTAGGATAGAGGCCTACCATGGTGGTAACGGGTGACGGAGGATTAGGGTTCGATTCCGGAGAGGGAGCCTGAGAAATGGCTACCACATCCAAGGAAGGCAGCAGGCGCGCAAATTACCCAATCCCGACACGGGGAGGTAGTGACAATAAATAACAATGCCGAGCATTTTATGTTTGGCAATTGGAATGAGCACAATCTAAACCCCTTAACGAGGATCCATTGGAGGGCAAGTCTGGTGCCAGCAGCCGCGGTAATTCCAGCTCCAATAGCGTATATTTAAGTTGTTGCAGTTAAAAAGCTCGTAGTTGGATTTCGGGTGGGTTGTAGTGGTCCGGTTCGCTGTGTACTGCTACGGCCTTCCTTTCTGCCGGAAACGGGCTCTTGGGCTTTACTGTCTGGGACTCGGAGTCGGCGAGGTTACTTTGAGTAAATTAGAGTGTTCAAAGCAAGCTTACGCTCTGAATACATTAGCATGGAATAACACGATAGGACTCTGGCCTATCTTGTTGGTCTGTAGGACTGGAGTAATGATTAAGAGGGACAGTCGGGGGCATTCGTATTTCATTGTCAGAGGTGAAATTCTTGGATTTATGAAAGACGAACTTCTGCGAAAGCATTTGCCAAGGATGTTTTCATTAATCAAGANNAAAGTTGGGGGCTC                                                                   '
p227
sg6
S'TCATTAAATCAGTTATAGTTTATTTGATGGTACTTACTACTCGGATAACCGTAGTAATTCTAGAGCTAATACGTGCGTAAATCCCGACTTCTGGAAGGGACGTATTTATTAGATAAAAGGCCAGCCGAGCTTGCTCGACTTTAGGTGAATCATGATAACTCCACGAATCGCATGGCCTTGTGCCGGCGATGTTTCATTCAAATTTCTGCCCTATCAACTTTCGATGGTAGGATAGAGGCCTACCATGGTGGTAACGGGTGACGGAGGATTAGGGTTCGATTCCGGAGAGGGAGCCTGAGAAATGGCTACCACATCCAAGGAAGGCAGCAGGCGCGCAAATTACCCAATCCCGACACGGGGAGGTAGTGACAATAAATAACAATGCCGAGCATTTTATGTTTGGCAATTGGAATGAGCACAATCTAAACCCCTTAACGAGGATCCATTGGAGGGCAAGTCTGGTGCCAGCAGCCGCGGTAATTCCAGCTCCAATAGCGTATATTTAAGTTGTTGCAGTTAAAAAGCTCGTAGTTGGATTTCGGGTGGGTTGTAGTGGTCCGGTTCGCTGTGTACTGCTACGGCCTTCCTTTCTGCCGGAAACGGGCTCTTGGGCTTTACTGTCTGGGACTCGGAGTCGGCGAGGTTACTTTGAGTAAATTAGAGTGTTCAAAGCAAGCTTACGCTCTGAATACATTAGCATGGAATAACACGATAGGACTCTGGCCTATCTTGTTGGTCTGTAGGACTGGAGTAATGATTAAGAGGGACAGTCGGGGGCATTCGTATTTCATTGTCAGAGGTGAAATTCTTGGATTTATGAAAGACGAACTTCTGCGAAAGCATTTGCCAAGGATGTTTTCATTAATCAAGANNAAAGTTGGGGGCTC'
p228
sg8
S'frwdrev'
p229
sg10
I01
sg11
g12
sg13
I01
sg14
(lp230
(dp231
g4
g12
sg6
g12
sg8
S'file'
p232
sg10
I00
sg11
g12
sg13
I00
sg14
(lp233
sg19
I00
sg20
I47
sg21
S'8-17L1_star_BLU1901-chloro18sF.ab1'
p234
sa(dp235
g4
g12
sg6
g12
sg8
S'file'
p236
sg10
I00
sg11
g12
sg13
I00
sg14
(lp237
sg19
I01
sg20
I48
sg21
S'8-17L1_star_BLU1901-chloro18SmidR.ab1'
p238
sasg19
I00
sg20
I46
sg21
S'8-17L1_star_BLU1901_18SA'
p239
sa(dp240
g4
g12
sg6
g12
sg8
S'file'
p241
sg10
I00
sg11
g12
sg13
I00
sg14
(lp242
sg19
I00
sg20
I49
sg21
S'8-17L1_star_BLU1901-chloro18sMidF.ab1'
p243
sa(dp244
g4
S'                                                TATAAACTGCTTTATACTGTTAAACTGCGAATGGCTCATTAAATCAGTTATAGTTTATTTGATGGTACTTACTACTCGGATAACCGTAGTAATTCTAGAGCTAATACGTGCGTAAATCCCGACTTCTGGAAGGGACGTATTTATTAGATAAAAGGCCAGCCGAGCTTGCTCGACTTTAGGTGAATCATGATAACTCCACGAATCGCATGGCCTTGCGCCGGCGATGTTTCATTCAAATTTCTGCCCTATCAACTTTCGATGGTAGGATAGAGGCCTACCATGGTGGTAACGGGTGACGGAGGATTAGGGTTCGATTCCGGAGAGGGAGCCTGAGAAATGGCTACCACATCCAAGGAAGGCAGCAGGCGCGCAAATTACCCAATCCCGACACGGGGAGGTAGTGACAATAAATAACAATGCCGAGCATTTTATGTTTGGCAATTGGAATGAGCACAATCTAAACCCCTTAACGAGGATCCATTGGAGGGCAAGTCTGGTGCCAGCAGCCGCGGTAATTCCAGCTCCAATAGCGTATATTTAAGTTGTTGCAGTTAAAAAGCTCGTAGTTGGATTTCGGGTGGGTTGTAGTGGTCCGGTTCGCTGTGTACTGCTACGGCCTTCCTTTCTGCCGGAAACAGGCTCTTGGGCTTTACTGTCTGGGACCTGGAGTCGGCGAGGTTACTTTGAGTAAATTAGAGTGTTCAAAGCAAGCTTACGCTCTGAATACATTAGCATGGAATAACACGATAGGACTCTGGCCTATCTTGTTGGTCTGTAGGACTGGAGTAATGATTAAGAGGGACAGTCGGGGGCATTCGTATTTCATTGTCAGAGGTGAAATTCTTGGATTTATGAAAGACGAACTTCTGCGAAAGCATTTGCCAAGGATGTTTTCATTAATCANNNNCNAAANTNGGGGGNTCNA                                                          '
p245
sg6
S'TATAAACTGCTTTATACTGTTAAACTGCGAATGGCTCATTAAATCAGTTATAGTTTATTTGATGGTACTTACTACTCGGATAACCGTAGTAATTCTAGAGCTAATACGTGCGTAAATCCCGACTTCTGGAAGGGACGTATTTATTAGATAAAAGGCCAGCCGAGCTTGCTCGACTTTAGGTGAATCATGATAACTCCACGAATCGCATGGCCTTGCGCCGGCGATGTTTCATTCAAATTTCTGCCCTATCAACTTTCGATGGTAGGATAGAGGCCTACCATGGTGGTAACGGGTGACGGAGGATTAGGGTTCGATTCCGGAGAGGGAGCCTGAGAAATGGCTACCACATCCAAGGAAGGCAGCAGGCGCGCAAATTACCCAATCCCGACACGGGGAGGTAGTGACAATAAATAACAATGCCGAGCATTTTATGTTTGGCAATTGGAATGAGCACAATCTAAACCCCTTAACGAGGATCCATTGGAGGGCAAGTCTGGTGCCAGCAGCCGCGGTAATTCCAGCTCCAATAGCGTATATTTAAGTTGTTGCAGTTAAAAAGCTCGTAGTTGGATTTCGGGTGGGTTGTAGTGGTCCGGTTCGCTGTGTACTGCTACGGCCTTCCTTTCTGCCGGAAACAGGCTCTTGGGCTTTACTGTCTGGGACCTGGAGTCGGCGAGGTTACTTTGAGTAAATTAGAGTGTTCAAAGCAAGCTTACGCTCTGAATACATTAGCATGGAATAACACGATAGGACTCTGGCCTATCTTGTTGGTCTGTAGGACTGGAGTAATGATTAAGAGGGACAGTCGGGGGCATTCGTATTTCATTGTCAGAGGTGAAATTCTTGGATTTATGAAAGACGAACTTCTGCGAAAGCATTTGCCAAGGATGTTTTCATTAATCANNNNCNAAANTNGGGGGNTCNA'
p246
sg8
S'frwdrev'
p247
sg10
I01
sg11
g12
sg13
I01
sg14
(lp248
(dp249
g4
g12
sg6
g12
sg8
S'file'
p250
sg10
I00
sg11
g12
sg13
I00
sg14
(lp251
sg19
I00
sg20
I51
sg21
S'8-19L2_thickWall_BLU1901-chloro18sF.ab1'
p252
sa(dp253
g4
g12
sg6
g12
sg8
S'file'
p254
sg10
I00
sg11
g12
sg13
I00
sg14
(lp255
sg19
I01
sg20
I52
sg21
S'8-19L2_thickWall_BLU1901-chloro18SmidR.ab1'
p256
sasg19
I00
sg20
I50
sg21
S'8-19L2_thickWall_BLU1901_18SA'
p257
sa(dp258
g4
g12
sg6
g12
sg8
S'file'
p259
sg10
I00
sg11
g12
sg13
I00
sg14
(lp260
sg19
I00
sg20
I53
sg21
S'8-19L2_thickWall_BLU1901-chloro18sMidF.ab1'
p261
sa(dp262
g4
S'                                              TAAACTGCTTTATACTGTTAAANTGCGAATGGCTCATTAAATCAGTTATAGTTTATTTGATGGTACTTACTACTCGGATAACCGTAGTAATTCTAGAGCTAATACGTGCGTAAATCCCGACTTCTGGAAGGGACGTATTTATTAGATAAAAGGCCAGCCGAGCTTGCTCGACTTTAGGTGAATCATGATAACTCCACGAATCGCATGGCCTTGCGCCGGCGATGTTTCATTCAAATTTCTGCCCTATCAACTTTCGATGGTAGGATAGAGGCCTACCATGGTGGTAACGGGTGACGGAGGATTAGGGTTCGATTCCGGAGAGGGAGCCTGAGAAATGGCTACCACATCCAAGGAAGGCAGCAGGCGCGCAAATTACCCAATCCCGACACGGGGAGGTAGTGACAATAAATAACAATGCCGAGCATTTTATGTTTGGCAATTGGAATGAGCACAATCTAAACCCCTTAACGAGGATCCATTGGAGGGCAAGTCTGGTGCCAGCAGCCGCGGTAATTCCAGCTCCAATAGCGTATATTTAAGTTGTTGCAGTTAAAAAGCTCGTAGTTGGATTTCGGGTGGGTTGTAGTGGTCCGGTTCGCTGTGTACTGCTACGGCCTTCCTTTCTGCCGGAAACAGGCTCTTGGGCTTTACTGTCTGGGACCTGGAGTCGGCGAGGTTACTTTGAGTAAATTAGAGTGTTCAAAGCAAGCTTACGCTCTGAATACATTAGCATGGAATAACACGATAGGACTCTGGCCTATCTTGTTGGTCTGTAGGACTGGAGTAATGATTAAGAGGGACAGTCGGGGGCATTCGTATTTCATTGTCAGAGGTGAAATTCTTGGATTTATGAAAGACGAACTTCTGCGAAAGCATTTGCCAAGGATGTTTTCATTAATCAAGAANNAANGTNGGGGGNTCNA                                 '
p263
sg6
S'TAAACTGCTTTATACTGTTAAANTGCGAATGGCTCATTAAATCAGTTATAGTTTATTTGATGGTACTTACTACTCGGATAACCGTAGTAATTCTAGAGCTAATACGTGCGTAAATCCCGACTTCTGGAAGGGACGTATTTATTAGATAAAAGGCCAGCCGAGCTTGCTCGACTTTAGGTGAATCATGATAACTCCACGAATCGCATGGCCTTGCGCCGGCGATGTTTCATTCAAATTTCTGCCCTATCAACTTTCGATGGTAGGATAGAGGCCTACCATGGTGGTAACGGGTGACGGAGGATTAGGGTTCGATTCCGGAGAGGGAGCCTGAGAAATGGCTACCACATCCAAGGAAGGCAGCAGGCGCGCAAATTACCCAATCCCGACACGGGGAGGTAGTGACAATAAATAACAATGCCGAGCATTTTATGTTTGGCAATTGGAATGAGCACAATCTAAACCCCTTAACGAGGATCCATTGGAGGGCAAGTCTGGTGCCAGCAGCCGCGGTAATTCCAGCTCCAATAGCGTATATTTAAGTTGTTGCAGTTAAAAAGCTCGTAGTTGGATTTCGGGTGGGTTGTAGTGGTCCGGTTCGCTGTGTACTGCTACGGCCTTCCTTTCTGCCGGAAACAGGCTCTTGGGCTTTACTGTCTGGGACCTGGAGTCGGCGAGGTTACTTTGAGTAAATTAGAGTGTTCAAAGCAAGCTTACGCTCTGAATACATTAGCATGGAATAACACGATAGGACTCTGGCCTATCTTGTTGGTCTGTAGGACTGGAGTAATGATTAAGAGGGACAGTCGGGGGCATTCGTATTTCATTGTCAGAGGTGAAATTCTTGGATTTATGAAAGACGAACTTCTGCGAAAGCATTTGCCAAGGATGTTTTCATTAATCAAGAANNAANGTNGGGGGNTCNA'
p264
sg8
S'frwdrev'
p265
sg10
I01
sg11
g12
sg13
I01
sg14
(lp266
(dp267
g4
g12
sg6
g12
sg8
S'file'
p268
sg10
I00
sg11
g12
sg13
I00
sg14
(lp269
sg19
I00
sg20
I55
sg21
S'9-28L1_bigThickWall_BLU2203-chloro18sF.ab1'
p270
sa(dp271
g4
g12
sg6
g12
sg8
S'file'
p272
sg10
I00
sg11
g12
sg13
I00
sg14
(lp273
sg19
I01
sg20
I56
sg21
S'9-28L1_bigThickWall_BLU2203-chloro18SmidR.ab1'
p274
sasg19
I00
sg20
I54
sg21
S'9-28L1_bigThickWall_BLU2203_18SA'
p275
sa(dp276
g4
g12
sg6
g12
sg8
S'file'
p277
sg10
I00
sg11
g12
sg13
I00
sg14
(lp278
sg19
I00
sg20
I57
sg21
S'9-28L1_bigThickWall_BLU2203-chloro18sMidF.ab1'
p279
sa(dp280
g4
S'                  NGAACGCAGCGAAATGCGATACGTAGTGTGAATTGCAGAATTCCGTGAACCATCGAATTTTTGAACGCATATTGCGCTCAAGGCTTCGGCCAAGAGCATGTCTGCCTCAGCGTCGGGTTCTCCATCATTGACTCCTCCCTCCTCACAGAGAGAGCAGCCATGGAAACTCGCAGTCCGATCCTNTGTTCTTAACCGAANNTTGGTGAGGTCTGCCAAAGTGAAAGTAGCGCTCCGAGCATCACCCNTTCGTCTGCCAGCAATGGCGGGCGAGTGGGTATGTAGCCGCACTCGAGTAGTTGCGAATTCGCATGTTCACATGTGTTTTTCCTACCCGACTATCCTACACTTGCCCGGCTTCTCACTGATCCTCATCGGTCTTCTTCACGGAACGCCTTTGATTTCAGCTAGGAAGAACCAGCCTATATACCTCCCAACATGGAACCCTTCACTTCTCGACCTGAGCTCAGGCAAGATTACCCGCTGAACTTAAGCATATCAATAAGCGGAGGAAAAGAAACCAACCAGGATTCCCCTAGTAACGGCGAGCGAACCGGGATCAGCCCAACTTGAAAATCTCCCTCTTGGAGAATTGTAGTCTACAGAAGTGCCCTCTGTGGTCATGCGAACTCAAGTCCGCTGGAAAGCGGCGTCAGAGAGGGTGAGAACCCCGTCGGTTCGCATTTGACTGCACCACGAGGTGCTTTCCACGAGTCGGGTTGTTTGGGAATGCAGCCCAAAATTGGAGGTAAATCCCTTCTAANGNTAAATAACGGCNANA                           '
p281
sg6
S'NGAACGCAGCGAAATGCGATACGTAGTGTGAATTGCAGAATTCCGTGAACCATCGAATTTTTGAACGCATATTGCGCTCAAGGCTTCGGCCAAGAGCATGTCTGCCTCAGCGTCGGGTTCTCCATCATTGACTCCTCCCTCCTCACAGAGAGAGCAGCCATGGAAACTCGCAGTCCGATCCTNTGTTCTTAACCGAANNTTGGTGAGGTCTGCCAAAGTGAAAGTAGCGCTCCGAGCATCACCCNTTCGTCTGCCAGCAATGGCGGGCGAGTGGGTATGTAGCCGCACTCGAGTAGTTGCGAATTCGCATGTTCACATGTGTTTTTCCTACCCGACTATCCTACACTTGCCCGGCTTCTCACTGATCCTCATCGGTCTTCTTCACGGAACGCCTTTGATTTCAGCTAGGAAGAACCAGCCTATATACCTCCCAACATGGAACCCTTCACTTCTCGACCTGAGCTCAGGCAAGATTACCCGCTGAACTTAAGCATATCAATAAGCGGAGGAAAAGAAACCAACCAGGATTCCCCTAGTAACGGCGAGCGAACCGGGATCAGCCCAACTTGAAAATCTCCCTCTTGGAGAATTGTAGTCTACAGAAGTGCCCTCTGTGGTCATGCGAACTCAAGTCCGCTGGAAAGCGGCGTCAGAGAGGGTGAGAACCCCGTCGGTTCGCATTTGACTGCACCACGAGGTGCTTTCCACGAGTCGGGTTGTTTGGGAATGCAGCCCAAAATTGGAGGTAAATCCCTTCTAANGNTAAATAACGGCNANA'
p282
sg8
S'frwdrev'
p283
sg10
I01
sg11
g12
sg13
I01
sg14
(lp284
(dp285
g4
g12
sg6
g12
sg8
S'file'
p286
sg10
I00
sg11
g12
sg13
I00
sg14
(lp287
sg19
I00
sg20
I59
sg21
S'9-28L1_bigThickWall_BLU2203-chloroITS2F.ab1'
p288
sa(dp289
g4
g12
sg6
g12
sg8
S'file'
p290
sg10
I00
sg11
g12
sg13
I00
sg14
(lp291
sg19
I01
sg20
I60
sg21
S'9-28L1_bigThickWall_BLU2203-chloroITS2R.ab1'
p292
sasg19
I00
sg20
I58
sg21
S'9-28L1_bigThickWall_BLU2203_ITS2'
p293
sa(dp294
g4
g12
sg6
g12
sg8
S'frwdrev'
p295
sg10
I00
sg11
g12
sg13
I00
sg14
(lp296
(dp297
g4
g12
sg6
g12
sg8
S'file'
p298
sg10
I00
sg11
g12
sg13
I00
sg14
(lp299
sg19
I00
sg20
I62
sg21
S'i1-chloroITS2F.ab1'
p300
sa(dp301
g4
g12
sg6
g12
sg8
S'file'
p302
sg10
I00
sg11
g12
sg13
I00
sg14
(lp303
sg19
I01
sg20
I63
sg21
S'i1-chloroITS2R.ab1'
p304
sasg19
I00
sg20
I61
sg21
S'i1-chloroITS2'
p305
sa(dp306
g4
g12
sg6
g12
sg8
S'frwdrev'
p307
sg10
I00
sg11
g12
sg13
I00
sg14
(lp308
(dp309
g4
g12
sg6
g12
sg8
S'file'
p310
sg10
I00
sg11
g12
sg13
I00
sg14
(lp311
sg19
I00
sg20
I65
sg21
S'i2-chloroITS2F.ab1'
p312
sa(dp313
g4
g12
sg6
g12
sg8
S'file'
p314
sg10
I00
sg11
g12
sg13
I00
sg14
(lp315
sg19
I01
sg20
I66
sg21
S'i2-chloroITS2R.ab1'
p316
sasg19
I00
sg20
I64
sg21
S'i2-chloroITS2'
p317
sa(dp318
g4
g12
sg6
g12
sg8
S'frwdrev'
p319
sg10
I00
sg11
g12
sg13
I00
sg14
(lp320
(dp321
g4
g12
sg6
g12
sg8
S'file'
p322
sg10
I00
sg11
g12
sg13
I00
sg14
(lp323
sg19
I00
sg20
I68
sg21
S'i3-chloroITS2F.ab1'
p324
sa(dp325
g4
g12
sg6
g12
sg8
S'file'
p326
sg10
I00
sg11
g12
sg13
I00
sg14
(lp327
sg19
I01
sg20
I69
sg21
S'i3-chloroITS2R.ab1'
p328
sasg19
I00
sg20
I67
sg21
S'i3-chloroITS2'
p329
sa(dp330
g4
g12
sg6
g12
sg8
S'frwdrev'
p331
sg10
I00
sg11
g12
sg13
I00
sg14
(lp332
(dp333
g4
g12
sg6
g12
sg8
S'file'
p334
sg10
I00
sg11
g12
sg13
I00
sg14
(lp335
sg19
I00
sg20
I71
sg21
S'i4-chloroITS2F.ab1'
p336
sa(dp337
g4
g12
sg6
g12
sg8
S'file'
p338
sg10
I00
sg11
g12
sg13
I00
sg14
(lp339
sg19
I01
sg20
I72
sg21
S'i4-chloroITS2R.ab1'
p340
sasg19
I00
sg20
I70
sg21
S'i4-chloroITS2'
p341
sa(dp342
g4
g12
sg6
g12
sg8
S'frwdrev'
p343
sg10
I00
sg11
g12
sg13
I00
sg14
(lp344
(dp345
g4
g12
sg6
g12
sg8
S'file'
p346
sg10
I00
sg11
g12
sg13
I00
sg14
(lp347
sg19
I00
sg20
I74
sg21
S'i5-chloroITS2F.ab1'
p348
sa(dp349
g4
g12
sg6
g12
sg8
S'file'
p350
sg10
I00
sg11
g12
sg13
I00
sg14
(lp351
sg19
I01
sg20
I75
sg21
S'i5-chloroITS2R.ab1'
p352
sasg19
I00
sg20
I73
sg21
S'i5-chloroITS2'
p353
sa(dp354
g4
g12
sg6
g12
sg8
S'frwdrev'
p355
sg10
I00
sg11
g12
sg13
I00
sg14
(lp356
(dp357
g4
g12
sg6
g12
sg8
S'file'
p358
sg10
I00
sg11
g12
sg13
I00
sg14
(lp359
sg19
I00
sg20
I77
sg21
S'i6-chloroITS2F.ab1'
p360
sa(dp361
g4
g12
sg6
g12
sg8
S'file'
p362
sg10
I00
sg11
g12
sg13
I00
sg14
(lp363
sg19
I01
sg20
I78
sg21
S'i6-chloroITS2R.ab1'
p364
sasg19
I00
sg20
I76
sg21
S'i6-chloroITS2'
p365
sa(dp366
g4
g12
sg6
g12
sg8
S'frwdrev'
p367
sg10
I00
sg11
g12
sg13
I00
sg14
(lp368
(dp369
g4
g12
sg6
g12
sg8
S'file'
p370
sg10
I00
sg11
g12
sg13
I00
sg14
(lp371
sg19
I00
sg20
I80
sg21
S'i7-chloroITS2F.ab1'
p372
sa(dp373
g4
g12
sg6
g12
sg8
S'file'
p374
sg10
I00
sg11
g12
sg13
I00
sg14
(lp375
sg19
I01
sg20
I81
sg21
S'i7-chloroITS2R.ab1'
p376
sasg19
I00
sg20
I79
sg21
S'i7-chloroITS2'
p377
sa(dp378
g4
g12
sg6
g12
sg8
S'frwdrev'
p379
sg10
I00
sg11
g12
sg13
I00
sg14
(lp380
(dp381
g4
g12
sg6
g12
sg8
S'file'
p382
sg10
I00
sg11
g12
sg13
I00
sg14
(lp383
sg19
I00
sg20
I83
sg21
S'i8-chloroITS2F.ab1'
p384
sa(dp385
g4
g12
sg6
g12
sg8
S'file'
p386
sg10
I00
sg11
g12
sg13
I00
sg14
(lp387
sg19
I01
sg20
I84
sg21
S'i8-chloroITS2R.ab1'
p388
sasg19
I00
sg20
I82
sg21
S'i8-chloroITS2'
p389
sa(dp390
g4
g12
sg6
g12
sg8
S'frwdrev'
p391
sg10
I00
sg11
g12
sg13
I00
sg14
(lp392
(dp393
g4
g12
sg6
g12
sg8
S'file'
p394
sg10
I00
sg11
g12
sg13
I00
sg14
(lp395
sg19
I00
sg20
I86
sg21
S'i9-chloroITS2F.ab1'
p396
sa(dp397
g4
g12
sg6
g12
sg8
S'file'
p398
sg10
I00
sg11
g12
sg13
I00
sg14
(lp399
sg19
I01
sg20
I87
sg21
S'i9-chloroITS2R.ab1'
p400
sasg19
I00
sg20
I85
sg21
S'i9-chloroITS2'
p401
sasS'formatversion'
p402
S'0.9'
p403
sS'consseqsettings'
p404
(dp405
S'consensus_algorithm'
p406
S'Bayesian'
p407
sS'do_qualitytrim'
p408
I01
sS'qualitytrim_winsize'
p409
I10
sS'primermatch_threshold'
p410
F0.8
sS'trim_endgaps'
p411
I00
sS'min_confscore'
p412
I30
sS'forward_primer'
p413
g12
sS'reverse_primer'
p414
g12
sS'qualitytrim_basecnt'
p415
I8
sS'trim_consensus'
p416
I01
sS'trim_primers'
p417
I00
ssS'properties'
p418
(dp419
S'fwd_trace_searchstr'
p420
S'chloro18sMidF.ab1'
p421
sS'rev_trace_searchstr'
p422
S'snow18sSeqR.ab1'
p423
sS'trace_file_dir'
p424
S'.'
p425
ss.