(dp0
S'items'
p1
(lp2
(dp3
S'fullcons'
p4
S''
p5
sS'compactcons'
p6
g5
sS'itemtype'
p7
S'frwdrev'
p8
sS'useseq'
p9
I00
sS'notes'
p10
g5
sS'hasseq'
p11
I00
sS'children'
p12
(lp13
(dp14
g4
g5
sg6
g5
sg7
S'file'
p15
sg9
I00
sg10
g5
sg11
I00
sg12
(lp16
sS'isreverse'
p17
I00
sS'id'
p18
I1
sS'name'
p19
S'bigGlobe_BLU2203_9-28L1-rbcL_remiasii_F.ab1'
p20
sa(dp21
g4
g5
sg6
g5
sg7
S'file'
p22
sg9
I00
sg10
g5
sg11
I00
sg12
(lp23
sg17
I01
sg18
I2
sg19
S'bigGlobe_BLU2203_9-28L1-rbcL_remiasii_R.ab1'
p24
sasg17
I00
sg18
I0
sg19
S'bigGlobe_BLU2203_9-28L1_rbcL'
p25
sa(dp26
g4
g5
sg6
g5
sg7
S'frwdrev'
p27
sg9
I00
sg10
g5
sg11
I00
sg12
(lp28
(dp29
g4
g5
sg6
g5
sg7
S'file'
p30
sg9
I00
sg10
g5
sg11
I00
sg12
(lp31
sg17
I00
sg18
I4
sg19
S'globe_BLU1901_8-19L2-rbcL_remiasii_F.ab1'
p32
sa(dp33
g4
g5
sg6
g5
sg7
S'file'
p34
sg9
I00
sg10
g5
sg11
I00
sg12
(lp35
sg17
I01
sg18
I5
sg19
S'globe_BLU1901_8-19L2-rbcL_remiasii_R.ab1'
p36
sasg17
I00
sg18
I3
sg19
S'globe_BLU1901_8-19L2_rbcL'
p37
sa(dp38
g4
S'                               ACCGTTACAAAGGTCGTTGTTATGATA TCGAACCAGTTGCTGGTGAAGA AAACCNATACATCGCTTACGTTGCTTATCCTATTGACCTTTTTGAAGAAGGTTCTGTAACTAACTTATTTACATCTATTGTAGGTAACGTTTTTGGTTTCAAAGCTCTTCGTGCTTTACGTCTTGAAGATTTACGTATTTCTTGTGCATACGCTAAAACATTCCAAGGACCTCCTCACGGGATCCAAGTAGAACGTGACAAATTAAACAAATATGGTCGTGGTCTTTTAGGTTGTACTATTAAACCAAAATTAGGTTTATCAGCTAAAAACTATGGTCGTGCAGTTTACGAATGTTTACGTGGTGGGTTAGATTTCACAAAAGATGATGAAAATGTTACAAGCCAAGCATTCATGCGTTGGAGAGACCGTTTCATTTTTGTAGCAGAAGCGCTTTACAAATCTCAAGCTGAAACAGGTGAAATTAAAGGACATTATTTAAACGTTACTGCTGGAACGTCTGAAGAAATGCTAAAAAGAGCTGAAGTAGCTAAAGATTTAGGAGTACCTATTATTATGCATGACTATCTAACAGGTGGTCTTACTGCTAACACTTCATTAGCTCACTACTGTCGTGACAATGGTCTATTATTACACATTCACAGAGCAATGCACGCGGTTATTGACCGTCAAAGAAACCACGGGATTCACTTCCGTGTATTAGCAAAAGCTCTTCGTTTATCTGGTGGGGACCATCTTCACTCAGGAACTGTTGTAGGAAAACTAGAAGGTGAACGTGAAGTTACTTTAGGTTTCGTTGATTTAATGAGAGACGAATATATTGAAAAAGATCGTAGCCGTGGTATTTACTTCACTCAAGATTG                                         '
p39
sg6
S'ACCGTTACAAAGGTCGTTGTTATGATATCGAACCAGTTGCTGGTGAAGAAAACCNATACATCGCTTACGTTGCTTATCCTATTGACCTTTTTGAAGAAGGTTCTGTAACTAACTTATTTACATCTATTGTAGGTAACGTTTTTGGTTTCAAAGCTCTTCGTGCTTTACGTCTTGAAGATTTACGTATTTCTTGTGCATACGCTAAAACATTCCAAGGACCTCCTCACGGGATCCAAGTAGAACGTGACAAATTAAACAAATATGGTCGTGGTCTTTTAGGTTGTACTATTAAACCAAAATTAGGTTTATCAGCTAAAAACTATGGTCGTGCAGTTTACGAATGTTTACGTGGTGGGTTAGATTTCACAAAAGATGATGAAAATGTTACAAGCCAAGCATTCATGCGTTGGAGAGACCGTTTCATTTTTGTAGCAGAAGCGCTTTACAAATCTCAAGCTGAAACAGGTGAAATTAAAGGACATTATTTAAACGTTACTGCTGGAACGTCTGAAGAAATGCTAAAAAGAGCTGAAGTAGCTAAAGATTTAGGAGTACCTATTATTATGCATGACTATCTAACAGGTGGTCTTACTGCTAACACTTCATTAGCTCACTACTGTCGTGACAATGGTCTATTATTACACATTCACAGAGCAATGCACGCGGTTATTGACCGTCAAAGAAACCACGGGATTCACTTCCGTGTATTAGCAAAAGCTCTTCGTTTATCTGGTGGGGACCATCTTCACTCAGGAACTGTTGTAGGAAAACTAGAAGGTGAACGTGAAGTTACTTTAGGTTTCGTTGATTTAATGAGAGACGAATATATTGAAAAAGATCGTAGCCGTGGTATTTACTTCACTCAAGATTG'
p40
sg7
S'frwdrev'
p41
sg9
I01
sg10
g5
sg11
I01
sg12
(lp42
(dp43
g4
g5
sg6
g5
sg7
S'file'
p44
sg9
I00
sg10
g5
sg11
I00
sg12
(lp45
sg17
I00
sg18
I7
sg19
S'globe_BLU2203_1-11L1-rbcL_remiasii_F.ab1'
p46
sa(dp47
g4
g5
sg6
g5
sg7
S'file'
p48
sg9
I00
sg10
g5
sg11
I00
sg12
(lp49
sg17
I01
sg18
I8
sg19
S'globe_BLU2203_1-11L1-rbcL_remiasii_R.ab1'
p50
sasg17
I00
sg18
I6
sg19
S'globe_BLU2203_1-11L1_rbcL'
p51
sa(dp52
g4
S'                NNAAGGTTTCCGTAGGTGAACCTGCGGAAGGATCATTGAATCTATCAATACCCACACCGTGAACCAAGATGTCTGACCTCTAACCTCTGCTTGCAGAGGTGGGGCGTTTGGCCCGGCCTTTATTGGCTGTTCCGANCGGGTCTAGGCTAGGCTTCGGCCAAGTTCGGACCGGTCTCCCAAACCTATCAACACCTAATCAATCATATAAAGTAAACTTTCAGCCGGCTTTGCCGCTGAATCATAACCAAGACAACTCTCAACAACGGATATCTTGGCTCTTGCAACGATGAAGAACGCAGCGAAATGCGATACGTAGTGTGAATTGCAGAAAACCGTGAACCATCGAATCTTTGAACGCATATTGCGCTGGAGGCTTCGGCCAACAGCATGTCTGCCTCAGCGTCGGGTTAATTCTCGCCCATCATCTTCCCTGTGTTGATGATCTGGGCGGATCTGGCTTTCTCAGCTCTCACGAGCTGGGTCTGCTGAAGTACAGAGGTTAATGCATGGACCCGTTAAGGGCTGCAGCTGGTTAGGCAGTGATGCTATCGATTAGCTGTTGGTCTGGGAACTGCGTTTGACCCTCCACAAGGAAACTTAATTATTTCCTCGACCTGAGCTCAGGCAAGATTACCCGCTGAACTTAAGCATATCAATAAGCGGAAGNN'
p53
sg6
S'NNAAGGTTTCCGTAGGTGAACCTGCGGAAGGATCATTGAATCTATCAATACCCACACCGTGAACCAAGATGTCTGACCTCTAACCTCTGCTTGCAGAGGTGGGGCGTTTGGCCCGGCCTTTATTGGCTGTTCCGANCGGGTCTAGGCTAGGCTTCGGCCAAGTTCGGACCGGTCTCCCAAACCTATCAACACCTAATCAATCATATAAAGTAAACTTTCAGCCGGCTTTGCCGCTGAATCATAACCAAGACAACTCTCAACAACGGATATCTTGGCTCTTGCAACGATGAAGAACGCAGCGAAATGCGATACGTAGTGTGAATTGCAGAAAACCGTGAACCATCGAATCTTTGAACGCATATTGCGCTGGAGGCTTCGGCCAACAGCATGTCTGCCTCAGCGTCGGGTTAATTCTCGCCCATCATCTTCCCTGTGTTGATGATCTGGGCGGATCTGGCTTTCTCAGCTCTCACGAGCTGGGTCTGCTGAAGTACAGAGGTTAATGCATGGACCCGTTAAGGGCTGCAGCTGGTTAGGCAGTGATGCTATCGATTAGCTGTTGGTCTGGGAACTGCGTTTGACCCTCCACAAGGAAACTTAATTATTTCCTCGACCTGAGCTCAGGCAAGATTACCCGCTGAACTTAAGCATATCAATAAGCGGAAGNN'
p54
sg7
S'frwdrev'
p55
sg9
I01
sg10
g5
sg11
I01
sg12
(lp56
(dp57
g4
g5
sg6
g5
sg7
S'file'
p58
sg9
I00
sg10
g5
sg11
I00
sg12
(lp59
sg17
I00
sg18
I10
sg19
S'honeycomb_BDW1915_7-27L3-chloroITS2_F.ab1'
p60
sa(dp61
g4
g5
sg6
g5
sg7
S'file'
p62
sg9
I00
sg10
g5
sg11
I00
sg12
(lp63
sg17
I01
sg18
I11
sg19
S'honeycomb_BDW1915_7-27L3-ITS4seqRset1_R.ab1'
p64
sasg17
I00
sg18
I9
sg19
S'honeycomb_BDW1915_7-27L3_ITS2'
p65
sa(dp66
g4
S'                 NNAAGGTTTCCGTAGGTGAACCTGCGGAAGGATCATTGAATCTATCAATACCCACACCGTGAACCAAGATGTCTGACCTCTAACCTCTGCTTGCAGAGGTGGGGCGTTTGGCCCGGCCTTTATTGGCTGTTCCGANNGGGTCTAGGCTAGGCTTCGGCCAAGTTCGGACCGGTCTCCCAAACCTATCAACACCTAATCAATCATATAAAGTAAACTTTCAGCCGGCTTTGCCGCTGAATCATAACCAAGACAACTCTCAACAACGGATATCTTGGCTCTTGCAACGATGAAGAACGCAGCGAAATGCGATACGTAGTGTGAATTGCAGAAAACCGTGAACCATCGAATCTTTGAACGCATATTGCGCTGGAGGCTTCGGCCAACAGCATGTCTGCCTCAGCGTCGGGTTAATTCTCGCCCATCATCTTCCCTGTGTTGATGATCTGGGCGGATCTGGCTTTCTCAGCTCTCACGAGCTGGGTCTGCTGAAGTACAGAGGTTAATGCATGGACCCGTTAAGGGCTGCAGCTGGTTAGGCAGTGATGCTATCGATTAGCTGTTGGTCTGGGAACTGCGTTTGACCCTCCACAAGGAAANCTTAATTATTTCCTCGACCTGAGCTCAGGCAAGATTACCCGCTGAACTTAAGCATATCAATNN          '
p67
sg6
S'NNAAGGTTTCCGTAGGTGAACCTGCGGAAGGATCATTGAATCTATCAATACCCACACCGTGAACCAAGATGTCTGACCTCTAACCTCTGCTTGCAGAGGTGGGGCGTTTGGCCCGGCCTTTATTGGCTGTTCCGANNGGGTCTAGGCTAGGCTTCGGCCAAGTTCGGACCGGTCTCCCAAACCTATCAACACCTAATCAATCATATAAAGTAAACTTTCAGCCGGCTTTGCCGCTGAATCATAACCAAGACAACTCTCAACAACGGATATCTTGGCTCTTGCAACGATGAAGAACGCAGCGAAATGCGATACGTAGTGTGAATTGCAGAAAACCGTGAACCATCGAATCTTTGAACGCATATTGCGCTGGAGGCTTCGGCCAACAGCATGTCTGCCTCAGCGTCGGGTTAATTCTCGCCCATCATCTTCCCTGTGTTGATGATCTGGGCGGATCTGGCTTTCTCAGCTCTCACGAGCTGGGTCTGCTGAAGTACAGAGGTTAATGCATGGACCCGTTAAGGGCTGCAGCTGGTTAGGCAGTGATGCTATCGATTAGCTGTTGGTCTGGGAACTGCGTTTGACCCTCCACAAGGAAANCTTAATTATTTCCTCGACCTGAGCTCAGGCAAGATTACCCGCTGAACTTAAGCATATCAATNN'
p68
sg7
S'frwdrev'
p69
sg9
I01
sg10
g5
sg11
I01
sg12
(lp70
(dp71
g4
g5
sg6
g5
sg7
S'file'
p72
sg9
I00
sg10
g5
sg11
I00
sg12
(lp73
sg17
I00
sg18
I13
sg19
S'honeycomb_BDW1915_7-27L4-chloroITS2_F.ab1'
p74
sa(dp75
g4
g5
sg6
g5
sg7
S'file'
p76
sg9
I00
sg10
g5
sg11
I00
sg12
(lp77
sg17
I01
sg18
I14
sg19
S'honeycomb_BDW1915_7-27L4-ITS4seqRset1_R.ab1'
p78
sasg17
I00
sg18
I12
sg19
S'honeycomb_BDW1915_7-27L4_ITS2'
p79
sa(dp80
g4
S'                                                 NNATGATATCGAACCAGTTGCTGGTGAAGAAAACCAATACATCGCTTACGTTGCTTATCCTATTGACCTTTTTGAAGAAGGTTCTGTAACTAACTTATTTACATCTATTGTAGGTAACGTTTTTGGTTTCAAAGCTCTTCGTGCTTTACGTCTTGAAGATTTACGTATTTCTTGTGCATACGCTAAAACATTCCAAGGACCTCCTCACGGGATCCAAGTAGAACGTGACAAATTAAACAAATATGGTCGTGGTCTTTTAGGTTGTACAATTAAACCTAAATTAGGTTTATCAGCTAAAAACTATGGTCGTGCAGTTTACGAATGTTTACGTGGTGGATTAGATTTCACAAAAGATGATGAAAATGTTACAAGCCAAGCTTTCATGCGTTGGAGAGACCGTTTTATTTTTGTATCAGAAGCTCTTTACAAAGCTCAAGCTGAAACAGGTGAAATTAAAGGACATTATTTAAACGTTACTGCTGGAACGTCTGAAGAAATGATGAAAAGAGCTGAAGTAGCTAAAGATTTAGGGGTACCTATTATTATGCATGACTATCTAACAGGTGGTCTTACTGCTAACA CTTCATTAGCTCACTACTGTCGTGACAATGGTCTATTATTACA CA T TCAC AGAGCAAT GCA CGCGGTTA TTG  AC C G   T  C AAAG A A AC CACGGGATTCACTTCCGTGTATTAGCAAAAGCTCTTCGTTTATCTGGTGGGGACCATCTTC ACTCAGGAACTGTTGTAGGAA AACTAGAAGGTGAACG TGAAGTTACTTTAGGTTTCGTTGAT T TAATGA GAGACGAATATATTGAAA AAG A C CGTAGCCGTGGTAN                                                                 '
p81
sg6
S'NNATGATATCGAACCAGTTGCTGGTGAAGAAAACCAATACATCGCTTACGTTGCTTATCCTATTGACCTTTTTGAAGAAGGTTCTGTAACTAACTTATTTACATCTATTGTAGGTAACGTTTTTGGTTTCAAAGCTCTTCGTGCTTTACGTCTTGAAGATTTACGTATTTCTTGTGCATACGCTAAAACATTCCAAGGACCTCCTCACGGGATCCAAGTAGAACGTGACAAATTAAACAAATATGGTCGTGGTCTTTTAGGTTGTACAATTAAACCTAAATTAGGTTTATCAGCTAAAAACTATGGTCGTGCAGTTTACGAATGTTTACGTGGTGGATTAGATTTCACAAAAGATGATGAAAATGTTACAAGCCAAGCTTTCATGCGTTGGAGAGACCGTTTTATTTTTGTATCAGAAGCTCTTTACAAAGCTCAAGCTGAAACAGGTGAAATTAAAGGACATTATTTAAACGTTACTGCTGGAACGTCTGAAGAAATGATGAAAAGAGCTGAAGTAGCTAAAGATTTAGGGGTACCTATTATTATGCATGACTATCTAACAGGTGGTCTTACTGCTAACACTTCATTAGCTCACTACTGTCGTGACAATGGTCTATTATTACACATTCACAGAGCAATGCACGCGGTTATTGACCGTCAAAGAAACCACGGGATTCACTTCCGTGTATTAGCAAAAGCTCTTCGTTTATCTGGTGGGGACCATCTTCACTCAGGAACTGTTGTAGGAAAACTAGAAGGTGAACGTGAAGTTACTTTAGGTTTCGTTGATTTAATGAGAGACGAATATATTGAAAAAGACCGTAGCCGTGGTAN'
p82
sg7
S'frwdrev'
p83
sg9
I01
sg10
g5
sg11
I01
sg12
(lp84
(dp85
g4
g5
sg6
g5
sg7
S'file'
p86
sg9
I00
sg10
g5
sg11
I00
sg12
(lp87
sg17
I00
sg18
I16
sg19
S'petal_CAT20TR8_7-22L2-rbcL_remiasii_F.ab1'
p88
sa(dp89
g4
g5
sg6
g5
sg7
S'file'
p90
sg9
I00
sg10
g5
sg11
I00
sg12
(lp91
sg17
I01
sg18
I17
sg19
S'petal_CAT20TR8_7-22L2-rbcL_remiasii_R.ab1'
p92
sasg17
I00
sg18
I15
sg19
S'petal_CAT20TR8_7-22L2_rbcL'
p93
sa(dp94
g4
S'                                                 TATGATATCGAACCAGTTGCTGGTGAAGAAAACCAATACATCGCTTACGTTGCTTATCCTATTGACCTTTTTGAAGAAGGTTCTGTAACTAACTTATTTACATCTATTGTAGGTAACGTTTTTGGTTTCAAAGCTCTTCGTGCTTTACGTCTTGAAGATTTACGTATTTCTTGTGCATACGCTAAAACATTCCAAGGACCTCCTCACGGGATCCAAGTAGAACGTGACAAATTAAACAAATATGGTCGTGGTCTTTTAGGTTGTACAATTAAACCTAAATTAGGTTTATCAGCTAAAAACTATGGTCGTGCAGTTTACGAATGTTTACGTGGTGGATTAGATTTCACAAAAGATGATGAAAATGTTACAAGCCAAGCTTTCATGCGTTGGAGAGACCGTTTTATTTTTGTAGCAGAAGCTCTTTACAAAGCTCAAGCTGAAACAGGTGAAATTAAAGGACATTATTTAAACGTTACTGCTGGAACGTCTGAAGAAATGATGAAAAGAGCTGAAGTAGCTAAAGATTTAGGGGTACCTATTATTATGCATGACTATCTAACAGGTGGTCTTACTGCTAACACTTCATTAGCTCACTACTGTCGTGACAATGGTCTATTATTACACATTCACAGAGCAATGCACGCGGTTATTGACCGTCAAAGAAACCACGGGATTCACTTCCGTGTATTAGCAAAAGCTCTTCGTTTATCTGGTGGGGACCATCTTCACTCAGGAACTGTTGTAGGAAAACTAGAAGGTGAACGTGAAGTTACTTTAGGTTTCGTTGATTTAATGAGAGACGAATATATCGAAAAAGACCGTAGCCGTGGTATTTACTTCACTCN                                            '
p95
sg6
S'TATGATATCGAACCAGTTGCTGGTGAAGAAAACCAATACATCGCTTACGTTGCTTATCCTATTGACCTTTTTGAAGAAGGTTCTGTAACTAACTTATTTACATCTATTGTAGGTAACGTTTTTGGTTTCAAAGCTCTTCGTGCTTTACGTCTTGAAGATTTACGTATTTCTTGTGCATACGCTAAAACATTCCAAGGACCTCCTCACGGGATCCAAGTAGAACGTGACAAATTAAACAAATATGGTCGTGGTCTTTTAGGTTGTACAATTAAACCTAAATTAGGTTTATCAGCTAAAAACTATGGTCGTGCAGTTTACGAATGTTTACGTGGTGGATTAGATTTCACAAAAGATGATGAAAATGTTACAAGCCAAGCTTTCATGCGTTGGAGAGACCGTTTTATTTTTGTAGCAGAAGCTCTTTACAAAGCTCAAGCTGAAACAGGTGAAATTAAAGGACATTATTTAAACGTTACTGCTGGAACGTCTGAAGAAATGATGAAAAGAGCTGAAGTAGCTAAAGATTTAGGGGTACCTATTATTATGCATGACTATCTAACAGGTGGTCTTACTGCTAACACTTCATTAGCTCACTACTGTCGTGACAATGGTCTATTATTACACATTCACAGAGCAATGCACGCGGTTATTGACCGTCAAAGAAACCACGGGATTCACTTCCGTGTATTAGCAAAAGCTCTTCGTTTATCTGGTGGGGACCATCTTCACTCAGGAACTGTTGTAGGAAAACTAGAAGGTGAACGTGAAGTTACTTTAGGTTTCGTTGATTTAATGAGAGACGAATATATCGAAAAAGACCGTAGCCGTGGTATTTACTTCACTCN'
p96
sg7
S'frwdrev'
p97
sg9
I01
sg10
g5
sg11
I01
sg12
(lp98
(dp99
g4
g5
sg6
g5
sg7
S'file'
p100
sg9
I00
sg10
g5
sg11
I00
sg12
(lp101
sg17
I00
sg18
I19
sg19
S'petal_CAT20TR8_7-5L5-rbcL_remiasii_F.ab1'
p102
sa(dp103
g4
g5
sg6
g5
sg7
S'file'
p104
sg9
I00
sg10
g5
sg11
I00
sg12
(lp105
sg17
I01
sg18
I20
sg19
S'petal_CAT20TR8_7-5L5-rbcL_remiasii_R.ab1'
p106
sasg17
I00
sg18
I18
sg19
S'petal_CAT20TR8_7-5L5_rbcL'
p107
sa(dp108
g4
S'                                                                                                             ACTACTCGGATAACCGTAGTAATTCTAGAGCTAATACGTGCGTAAATCNNGACTTCTGGAAGGGACGTATTTATTAGATAAANGGCCAGCCGAGCTTGCTCGACTTTAGGTGAATCATGATAACTNCACGAATCGCATGGCCTTGCGCCGGCGATGTTTCATTCAAATTTCTGCCCTATCAACTTTCGATGGTAGGATAGAGGCCTACCATGGTGGTAACGGGTGNCGGAGGATTAGGGTTCGATTCCGGAGAGGGAGCCTGAGAAATGGCTACCACATCCAAGGAAGGCAGCAGGCGCGCAAATTACCCAATCCCGACACGGGGAGGTAGTGACAATAAATAACAATGCCGAGCATTTTATGTTTGGCAATTGGAATGAGCACAATCTAAACCCCTTAACGAGGATCCATTGGAGGGCAAGTCTGGTGCCAGCAGCCGCGGTAATTCCAGCTCCAATAGCGTATATTTAAGTTGTTGCAGTTAAAAAGCTCGTAGTTGGATTTCGGGTGGGTTGTAGTGGTCCGGTTCGCTGTGTACTGCTACGGCCTTCCTTTCTGCCGGAAACGGGCTCTTGGGCTTNANTGTCTGGGACTCGGAGTCGGCGAGGTTACTTTGAGTAAATTAGAGTGTTCAAAGCAAGCTTACGCTCTGAATACATTAGCATGGAATAACACGATAGGACTCTGGCCTATCTTGTTGGTCTGTAGGACTGGAGTAATGATTAAGAGGGACAGTCGGGGGCATTCGTATTTCATTGTCAGAGGTGAAATTCTTGGATTTATGAAAGACGAACTTCTGCGAAAGCATTN                                '
p109
sg6
S'ACTACTCGGATAACCGTAGTAATTCTAGAGCTAATACGTGCGTAAATCNNGACTTCTGGAAGGGACGTATTTATTAGATAAANGGCCAGCCGAGCTTGCTCGACTTTAGGTGAATCATGATAACTNCACGAATCGCATGGCCTTGCGCCGGCGATGTTTCATTCAAATTTCTGCCCTATCAACTTTCGATGGTAGGATAGAGGCCTACCATGGTGGTAACGGGTGNCGGAGGATTAGGGTTCGATTCCGGAGAGGGAGCCTGAGAAATGGCTACCACATCCAAGGAAGGCAGCAGGCGCGCAAATTACCCAATCCCGACACGGGGAGGTAGTGACAATAAATAACAATGCCGAGCATTTTATGTTTGGCAATTGGAATGAGCACAATCTAAACCCCTTAACGAGGATCCATTGGAGGGCAAGTCTGGTGCCAGCAGCCGCGGTAATTCCAGCTCCAATAGCGTATATTTAAGTTGTTGCAGTTAAAAAGCTCGTAGTTGGATTTCGGGTGGGTTGTAGTGGTCCGGTTCGCTGTGTACTGCTACGGCCTTCCTTTCTGCCGGAAACGGGCTCTTGGGCTTNANTGTCTGGGACTCGGAGTCGGCGAGGTTACTTTGAGTAAATTAGAGTGTTCAAAGCAAGCTTACGCTCTGAATACATTAGCATGGAATAACACGATAGGACTCTGGCCTATCTTGTTGGTCTGTAGGACTGGAGTAATGATTAAGAGGGACAGTCGGGGGCATTCGTATTTCATTGTCAGAGGTGAAATTCTTGGATTTATGAAAGACGAACTTCTGCGAAAGCATTN'
p110
sg7
S'file'
p111
sg9
I01
sg10
g5
sg11
I01
sg12
(lp112
sg17
I01
sg18
I21
sg19
S'poppy_BLU2204_6-8L1-chlor18SmidR.ab1'
p113
sa(dp114
g4
S'                                           CCGTTACAAAGGTCGTTG  TTA  TGATATCGAACCAGTTGCTGGTGAAGAAAACCAATACATCGCTTACGTTGCTTACCCTATTGACCTTTTTGAAGAAGGTTCTGTAACTAACTTATTTACATCTATTGTAGGTAACGTTTTTGGTTTCAAAGCTCTTCGTGCTTTACGTCTTGAAGATTTACGTATTTCTTGTGCATACGCTAAAACATTCCAAGGACCTCCTCACGGGATCCAAGTAGAACGTGACAAATTAAACAAATATGGTCGTGGTCTTTTAGGTTGTACAATTAAACCTAAATTAGGTTTATCTGCTAAAAACTATGGTCGTGCAGTTTACGAATGTTTACGTGGTGGGTTAGATTTCACAAAAGATGATGAAAATGTTACAAGCCAAGCATTCATGCGTTGGAGAGACCGTTTCATTTTTGTAGCAGAAGCTCTTTACAAATCGCAAGCTGAAACAGGTGAAATTAAAGGACATTATTTAAACGTTACTGCTGGAACGTCAGAAGAAATGCTAAAAAGAGCTGAAGTAGCTAAAGATTTAGGGGTACCTATTATTATGCATGACTATCTAACAGGTGGTCTTACTGCTAACACTTCATTAGCTCACTACTGTCGTGACAATGGTCTATTATTACACATTCACAGAGCAATGCACGCGGTTATTGACCGTCAAAGAAACCACGGGATTCACTTCCGTGTATTAGCAAAAGCTCTTCGTTTATCTGGTGGGGACCATCTTCACTCAGGAACTGTTGTAGGAAAACTAGAAGGTGAACGTGAAGTTACTTTAGGTTTCGTTGATTTAATGAGAGACGAATATATTGAAAAAGATCGTAGCCGTGGTA TTACTTCACTCN                                                '
p115
sg6
S'CCGTTACAAAGGTCGTTGTTATGATATCGAACCAGTTGCTGGTGAAGAAAACCAATACATCGCTTACGTTGCTTACCCTATTGACCTTTTTGAAGAAGGTTCTGTAACTAACTTATTTACATCTATTGTAGGTAACGTTTTTGGTTTCAAAGCTCTTCGTGCTTTACGTCTTGAAGATTTACGTATTTCTTGTGCATACGCTAAAACATTCCAAGGACCTCCTCACGGGATCCAAGTAGAACGTGACAAATTAAACAAATATGGTCGTGGTCTTTTAGGTTGTACAATTAAACCTAAATTAGGTTTATCTGCTAAAAACTATGGTCGTGCAGTTTACGAATGTTTACGTGGTGGGTTAGATTTCACAAAAGATGATGAAAATGTTACAAGCCAAGCATTCATGCGTTGGAGAGACCGTTTCATTTTTGTAGCAGAAGCTCTTTACAAATCGCAAGCTGAAACAGGTGAAATTAAAGGACATTATTTAAACGTTACTGCTGGAACGTCAGAAGAAATGCTAAAAAGAGCTGAAGTAGCTAAAGATTTAGGGGTACCTATTATTATGCATGACTATCTAACAGGTGGTCTTACTGCTAACACTTCATTAGCTCACTACTGTCGTGACAATGGTCTATTATTACACATTCACAGAGCAATGCACGCGGTTATTGACCGTCAAAGAAACCACGGGATTCACTTCCGTGTATTAGCAAAAGCTCTTCGTTTATCTGGTGGGGACCATCTTCACTCAGGAACTGTTGTAGGAAAACTAGAAGGTGAACGTGAAGTTACTTTAGGTTTCGTTGATTTAATGAGAGACGAATATATTGAAAAAGATCGTAGCCGTGGTATTACTTCACTCN'
p116
sg7
S'frwdrev'
p117
sg9
I01
sg10
g5
sg11
I01
sg12
(lp118
(dp119
g4
g5
sg6
g5
sg7
S'file'
p120
sg9
I00
sg10
g5
sg11
I00
sg12
(lp121
sg17
I00
sg18
I23
sg19
S'poppy_BLU2204_6-8L1-rbcL_remiasii_F.ab1'
p122
sa(dp123
g4
g5
sg6
g5
sg7
S'file'
p124
sg9
I00
sg10
g5
sg11
I00
sg12
(lp125
sg17
I01
sg18
I24
sg19
S'poppy_BLU2204_6-8L1-rbcL_remiasii_R.ab1'
p126
sasg17
I00
sg18
I22
sg19
S'poppy_BLU2204_6-8L1_rbcL'
p127
sa(dp128
g4
S'                                                                                                                                                                                                                                                  TGTCTGGGACTCGGAGTCGGCGAGGTTACTTTGAGTAAATTAGAGTGTTCAAAGCAAGCTTACGCTCTGAATACATTAGCATGGAATAACACGATAGGACTCTGGCCTATCTTGTTGGTCTGTAGGACTGGAGTAATGATTAAGAGGGACAGTCGGGGGCATTCGTATTTCATTGTCAGAGGTGAAATTCTTGGATTTATGAAAGACGAACTTCTGCGAAAGCATTTGCCAAGGATGTTTTCATTAATCAAGAACGAAAGTTGGGGGCTCGAAGACGATTAGATACCGTCGTAGTCTCAACCATAAACGATGCCGACTAGGGATTGGCAGGTGTTCTTTTGATGACCCTGCCAGCACCTTATGAGAAATCAAAGTTTTTGGGTTCCGGGGGGAGTATGGTCGCAAGGCTGAAACTTAAAGGAATTGACGGAAGGGCACCACCAGGCGTGGAGCCTGCGGCTTAATTTGACTCAACACGGGAAAACTTACCAGGTCCAGACACGGGGAGGATTGACAGATTGAGAGCTCTTTCTTGATTCTGTGGGTGGTGGTGCATGGCCGTTCTTAGTTGGTGGGTTGCCTTGTCAGGTTGATTCCGGTAACGAACGAGACCTCAGCCTGCTAAATAGTCACGTCTGCCTCTCGCAGACGGCCGACTTCTTAGAGGGACTATTGTCGTTTAGGCAATGGAAGTATGAGGCAATAACAGGTCTGTGATGCCCTTAGATGTTCTGGGCCGCACGCGCGCTACACTGATGCGTTCAACGAGCCTATCCTTGGCCGAGAGGCCCGGGTAAT                        '
p129
sg6
S'TGTCTGGGACTCGGAGTCGGCGAGGTTACTTTGAGTAAATTAGAGTGTTCAAAGCAAGCTTACGCTCTGAATACATTAGCATGGAATAACACGATAGGACTCTGGCCTATCTTGTTGGTCTGTAGGACTGGAGTAATGATTAAGAGGGACAGTCGGGGGCATTCGTATTTCATTGTCAGAGGTGAAATTCTTGGATTTATGAAAGACGAACTTCTGCGAAAGCATTTGCCAAGGATGTTTTCATTAATCAAGAACGAAAGTTGGGGGCTCGAAGACGATTAGATACCGTCGTAGTCTCAACCATAAACGATGCCGACTAGGGATTGGCAGGTGTTCTTTTGATGACCCTGCCAGCACCTTATGAGAAATCAAAGTTTTTGGGTTCCGGGGGGAGTATGGTCGCAAGGCTGAAACTTAAAGGAATTGACGGAAGGGCACCACCAGGCGTGGAGCCTGCGGCTTAATTTGACTCAACACGGGAAAACTTACCAGGTCCAGACACGGGGAGGATTGACAGATTGAGAGCTCTTTCTTGATTCTGTGGGTGGTGGTGCATGGCCGTTCTTAGTTGGTGGGTTGCCTTGTCAGGTTGATTCCGGTAACGAACGAGACCTCAGCCTGCTAAATAGTCACGTCTGCCTCTCGCAGACGGCCGACTTCTTAGAGGGACTATTGTCGTTTAGGCAATGGAAGTATGAGGCAATAACAGGTCTGTGATGCCCTTAGATGTTCTGGGCCGCACGCGCGCTACACTGATGCGTTCAACGAGCCTATCCTTGGCCGAGAGGCCCGGGTAAT'
p130
sg7
S'file'
p131
sg9
I01
sg10
g5
sg11
I01
sg12
(lp132
sg17
I01
sg18
I25
sg19
S'poppy_BLU2204_6-8L1-snow18Sseq_R.ab1'
p133
sa(dp134
g4
S'                                                                                                                                                                                                                  GAAACGGGCTCTTGGGCTTNANNGTCTGGGACTCGGAGTCGGCGAGGTTACTTTGAGTAAATTAGAGTGTTCAAAGCAAGCTTACGCTCTGAATACATTAGCATGGAATAACACGATAGGACTCTGGCCTATCTTGTTGGTCTGTAGGACTGGAGTAATGATTAAGAGGGACAGTCGGGGGCATTCGTATTTCATTGTCAGAGGTGAAATTCTTGGATTTATGAAAGACGAACTTCTGCGAAAGCATTTGCCAAGGATGTTTTCATTAATCAAGAACGAAAGTTGGGGGCTCGAAGACGATTAGATACCGTCGTAGTCTCAACCATAAACGATGCCGACTAGGGATTGGCAGGTGTTCTTTTGATGACCCTGCCAGCACCTTATGAGAAATCAAAGTTTTTGGGTTCCGGGGGGAGTATGGTCGCAAGGCTGAAACTTAAAGGAATTGACGGAAGGGCACCACCAGGCGTGGAGCCTGCGGCTTAATTTGACTCAACACGGGAAAACTTACCAGGTCCAGACACGGGGAGGATTGACAGATTGAGAGCTCTTTCTTGATTCTGTGGGTGGTGGTGCATGGCCGTTCTTAGTTGGTGGGTTGCCTTGTCAGGTTGATTCCGGTAACGAACGAGACCTCAGCCTGCTAAATAGTCACGTCTGCCTCTCGCAGACGGCCGACTTCTTAGAGGGACTATTGTCGTTTAGGCAATGGAAGTATGAGGCAATAACAGGTCTGTGATGCCCTTAGATGTTCTGGGCCGCACGCGCGCTACACTGATGCGTTCAACGAGCCTATCCTTGGCCGAGAGGCCCGGGTAATCTTCGAAACCGCATCGTGATGGGGATAGATTATTGCAATTATTAGTCTTCAACGAGGAATGCCTAGTAAGCGCGAGTCATCAGCTCGCN                    '
p135
sg6
S'GAAACGGGCTCTTGGGCTTNANNGTCTGGGACTCGGAGTCGGCGAGGTTACTTTGAGTAAATTAGAGTGTTCAAAGCAAGCTTACGCTCTGAATACATTAGCATGGAATAACACGATAGGACTCTGGCCTATCTTGTTGGTCTGTAGGACTGGAGTAATGATTAAGAGGGACAGTCGGGGGCATTCGTATTTCATTGTCAGAGGTGAAATTCTTGGATTTATGAAAGACGAACTTCTGCGAAAGCATTTGCCAAGGATGTTTTCATTAATCAAGAACGAAAGTTGGGGGCTCGAAGACGATTAGATACCGTCGTAGTCTCAACCATAAACGATGCCGACTAGGGATTGGCAGGTGTTCTTTTGATGACCCTGCCAGCACCTTATGAGAAATCAAAGTTTTTGGGTTCCGGGGGGAGTATGGTCGCAAGGCTGAAACTTAAAGGAATTGACGGAAGGGCACCACCAGGCGTGGAGCCTGCGGCTTAATTTGACTCAACACGGGAAAACTTACCAGGTCCAGACACGGGGAGGATTGACAGATTGAGAGCTCTTTCTTGATTCTGTGGGTGGTGGTGCATGGCCGTTCTTAGTTGGTGGGTTGCCTTGTCAGGTTGATTCCGGTAACGAACGAGACCTCAGCCTGCTAAATAGTCACGTCTGCCTCTCGCAGACGGCCGACTTCTTAGAGGGACTATTGTCGTTTAGGCAATGGAAGTATGAGGCAATAACAGGTCTGTGATGCCCTTAGATGTTCTGGGCCGCACGCGCGCTACACTGATGCGTTCAACGAGCCTATCCTTGGCCGAGAGGCCCGGGTAATCTTCGAAACCGCATCGTGATGGGGATAGATTATTGCAATTATTAGTCTTCAACGAGGAATGCCTAGTAAGCGCGAGTCATCAGCTCGCN'
p136
sg7
S'frwdrev'
p137
sg9
I01
sg10
g5
sg11
I01
sg12
(lp138
(dp139
g4
g5
sg6
g5
sg7
S'file'
p140
sg9
I00
sg10
g5
sg11
I00
sg12
(lp141
sg17
I00
sg18
I27
sg19
S'poppy_PAN1804_6-8L2-chlor18SmidF.ab1'
p142
sa(dp143
g4
g5
sg6
g5
sg7
S'file'
p144
sg9
I00
sg10
g5
sg11
I00
sg12
(lp145
sg17
I01
sg18
I28
sg19
S'poppy_PAN1804_6-8L2-snow18Sseq_R.ab1'
p146
sasg17
I00
sg18
I26
sg19
S'poppy_PAN1804_6-8L2_18SB'
p147
sa(dp148
g4
S'                                                                           AATCAGTTATAGTTTATTTGATGGTACTTACTACTCGGATAACCGTAGTAATTCTAGAGCTAATACGTGCGTAAATCCNGACTTCTGGAAGGGACGTATTTATTAGATAAAAGGCCAGCCGAGCTTGCTCGACTTTAGGTGAATCATGATAACTNCACGAATCGCATGGCCTTGCGCCGGCGATGTTTCATTCAAATTTCTGCCCTATCAACTTTCGATGGTAGGATAGAGGCCTACCATGGTGGTAACGGGTGACGGAGGATTAGGGTTCGATTCCGGAGAGGGAGCCTGAGAAATGGCTACCACATCCAAGGAAGGCAGCAGGCGCGCAAATTACCCAATCCCGACACGGGGAGGTAGTGACAATAAATAACAATGCCGAGCATTTTATGTTTGGCAATTGGAATGAGCACAATCTAAACCCCTTAACGAGGATCCATTGGAGGGCAAGTCTGGTGCCAGCAGCCGCGGTAATTCCAGCTCCAATAGCGTATATTTAAGTTGTTGCAGTTAAAAAGCTCGTAGTTGGATTTCGGGTGGGTTGTAGTGGTCCGGTTCGCTGTGTACTGCTACGGCCTTCCTTTCTGCCGGAAACGGGCTCTTGGGCTTNANTGTCTGGGACTCGGAGTCGGCGAGGTTACTTTGAGTAAATTAGAGTGTTCAAAGCAAGCTTACGCTCTGAATACATTAGCATGGAATAACACGATAGGACTCTGGCCTATCTTGTTGGTCTGTAGGACTGGAGTAATGATTAAGAGGGACAGTCGGGGGCATTCGTATTTCATTGTCAGAGGTGAAATTCTTGGATTTATGAAAGACGAACTTCTGCGAAAGCATNN                            '
p149
sg6
S'AATCAGTTATAGTTTATTTGATGGTACTTACTACTCGGATAACCGTAGTAATTCTAGAGCTAATACGTGCGTAAATCCNGACTTCTGGAAGGGACGTATTTATTAGATAAAAGGCCAGCCGAGCTTGCTCGACTTTAGGTGAATCATGATAACTNCACGAATCGCATGGCCTTGCGCCGGCGATGTTTCATTCAAATTTCTGCCCTATCAACTTTCGATGGTAGGATAGAGGCCTACCATGGTGGTAACGGGTGACGGAGGATTAGGGTTCGATTCCGGAGAGGGAGCCTGAGAAATGGCTACCACATCCAAGGAAGGCAGCAGGCGCGCAAATTACCCAATCCCGACACGGGGAGGTAGTGACAATAAATAACAATGCCGAGCATTTTATGTTTGGCAATTGGAATGAGCACAATCTAAACCCCTTAACGAGGATCCATTGGAGGGCAAGTCTGGTGCCAGCAGCCGCGGTAATTCCAGCTCCAATAGCGTATATTTAAGTTGTTGCAGTTAAAAAGCTCGTAGTTGGATTTCGGGTGGGTTGTAGTGGTCCGGTTCGCTGTGTACTGCTACGGCCTTCCTTTCTGCCGGAAACGGGCTCTTGGGCTTNANTGTCTGGGACTCGGAGTCGGCGAGGTTACTTTGAGTAAATTAGAGTGTTCAAAGCAAGCTTACGCTCTGAATACATTAGCATGGAATAACACGATAGGACTCTGGCCTATCTTGTTGGTCTGTAGGACTGGAGTAATGATTAAGAGGGACAGTCGGGGGCATTCGTATTTCATTGTCAGAGGTGAAATTCTTGGATTTATGAAAGACGAACTTCTGCGAAAGCATNN'
p150
sg7
S'file'
p151
sg9
I01
sg10
g5
sg11
I01
sg12
(lp152
sg17
I01
sg18
I29
sg19
S'poppy_PAN1804_6-8L2-chlor18SmidR.ab1'
p153
sasS'formatversion'
p154
S'0.9'
p155
sS'consseqsettings'
p156
(dp157
S'consensus_algorithm'
p158
S'Bayesian'
p159
sS'do_qualitytrim'
p160
I01
sS'qualitytrim_winsize'
p161
I10
sS'primermatch_threshold'
p162
F0.8
sS'trim_endgaps'
p163
I00
sS'min_confscore'
p164
I30
sS'forward_primer'
p165
g5
sS'reverse_primer'
p166
g5
sS'qualitytrim_basecnt'
p167
I8
sS'trim_consensus'
p168
I01
sS'trim_primers'
p169
I00
ssS'properties'
p170
(dp171
S'fwd_trace_searchstr'
p172
S'_F'
p173
sS'rev_trace_searchstr'
p174
S'_R'
p175
sS'trace_file_dir'
p176
S'.'
p177
ss.