(dp0
S'items'
p1
(lp2
(dp3
S'fullcons'
p4
S'                          CAGCGAAATGCGATACGTAGTGTGAATTGCAGAATTCCGTGAACCATCGAATTTTTGAACGCATATTGCGCTCAAGGCTTCGGCCAAGAGCATGTCTGCCTCAGCGTCGGGTTCTCCATCATTGACTCCTCCCTCCTCACAGAGAGAGCAGCCATGGAAACTCGCAGTCCGATCCTNTGTTCTTAACCGAACATTGGTGAGGTCTGCCAAAGTGAAAGTAGCGCTCCGAGCATCACCCNTTCGTCTGCCAGCAATGGCGGGCGAGTGGGTATGTAGCCGCACTCGAGTAGTTGCGAATTCGCATGTTCACATGTGTTTTTCCTACCCGACTATCCTACACTTGCCCGGCTTCTCACTGATCCTCATCGGTCTTCTTCACGGAACGCCTTTGATTTCAGCTAGGAAGAACCAGCCTATATACCTCCCAACATGGAACCCTTCACTTCTCGACCTGAGCTCAGGCAAGATTACCCGCTGAACTTAAGCATATCAATAAGCGGAGGAAAAGAAACCAACCAGGATTCCCCTAGTAACGGCGAGCGAACCGGGATCAGCCCAACTTGAAAATCTCCCTCTTGGAGAATTGTAGTCTACAGAAGTGCCCTCTGTGGTCATGCGAACTCAAGTCCGCTGGAAAGCGGCGTCAGAGAGGGTGAGAACCCCGTCGGTTCGCATTTGACTGCACCACGAGGTGCTTTCCACGAGTCGGGTTGTTTGGGAATGCAGCCCAAAATTGGAGGTAAATCCCTTCTAAGGCTAAATAACGGCGAGAGA                         '
p5
sS'compactcons'
p6
S'CAGCGAAATGCGATACGTAGTGTGAATTGCAGAATTCCGTGAACCATCGAATTTTTGAACGCATATTGCGCTCAAGGCTTCGGCCAAGAGCATGTCTGCCTCAGCGTCGGGTTCTCCATCATTGACTCCTCCCTCCTCACAGAGAGAGCAGCCATGGAAACTCGCAGTCCGATCCTNTGTTCTTAACCGAACATTGGTGAGGTCTGCCAAAGTGAAAGTAGCGCTCCGAGCATCACCCNTTCGTCTGCCAGCAATGGCGGGCGAGTGGGTATGTAGCCGCACTCGAGTAGTTGCGAATTCGCATGTTCACATGTGTTTTTCCTACCCGACTATCCTACACTTGCCCGGCTTCTCACTGATCCTCATCGGTCTTCTTCACGGAACGCCTTTGATTTCAGCTAGGAAGAACCAGCCTATATACCTCCCAACATGGAACCCTTCACTTCTCGACCTGAGCTCAGGCAAGATTACCCGCTGAACTTAAGCATATCAATAAGCGGAGGAAAAGAAACCAACCAGGATTCCCCTAGTAACGGCGAGCGAACCGGGATCAGCCCAACTTGAAAATCTCCCTCTTGGAGAATTGTAGTCTACAGAAGTGCCCTCTGTGGTCATGCGAACTCAAGTCCGCTGGAAAGCGGCGTCAGAGAGGGTGAGAACCCCGTCGGTTCGCATTTGACTGCACCACGAGGTGCTTTCCACGAGTCGGGTTGTTTGGGAATGCAGCCCAAAATTGGAGGTAAATCCCTTCTAAGGCTAAATAACGGCGAGAGA'
p7
sS'itemtype'
p8
S'frwdrev'
p9
sS'useseq'
p10
I01
sS'notes'
p11
S''
p12
sS'hasseq'
p13
I01
sS'children'
p14
(lp15
(dp16
g4
g12
sg6
g12
sg8
S'file'
p17
sg10
I00
sg11
g12
sg13
I00
sg14
(lp18
sS'isreverse'
p19
I00
sS'id'
p20
I1
sS'name'
p21
S'callous_BLU1901_8-19L2-chloroITS2_F.ab1'
p22
sa(dp23
g4
g12
sg6
g12
sg8
S'file'
p24
sg10
I00
sg11
g12
sg13
I00
sg14
(lp25
sg19
I01
sg20
I2
sg21
S'callous_BLU1901_8-19L2-chloroITS2_R.ab1'
p26
sasg19
I00
sg20
I0
sg21
S'callous_BLU1901_8-19L2_ITS2'
p27
sa(dp28
g4
g12
sg6
g12
sg8
S'frwdrev'
p29
sg10
I00
sg11
g12
sg13
I00
sg14
(lp30
(dp31
g4
g12
sg6
g12
sg8
S'file'
p32
sg10
I00
sg11
g12
sg13
I00
sg14
(lp33
sg19
I00
sg20
I4
sg21
S'callous_BUG1903_7-13L1-chloroITS2_F.ab1'
p34
sa(dp35
g4
g12
sg6
g12
sg8
S'file'
p36
sg10
I00
sg11
g12
sg13
I00
sg14
(lp37
sg19
I01
sg20
I5
sg21
S'callous_BUG1903_7-13L1-chloroITS2_R.ab1'
p38
sasg19
I00
sg20
I3
sg21
S'callous_BUG1903_7-13L1_ITS2'
p39
sa(dp40
g4
S'                      ATCGAACCAGTTGCTGGTGAAGAAAACCAATACATCGCTTACGTTGCTTATCCTATTGACCTTTTTGAAGAAGGTTCTGTAACTAACTTATTTACATCTATTGTAGGTAACGTTTTTGGTTTCAAAGCTCTTCGTGCTTTACGTCTTGAAGATTTACGTATTTCTTGTGCATACGCTAAAACATTCCAAGGACCTCCTCACGGGATCCAAGTAGAACGTGACAAATTAAACAAATATGGTCGTGGTCTTTTAGGTTGTACAATTAAACCTAAATTAGGTTTATCAGCTAAAAACTATGGTCGTGCAGTTTACGAATGTTTACGTGGTGGATTAGATTTCACAAAAGATGATGAAAATGTTACAAGCCAAGCTTTCATGCGTTGGAGAGACCGTTTTATTTTTGTAGCAGAAGCTCTTTACAAAGCTCAAGCTGAAACAGGTGAAATTAAAGGACATTATTTAAACGTTACTGCTGGAACGTCTGAAGAAATGATGAAAAGAGCTGAAGTAGCTAAAGATTTAGGGGTACCTATTATTATGCATGACTATCTAACAGGTGGTCTTACTGCTAACACTTCATTAGCTCACTACTGTCGTGACAATGGTCTATTATTACACATTCACAGAGCAATGCACGCGGTTATTGACCGTCAAAGAAACCACGGGATTCACTTCCGTGTATTAGCAAAAGCTCTTCGTTTATCTGGTGGGGACCATCTTCACTCAGGAACTGTTGTAGGAAAACTAGAAGGTGAACGTGAAAGTTACTTTAGGTTTCGTTGATTTAATGAGAGACGAATATATCGAAAAAGACCGTAGCCGTGGT                         '
p41
sg6
S'ATCGAACCAGTTGCTGGTGAAGAAAACCAATACATCGCTTACGTTGCTTATCCTATTGACCTTTTTGAAGAAGGTTCTGTAACTAACTTATTTACATCTATTGTAGGTAACGTTTTTGGTTTCAAAGCTCTTCGTGCTTTACGTCTTGAAGATTTACGTATTTCTTGTGCATACGCTAAAACATTCCAAGGACCTCCTCACGGGATCCAAGTAGAACGTGACAAATTAAACAAATATGGTCGTGGTCTTTTAGGTTGTACAATTAAACCTAAATTAGGTTTATCAGCTAAAAACTATGGTCGTGCAGTTTACGAATGTTTACGTGGTGGATTAGATTTCACAAAAGATGATGAAAATGTTACAAGCCAAGCTTTCATGCGTTGGAGAGACCGTTTTATTTTTGTAGCAGAAGCTCTTTACAAAGCTCAAGCTGAAACAGGTGAAATTAAAGGACATTATTTAAACGTTACTGCTGGAACGTCTGAAGAAATGATGAAAAGAGCTGAAGTAGCTAAAGATTTAGGGGTACCTATTATTATGCATGACTATCTAACAGGTGGTCTTACTGCTAACACTTCATTAGCTCACTACTGTCGTGACAATGGTCTATTATTACACATTCACAGAGCAATGCACGCGGTTATTGACCGTCAAAGAAACCACGGGATTCACTTCCGTGTATTAGCAAAAGCTCTTCGTTTATCTGGTGGGGACCATCTTCACTCAGGAACTGTTGTAGGAAAACTAGAAGGTGAACGTGAAAGTTACTTTAGGTTTCGTTGATTTAATGAGAGACGAATATATCGAAAAAGACCGTAGCCGTGGT'
p42
sg8
S'frwdrev'
p43
sg10
I01
sg11
g12
sg13
I01
sg14
(lp44
(dp45
g4
g12
sg6
g12
sg8
S'file'
p46
sg10
I00
sg11
g12
sg13
I00
sg14
(lp47
sg19
I00
sg20
I7
sg21
S'cog_BAK1912_8-26L1-rbcL_remiasii_F.ab1'
p48
sa(dp49
g4
g12
sg6
g12
sg8
S'file'
p50
sg10
I00
sg11
g12
sg13
I00
sg14
(lp51
sg19
I01
sg20
I8
sg21
S'cog_BAK1912_8-26L1-rbcL_remiasii_R.ab1'
p52
sasg19
I00
sg20
I6
sg21
S'cog_BAK1912_8-26L1_rbcL'
p53
sa(dp54
g4
S'                            CCAGTTGCTGGTGAAGAAAACCAATACATCGCTTACGTTGCTTATCCTATTGACCTTTTTGAAGAAGGTTCTGTAACTAACTTATTTACATCTATTGTAGGTAACGTTTTTGGTTTCAAAGCTCTTCGTGCTTTACGTCTTGAAGATTTACGTATTTCTTGTGCATACGCTAAAACATTCCAAGGACCTCCTCACGGGATCCAAGTAGAACGTGACAAATTAAACAAATATGGTCGTGGTCTTTTAGGTTGTACAATTAAACCTAAATTAGGTTTATCAGCTAAAAACTATGGTCGTGCAGTTTACGAATGTTTACGTGGTGGATTAGATTTCACAAAAGATGATGAAAATGTTACAAGCCAAGCTTTCATGCGTTGGAGAGACCGTTTTATTTTTGTAGCAGAAGCTCTTTACAAAGCTCAAGCTGAAACAGGTGAAATTAAAGGACATTATTTAAACGTTACTGCTGGAACGTCTGAAGAAATGATGAAAAGAGCTGAAGTAGCTAAAGATTTAGGGGTACCTATTATTATGCATGACTATCTAACAGGTGGTCTTACTGCTAACACTTCATTAGCTCACTACTGTCGTGACAATGGTCTATTATTACACATTCACAGAGCAATGCACGCGGTTATTGACCGTCAAAGAAACCACGGGATTCACTTCCGTGTATTAGCAAAAGCTCTTCGTTTATCTGGTGGGGACCATCTTCACTCAGGAACTGTTGTAGGAAAACTAGAAGGTGAACGTGAAGTTACTTTAGGTTTCGTTGATTTAATGAGAGACGAATATATNGAAAAAGACCGTAGCCGTGGTANTTACTTCACTCAAGANTGG                                 '
p55
sg6
S'CCAGTTGCTGGTGAAGAAAACCAATACATCGCTTACGTTGCTTATCCTATTGACCTTTTTGAAGAAGGTTCTGTAACTAACTTATTTACATCTATTGTAGGTAACGTTTTTGGTTTCAAAGCTCTTCGTGCTTTACGTCTTGAAGATTTACGTATTTCTTGTGCATACGCTAAAACATTCCAAGGACCTCCTCACGGGATCCAAGTAGAACGTGACAAATTAAACAAATATGGTCGTGGTCTTTTAGGTTGTACAATTAAACCTAAATTAGGTTTATCAGCTAAAAACTATGGTCGTGCAGTTTACGAATGTTTACGTGGTGGATTAGATTTCACAAAAGATGATGAAAATGTTACAAGCCAAGCTTTCATGCGTTGGAGAGACCGTTTTATTTTTGTAGCAGAAGCTCTTTACAAAGCTCAAGCTGAAACAGGTGAAATTAAAGGACATTATTTAAACGTTACTGCTGGAACGTCTGAAGAAATGATGAAAAGAGCTGAAGTAGCTAAAGATTTAGGGGTACCTATTATTATGCATGACTATCTAACAGGTGGTCTTACTGCTAACACTTCATTAGCTCACTACTGTCGTGACAATGGTCTATTATTACACATTCACAGAGCAATGCACGCGGTTATTGACCGTCAAAGAAACCACGGGATTCACTTCCGTGTATTAGCAAAAGCTCTTCGTTTATCTGGTGGGGACCATCTTCACTCAGGAACTGTTGTAGGAAAACTAGAAGGTGAACGTGAAGTTACTTTAGGTTTCGTTGATTTAATGAGAGACGAATATATNGAAAAAGACCGTAGCCGTGGTANTTACTTCACTCAAGANTGG'
p56
sg8
S'frwdrev'
p57
sg10
I01
sg11
g12
sg13
I01
sg14
(lp58
(dp59
g4
g12
sg6
g12
sg8
S'file'
p60
sg10
I00
sg11
g12
sg13
I00
sg14
(lp61
sg19
I00
sg20
I10
sg21
S'cog_GAR1912_8-31L1-rbcL_remiasii_F.ab1'
p62
sa(dp63
g4
g12
sg6
g12
sg8
S'file'
p64
sg10
I00
sg11
g12
sg13
I00
sg14
(lp65
sg19
I01
sg20
I11
sg21
S'cog_GAR1912_8-31L1-rbcL_remiasii_R.ab1'
p66
sasg19
I00
sg20
I9
sg21
S'cog_GAR1912_8-31L1_rbcL'
p67
sa(dp68
g4
S'                               GAACCATCGAATTTTTGAACGCATATTGCGCTCAAGGCTTCGGCCAAGAGCATGTCTGCCTCAGCGTCGGGTTCTCCATCATCGACTCTCTCCTTCNNTCGAAGAGGAGAGTCGTGGAAACTCGCAGTCCGATCCTCCGTTCTTCATTGAGCGTTGGTGAGGTCTGCCAAAGTGAAAGTAGCGCTCCGAGCATTGCCCATCTACACGTCAGCAATGGCGTGTGGTTGGGTATGTAGCCGCACTCGAGTAGTTGTGATCTCACATGTGTTAACTCACGTGTGTTTTTCCCTTACCCGACTATCCTACGCCTTGCTCGTCATCTCTTTGACGTCTTCATGACNACATNNGANACGAAACCAGCCTATACAAGTATACCTCCCAACATGGAACCCTTCACTTCTCGACCTGAGCTCAGGCAANATTACCCGCTGAACTTAAGCATATCAATAAGCGGAGGAAAAGAAACCAACCAGGATTCCCCTAGTAACGGCNAGCGAACCGGGATCAGCCCAACTTGAAAATCTCCCTCTTGGAGAATTGTAGTCTACANAAGTGCCCTCTGTGGCCGTGGGANCTCAAGTTCGCTGGAAGGCGACGTCAAAGAGGGTGAGAACCCCGTCGGCTCCCATCTGGCCGCACCACGAGGTGCTTTCCACGAGTCGGGTTGTTTGGTATGGCAGCCCAAACAACCCGACTCGTGGAAAGCACCTCGTGGTGCGGCCAGA T   G GGAGCCGACGGGGTTCTCACCCTCTTTGACGTCGCCTTCCAGCGAACTTGAGCTCCCACGGCCACAGAGGGCACTTCTGTAGACTACAATTCTCCAAGAGGGAGATTTTCAAGTTGGGCTGATCCCGGTTNCGCTCGCCGTTACTAGGGGAATCCTGGTTGGTTTCTTTTCCTCCGCTTATTGATATGCTTAAGTTCAGCGGGTAATCTTGCCTGAGCTCAGGTCGAGAAGTGAAGGGTTCCATGTTGGGAGGTATACTTGNATAGGCTGGTTTCGTCTCNGATGTNGTCATGAAGACGTCAAAGAGATGACGAGCAAGGCGTAGGATAGTCGGGTAAGGGAAAAACACACGTGAGTTAACACATGTGAGATCACAACTACTCGAGTGCGGCTACATACCCAACCACACGCCATTGCTGACGTGTANATGGGCAATGCTCGGAGCGCTACTTTCACTTTGGCAGACCTCACCAACGCTCAATGAAGAACGGAGGATCGGACTGCGAGTTTCCACGACTCTCCTCTTCNANAGAAGGAGAGAGTCGATGATGGAGAACCCGACGCTGAGGCAGACATGCTCTTGGCCGAAGCCTTGAGCGCAATATGCGTTCAAAAATTCGATGGTTCACGGAATTCTGCAATTCACACTACGTATCGCATTTCGCTGCGTTCTTCATCGTTGCGAGAGCCTAGATATCCGTCGTTGAGAGTTGTCTAGTTGACAATGTCATGGCGTGTTGCACGACCACGAC                                                                                                                                                                                                                                                                        '
p69
sg6
S'GAACCATCGAATTTTTGAACGCATATTGCGCTCAAGGCTTCGGCCAAGAGCATGTCTGCCTCAGCGTCGGGTTCTCCATCATCGACTCTCTCCTTCNNTCGAAGAGGAGAGTCGTGGAAACTCGCAGTCCGATCCTCCGTTCTTCATTGAGCGTTGGTGAGGTCTGCCAAAGTGAAAGTAGCGCTCCGAGCATTGCCCATCTACACGTCAGCAATGGCGTGTGGTTGGGTATGTAGCCGCACTCGAGTAGTTGTGATCTCACATGTGTTAACTCACGTGTGTTTTTCCCTTACCCGACTATCCTACGCCTTGCTCGTCATCTCTTTGACGTCTTCATGACNACATNNGANACGAAACCAGCCTATACAAGTATACCTCCCAACATGGAACCCTTCACTTCTCGACCTGAGCTCAGGCAANATTACCCGCTGAACTTAAGCATATCAATAAGCGGAGGAAAAGAAACCAACCAGGATTCCCCTAGTAACGGCNAGCGAACCGGGATCAGCCCAACTTGAAAATCTCCCTCTTGGAGAATTGTAGTCTACANAAGTGCCCTCTGTGGCCGTGGGANCTCAAGTTCGCTGGAAGGCGACGTCAAAGAGGGTGAGAACCCCGTCGGCTCCCATCTGGCCGCACCACGAGGTGCTTTCCACGAGTCGGGTTGTTTGGTATGGCAGCCCAAACAACCCGACTCGTGGAAAGCACCTCGTGGTGCGGCCAGATGGGAGCCGACGGGGTTCTCACCCTCTTTGACGTCGCCTTCCAGCGAACTTGAGCTCCCACGGCCACAGAGGGCACTTCTGTAGACTACAATTCTCCAAGAGGGAGATTTTCAAGTTGGGCTGATCCCGGTTNCGCTCGCCGTTACTAGGGGAATCCTGGTTGGTTTCTTTTCCTCCGCTTATTGATATGCTTAAGTTCAGCGGGTAATCTTGCCTGAGCTCAGGTCGAGAAGTGAAGGGTTCCATGTTGGGAGGTATACTTGNATAGGCTGGTTTCGTCTCNGATGTNGTCATGAAGACGTCAAAGAGATGACGAGCAAGGCGTAGGATAGTCGGGTAAGGGAAAAACACACGTGAGTTAACACATGTGAGATCACAACTACTCGAGTGCGGCTACATACCCAACCACACGCCATTGCTGACGTGTANATGGGCAATGCTCGGAGCGCTACTTTCACTTTGGCAGACCTCACCAACGCTCAATGAAGAACGGAGGATCGGACTGCGAGTTTCCACGACTCTCCTCTTCNANAGAAGGAGAGAGTCGATGATGGAGAACCCGACGCTGAGGCAGACATGCTCTTGGCCGAAGCCTTGAGCGCAATATGCGTTCAAAAATTCGATGGTTCACGGAATTCTGCAATTCACACTACGTATCGCATTTCGCTGCGTTCTTCATCGTTGCGAGAGCCTAGATATCCGTCGTTGAGAGTTGTCTAGTTGACAATGTCATGGCGTGTTGCACGACCACGAC'
p70
sg8
S'frwdrev'
p71
sg10
I01
sg11
g12
sg13
I01
sg14
(lp72
(dp73
g4
g12
sg6
g12
sg8
S'file'
p74
sg10
I00
sg11
g12
sg13
I00
sg14
(lp75
sg19
I00
sg20
I13
sg21
S'cog_GAR1912_JA3-5C1-chloroITS2_F.ab1'
p76
sa(dp77
g4
g12
sg6
g12
sg8
S'file'
p78
sg10
I00
sg11
g12
sg13
I00
sg14
(lp79
sg19
I00
sg20
I14
sg21
S'../JA/cog_GAR1912_20210305C1_26sR_chloro.ab1'
p80
sasg19
I00
sg20
I12
sg21
S'cog_GAR1912_JA3-5C1_ITS2'
p81
sa(dp82
g4
S'                                                                                 CAAGAGCATGTCTGCCTCAGCGTCGGGTTCTCCATCATCGACTCTCTCCTTCTNTCGAAGAGGAGAGTCGTGGAAACTCGCAGTCCGATCCTCCGTTCTTCATTGAGCGTTGGTGAGGTCTGCCAAAGTGAAAGTAGCGCTCCGAGCATTGCCCNNCTACACNNCANCAATGGCGTGTGGTTGGGTATGTAGCCGCACTCGAGTAGTTGTGATCTCACATGTGTTAACTCACGTGTGTTTTTCCCTTACCCGACTATCCTACGCCTTGCTCGTCATCTCTTTGACGTCTTCATGACGACATCCGAGACGAAACCAGCCTATANAAGTATACCTCCCAACATGGAACCCTTCACTTCTCGACCTGAGCTCAGGCAAGATTACCCGCTGAACTTAAGCATATCAATAAGCGGAGGAAAAGAAACCAACCAGGATTCCCCTAGTAACGGCGAGCGAACCGGGATCAGCCCAACTTGAAAATCTCCCTCTTGGAGAATTGTAGTCTACAGAAGTGCCCTCTGTGGCCGTGGGAGCTCAAGTTCGCTGGAAGGCGACGTCAAAGAGGGTGAGAACCCCGTCGGCTCCCNTCTGGCCGCACCACGANGTGCTTTCCACGAGTCGGGTTGTTGGGANNN NNGCCCAAACAACCCGACTCGTGGAAAGCACCTCG  T GGTGCGGCCAGATGG GAGCCGACGGGGTTCTCACCCTCTTTGACGTCGCCTTCCAGCGAACTTGAGCTCCCACGGCCACAGAGGGCACTTCTGTAGACTACAATTCTCCAAGAGGGAGATTTTCAAGTTGGGCTGATCCCGGTTCGCTCGCCGTTACTAGGGGAATCCTGGTTGGTTTCTTTTCCTCCGCTTATTGATATGCTTAAGTTCAGCGGGTAATCTTGCCTGAGCTCAGGTCGAGAAGTGAAGGGTTCCATGTTGGGAGGTATACTTNTATAGGCTGGTTTCGTCTCGGATGTCGTCATGAAGACGTCAAAGAGATGACGAGCAAGGCGTAGGATAGTCGGGTAAGGGAAAAACACACGTGAGTTAACACATGTGAGATCACAACTACTCGAGTGCGGCTACATACCCAACCACACGCCATTGCTGNCGTGTAGNTGGGCAATGCTCGGAGCGCTACTTTCACTTTGGCAGACCTCACCAACGCTCAATGAAGAACGGAGGATCGGACTGCGAGTTTCCACGANTCTCCTCTTCGANAGAAGGAGAGAGTCGATGATGGAGAACCCGACGCTGAGGCAGACATGCTCTTGGCCGAAGCCTTGAGCGCAATATGCGTTCAAAAATTCGATGGTTCACGGAATTCTGCAATTCACACTACGTATCGCATTTCGCTGCGTTCTTCATCGTTGCGAGAGCCTAGATATCCGTCGTTGAGAGTTGTCTAGTTGACAATGTCATGGCGTGTTGCACGACCACGACTGTTTGGATGNNNTTGTATATGTGGGTTAA                                                                                                                                                                                                                                                                        '
p83
sg6
S'CAAGAGCATGTCTGCCTCAGCGTCGGGTTCTCCATCATCGACTCTCTCCTTCTNTCGAAGAGGAGAGTCGTGGAAACTCGCAGTCCGATCCTCCGTTCTTCATTGAGCGTTGGTGAGGTCTGCCAAAGTGAAAGTAGCGCTCCGAGCATTGCCCNNCTACACNNCANCAATGGCGTGTGGTTGGGTATGTAGCCGCACTCGAGTAGTTGTGATCTCACATGTGTTAACTCACGTGTGTTTTTCCCTTACCCGACTATCCTACGCCTTGCTCGTCATCTCTTTGACGTCTTCATGACGACATCCGAGACGAAACCAGCCTATANAAGTATACCTCCCAACATGGAACCCTTCACTTCTCGACCTGAGCTCAGGCAAGATTACCCGCTGAACTTAAGCATATCAATAAGCGGAGGAAAAGAAACCAACCAGGATTCCCCTAGTAACGGCGAGCGAACCGGGATCAGCCCAACTTGAAAATCTCCCTCTTGGAGAATTGTAGTCTACAGAAGTGCCCTCTGTGGCCGTGGGAGCTCAAGTTCGCTGGAAGGCGACGTCAAAGAGGGTGAGAACCCCGTCGGCTCCCNTCTGGCCGCACCACGANGTGCTTTCCACGAGTCGGGTTGTTGGGANNNNNGCCCAAACAACCCGACTCGTGGAAAGCACCTCGTGGTGCGGCCAGATGGGAGCCGACGGGGTTCTCACCCTCTTTGACGTCGCCTTCCAGCGAACTTGAGCTCCCACGGCCACAGAGGGCACTTCTGTAGACTACAATTCTCCAAGAGGGAGATTTTCAAGTTGGGCTGATCCCGGTTCGCTCGCCGTTACTAGGGGAATCCTGGTTGGTTTCTTTTCCTCCGCTTATTGATATGCTTAAGTTCAGCGGGTAATCTTGCCTGAGCTCAGGTCGAGAAGTGAAGGGTTCCATGTTGGGAGGTATACTTNTATAGGCTGGTTTCGTCTCGGATGTCGTCATGAAGACGTCAAAGAGATGACGAGCAAGGCGTAGGATAGTCGGGTAAGGGAAAAACACACGTGAGTTAACACATGTGAGATCACAACTACTCGAGTGCGGCTACATACCCAACCACACGCCATTGCTGNCGTGTAGNTGGGCAATGCTCGGAGCGCTACTTTCACTTTGGCAGACCTCACCAACGCTCAATGAAGAACGGAGGATCGGACTGCGAGTTTCCACGANTCTCCTCTTCGANAGAAGGAGAGAGTCGATGATGGAGAACCCGACGCTGAGGCAGACATGCTCTTGGCCGAAGCCTTGAGCGCAATATGCGTTCAAAAATTCGATGGTTCACGGAATTCTGCAATTCACACTACGTATCGCATTTCGCTGCGTTCTTCATCGTTGCGAGAGCCTAGATATCCGTCGTTGAGAGTTGTCTAGTTGACAATGTCATGGCGTGTTGCACGACCACGACTGTTTGGATGNNNTTGTATATGTGGGTTAA'
p84
sg8
S'frwdrev'
p85
sg10
I01
sg11
g12
sg13
I01
sg14
(lp86
(dp87
g4
g12
sg6
g12
sg8
S'file'
p88
sg10
I00
sg11
g12
sg13
I00
sg14
(lp89
sg19
I00
sg20
I16
sg21
S'cog_GAR1912_JA3-5C3-chloroITS2_F.ab1'
p90
sa(dp91
g4
g12
sg6
g12
sg8
S'file'
p92
sg10
I00
sg11
g12
sg13
I00
sg14
(lp93
sg19
I00
sg20
I17
sg21
S'../JA/cog_GAR1912_20210305C3_26sR_chloro.ab1'
p94
sasg19
I00
sg20
I15
sg21
S'cog_GAR1912_JA3-5C3_ITS2'
p95
sa(dp96
g4
S'                                      ATAAAGGTCGTTGTTATGATATCGAACCAGTTGCAGGTGAAGAAAACCAGTACATTGCTTATGTTGCTTACCCAATCGACTTATTTGAAGAAGGTTCTGTAACTAACTTATTCACGTCAATTGTTGGTAACGTTTTTGGTTTCAAAGCTCTTCGTGCTCTACGTCTTGAAGATTTACGTATTTCTTGTGCGTATGCTAAAACATTCCAAGGACCTCCTCATGGTATCCAAGTAGAACGTGACAAATTAAACAAATACGGACGTGGTCTTTTAGGCTGTACAATCAAACCTAAATTAGGTCTTTCAGCTAAAAACTATGGTCGTGCTGTTTACGAATGTTTACGTGGTGGTTTAGACTTTACAAAAGATGATGAAAACGTAACATCTCAAGCTTTCATGCGTTGGAGAGACCGTTTTATCTTCGTTGCTGAAGCGATTTACAAATCTCAAGCTGAAACTGGTGAAATTAAAGGTCACTATTTAAACGTAACTGCGGGTACGAGCGAAGAAATGCTAAAACGTGCAGAAGTAGCTAAAGATTTAGGGGTACCAATCATCATGCATGACTACTTAACTGGTGGTTTAACTGCAAACACTTCATTAGCACACTACTGTCGTGACAACGGTCTATTACTACACATTCACAGAGCTATGCACGCGGTTATTGACCGTCAAAGAAACCACGGTATCCATTTCCGTGTTTTAGCTAAAGCTCTTCGTCTGTCAGGTGGTGACCACCTTCACTCAGGAACAGTTGTAGGTAAACTAGAAGGAGAACGTGAAGTTACTCTTGGTTTCGTTGATTTAATGCGCGACGAATATATCGAAAAAGACCGTAGCCGTGGTATTTATTTCACACAAGAC                             '
p97
sg6
S'ATAAAGGTCGTTGTTATGATATCGAACCAGTTGCAGGTGAAGAAAACCAGTACATTGCTTATGTTGCTTACCCAATCGACTTATTTGAAGAAGGTTCTGTAACTAACTTATTCACGTCAATTGTTGGTAACGTTTTTGGTTTCAAAGCTCTTCGTGCTCTACGTCTTGAAGATTTACGTATTTCTTGTGCGTATGCTAAAACATTCCAAGGACCTCCTCATGGTATCCAAGTAGAACGTGACAAATTAAACAAATACGGACGTGGTCTTTTAGGCTGTACAATCAAACCTAAATTAGGTCTTTCAGCTAAAAACTATGGTCGTGCTGTTTACGAATGTTTACGTGGTGGTTTAGACTTTACAAAAGATGATGAAAACGTAACATCTCAAGCTTTCATGCGTTGGAGAGACCGTTTTATCTTCGTTGCTGAAGCGATTTACAAATCTCAAGCTGAAACTGGTGAAATTAAAGGTCACTATTTAAACGTAACTGCGGGTACGAGCGAAGAAATGCTAAAACGTGCAGAAGTAGCTAAAGATTTAGGGGTACCAATCATCATGCATGACTACTTAACTGGTGGTTTAACTGCAAACACTTCATTAGCACACTACTGTCGTGACAACGGTCTATTACTACACATTCACAGAGCTATGCACGCGGTTATTGACCGTCAAAGAAACCACGGTATCCATTTCCGTGTTTTAGCTAAAGCTCTTCGTCTGTCAGGTGGTGACCACCTTCACTCAGGAACAGTTGTAGGTAAACTAGAAGGAGAACGTGAAGTTACTCTTGGTTTCGTTGATTTAATGCGCGACGAATATATCGAAAAAGACCGTAGCCGTGGTATTTATTTCACACAAGAC'
p98
sg8
S'frwdrev'
p99
sg10
I01
sg11
g12
sg13
I01
sg14
(lp100
(dp101
g4
g12
sg6
g12
sg8
S'file'
p102
sg10
I00
sg11
g12
sg13
I00
sg14
(lp103
sg19
I00
sg20
I19
sg21
S'cog_TEM2003_7-27L8-rbcL_remiasii_F.ab1'
p104
sa(dp105
g4
g12
sg6
g12
sg8
S'file'
p106
sg10
I00
sg11
g12
sg13
I00
sg14
(lp107
sg19
I01
sg20
I20
sg21
S'cog_TEM2003_7-27L8-rbcL_remiasii_R.ab1'
p108
sasg19
I00
sg20
I18
sg21
S'cog_TEM2003_7-27L8_rbcL'
p109
sa(dp110
g4
g12
sg6
g12
sg8
S'file'
p111
sg10
I00
sg11
g12
sg13
I00
sg14
(lp112
sg19
I00
sg20
I21
sg21
S'envelope_WED2206_7-26L1-rbcL_remiasii_F.ab1'
p113
sa(dp114
g4
S'                                   TGCTGGTGAAGAAAACCAATACATCGCTTACGTTGCTTATCCTATTGACCTTTTTGAAGAAGGTTCTGTAACTAACTTATTTACATCTATTGTAGGTAACGTTTTTGGTTTCAAAGCTCTTCGTGCTTTACGTCTTGAAGATTTACGTATTTCTTGTGCATACGCTAAAACATTCCAAGGACCTCCTCACGGGATCCAAGTAGAACGTGACAAATTAAACAAATATGGTCGTGGTCTTTTAGGTTGTACAATTAAACCTAAATTAGGTTTATCAGCTAAAAACTATGGTCGTGCAGTTTACGAATGTTTACGTGGTGGGTTAGATTTCACAAAAGATGATGAAAATGTTACAAGCCAAGCTTTCATGCGTTGGAGAGACCGTTTTATTTTTGTAGCAGAAGCTCTTTACAAATCTCAAGCTGAAACAGGTAAATTTTGCCTAGCTAGTCTGTAAAGACTAGTAAAAAACATTGGATGAATTGCAAGGACGCTAAAGCTTTTTTTAAATCATTTTATAAATCATTTTATAAATCATTTTATAAATCATAGCTATGCCAACTTGCAGCGAAGCTTGCTGAAAGATTTTTTGTAGGCAAGAACGTTCAACGACTAGAGAGTGAGCTGATCTGGGCAATAATCTCTCCACGAGCCTCCAACTACCCTTTTTTTTATCAAAACAGCTGTGCTGAAAAGAAATAGGTAGAAGACATAGTCTGAGCTTTAAGGAAACTTAAAGAAATCTAGGATAAAGAACCTAGATGATAACATAATGGAAATTAAAGGACATT ATTTAAACGTTACTGCTGGAACGTCTGAAGAAATGCTAAAAAGAGCTGAAGTAGCTAAAGATTTAGGGGTACCTATTATTATGCATGACTATCTAACAGGTGGTCTTACTGCTAACACTTCATTAGCTCACTACTGTCGTGACAATGGTCTATTATTACACATTCACAGAGCAATGCACGCGGTTATTGACCGTCAAAGAAACCACGGGATTCACTTCCGTGTATTAGCAAAAGCTCTTCGTTTATCTGGTGGGGACCATCTTCACTCAGGAACTGTTGTAGGAAAACTAGAAGGTGAACGTGAAGTTACTTTAGGTTTCGTTGATTTAATGAGAGACGAATATATTGAAAAAGACCGTAGCCGTGG                          '
p115
sg6
S'TGCTGGTGAAGAAAACCAATACATCGCTTACGTTGCTTATCCTATTGACCTTTTTGAAGAAGGTTCTGTAACTAACTTATTTACATCTATTGTAGGTAACGTTTTTGGTTTCAAAGCTCTTCGTGCTTTACGTCTTGAAGATTTACGTATTTCTTGTGCATACGCTAAAACATTCCAAGGACCTCCTCACGGGATCCAAGTAGAACGTGACAAATTAAACAAATATGGTCGTGGTCTTTTAGGTTGTACAATTAAACCTAAATTAGGTTTATCAGCTAAAAACTATGGTCGTGCAGTTTACGAATGTTTACGTGGTGGGTTAGATTTCACAAAAGATGATGAAAATGTTACAAGCCAAGCTTTCATGCGTTGGAGAGACCGTTTTATTTTTGTAGCAGAAGCTCTTTACAAATCTCAAGCTGAAACAGGTAAATTTTGCCTAGCTAGTCTGTAAAGACTAGTAAAAAACATTGGATGAATTGCAAGGACGCTAAAGCTTTTTTTAAATCATTTTATAAATCATTTTATAAATCATTTTATAAATCATAGCTATGCCAACTTGCAGCGAAGCTTGCTGAAAGATTTTTTGTAGGCAAGAACGTTCAACGACTAGAGAGTGAGCTGATCTGGGCAATAATCTCTCCACGAGCCTCCAACTACCCTTTTTTTTATCAAAACAGCTGTGCTGAAAAGAAATAGGTAGAAGACATAGTCTGAGCTTTAAGGAAACTTAAAGAAATCTAGGATAAAGAACCTAGATGATAACATAATGGAAATTAAAGGACATTATTTAAACGTTACTGCTGGAACGTCTGAAGAAATGCTAAAAAGAGCTGAAGTAGCTAAAGATTTAGGGGTACCTATTATTATGCATGACTATCTAACAGGTGGTCTTACTGCTAACACTTCATTAGCTCACTACTGTCGTGACAATGGTCTATTATTACACATTCACAGAGCAATGCACGCGGTTATTGACCGTCAAAGAAACCACGGGATTCACTTCCGTGTATTAGCAAAAGCTCTTCGTTTATCTGGTGGGGACCATCTTCACTCAGGAACTGTTGTAGGAAAACTAGAAGGTGAACGTGAAGTTACTTTAGGTTTCGTTGATTTAATGAGAGACGAATATATTGAAAAAGACCGTAGCCGTGG'
p116
sg8
S'frwdrev'
p117
sg10
I01
sg11
g12
sg13
I01
sg14
(lp118
(dp119
g4
g12
sg6
g12
sg8
S'file'
p120
sg10
I00
sg11
g12
sg13
I00
sg14
(lp121
sg19
I00
sg20
I23
sg21
S'envelope_WED2236_8-31L3-rbcL_remiasii_F.ab1'
p122
sa(dp123
g4
g12
sg6
g12
sg8
S'file'
p124
sg10
I00
sg11
g12
sg13
I00
sg14
(lp125
sg19
I01
sg20
I24
sg21
S'envelope_WED2236_8-31L3-rbcL_remiasii_R.ab1'
p126
sasg19
I00
sg20
I22
sg21
S'envelope_WED2236_8-31L3_rbcL'
p127
sa(dp128
g4
S'              TTATGATATCGAACCAGTTGCTGGTGAAGAAAACCAATACATCGCTTACGTTGCTTATCCTATTGACCTTTTTGAAGAAGGTTCTGTAACTAACTTATTTACATCTATTGTAGGTAACGTTTTTGGTTTCAAAGCTCTTCGTGCTTTACGTCTTGAAGATTTACGTATTTCTTGTGCATACGCTAAAACATTCCAAGGACCTCCTCACGGGATCCAAGTAGAACGTGACAAATTAAACAAATATGGTCGTGGTCTTTTAGGTTGTACAATTAAACCTAAATTAGGTTTATCAGCTAAAAACTATGGTCGTGCAGTTTACGAATGTTTACGTGGTGGATTAGATTTCACAAAAGATGATGAAAATGTTACAAGCCAAGCTTTCATGCGTTGGAGAGACCGTTTTATTTTTGTAGCAGAAGCTCTTTACAAAGCTCAAGCTGAAACAGGTGAAATTAAAGGACATTATTTAAACGTTACTGCTGGAACGTCTGAAGAAATGATGAAAAGAGCTGAAGTAGCTAAAGATTTAGGGGTACCTATTATTATGCATGACTATCTAACAGGTGGTCTTACTGCTAACACTTCATTAGCTCACTACTGTCGTGACAATGGTCTATTATTACACATTCACAGAGCAATGCACGCGGTTATTGACCGTCAAAGAAACCACGGGATTCACTTCCGTGTATTAGCAAAAGCTCTTCGTTTATCTGGTGGGGACCATCTTCACTCAGGAACTGTTGTAGGAAAACTAGAAGGTGAACGTGAAGTTACTTTAGGTTTCGTTGATTTAATGAGAGACGAATATATTGAAAAAGACCGTAGC CGTGGTATTTACTTCACTCAA                                                        '
p129
sg6
S'TTATGATATCGAACCAGTTGCTGGTGAAGAAAACCAATACATCGCTTACGTTGCTTATCCTATTGACCTTTTTGAAGAAGGTTCTGTAACTAACTTATTTACATCTATTGTAGGTAACGTTTTTGGTTTCAAAGCTCTTCGTGCTTTACGTCTTGAAGATTTACGTATTTCTTGTGCATACGCTAAAACATTCCAAGGACCTCCTCACGGGATCCAAGTAGAACGTGACAAATTAAACAAATATGGTCGTGGTCTTTTAGGTTGTACAATTAAACCTAAATTAGGTTTATCAGCTAAAAACTATGGTCGTGCAGTTTACGAATGTTTACGTGGTGGATTAGATTTCACAAAAGATGATGAAAATGTTACAAGCCAAGCTTTCATGCGTTGGAGAGACCGTTTTATTTTTGTAGCAGAAGCTCTTTACAAAGCTCAAGCTGAAACAGGTGAAATTAAAGGACATTATTTAAACGTTACTGCTGGAACGTCTGAAGAAATGATGAAAAGAGCTGAAGTAGCTAAAGATTTAGGGGTACCTATTATTATGCATGACTATCTAACAGGTGGTCTTACTGCTAACACTTCATTAGCTCACTACTGTCGTGACAATGGTCTATTATTACACATTCACAGAGCAATGCACGCGGTTATTGACCGTCAAAGAAACCACGGGATTCACTTCCGTGTATTAGCAAAAGCTCTTCGTTTATCTGGTGGGGACCATCTTCACTCAGGAACTGTTGTAGGAAAACTAGAAGGTGAACGTGAAGTTACTTTAGGTTTCGTTGATTTAATGAGAGACGAATATATTGAAAAAGACCGTAGCCGTGGTATTTACTTCACTCAA'
p130
sg8
S'frwdrev'
p131
sg10
I01
sg11
g12
sg13
I01
sg14
(lp132
(dp133
g4
g12
sg6
g12
sg8
S'file'
p134
sg10
I00
sg11
g12
sg13
I00
sg14
(lp135
sg19
I00
sg20
I26
sg21
S'gear_PAN1915_8-26L2-rbcL_remiasii_F.ab1'
p136
sa(dp137
g4
g12
sg6
g12
sg8
S'file'
p138
sg10
I00
sg11
g12
sg13
I00
sg14
(lp139
sg19
I01
sg20
I27
sg21
S'gear_PAN1915_8-26L2-rbcL_remiasii_R.ab1'
p140
sasg19
I00
sg20
I25
sg21
S'gear_PAN1915_8-26L2_rbcL'
p141
sa(dp142
g4
g12
sg6
g12
sg8
S'file'
p143
sg10
I00
sg11
g12
sg13
I00
sg14
(lp144
sg19
I00
sg20
I28
sg21
S'gear_PAN1915_JA3-21C4-chloroITS2_F.ab1'
p145
sa(dp146
g4
S'                                 CCATCGAATTTTTGAACGCATATTGCGCTCAAGGCTTCGGCCAAGAGCATGTCTGCCTCAGCGTCGGGTTCTCCATCATCGACTCTCTTCTTCTTTCGAGGATGATCGTCGTGGAAACTCGCAGTCCGATCCTCCGTTCTTAATCGAGCGTTGGTGAGGTCTGCCAAAGTGAAAGTAGCGCTCCGAGCATTGCCCATGCATGCGTCAGCAATGGCGTGTGTGTGGGTATGTAGCCGCACTCGAGTAGTTGTGTTATTCACATGTGTTGACTCACATGTGTCTTTCCTTATTCGACTATCCTACGCCTTGCTCGGCTTCTCTTTGTTGTCTTGATTGATAGCATCCGAGACGAACCAGCCCTATACAAGTATACCTCCCAACATGGAACCCTTCACTTCTCGACCTGAGCTCAGGCAAGATTACCCGCTGAACTTAAGCATATCAATAAGCGGAGGAAAAGAAACCAACCAGGATTCCCCTAGTAACGGCGAGCGAACCGGGATCAGCCCAACTTGAAAATCTCCCTCTTGGAGAATTGTAGTCTACAGAAGTGCCCTCTGTGGCCGTGGGAGCTCAAGTTCGCTGGAAGGCGACGTCAAAGAGGGTGAGAACCCCGTCGGCTCCCATCTGGCCGCACCACGAGGTGCTTTCCACGAGTCGGGTTGTTTGGGNNNN AGCCCAAACAACCCGACTCGTGGAAAGCACCTCGTGGTGC  GGC CAGATGGGAGCCGA C  GGGGTTCTCACCCTCTTTGANGTCGC CTTCCAGCGAACTTGAGCTCCCACGGNCACNGANGGCACTTCTGTAGACTACAATTCTCCAAGAGGGAGATTTTCAAGTTGGGCTGATCCCGGTTCGNCTCGCCGTTACTAGGGGAATCCTGGTTGGTTTCTTTTCCTCCGCTTATTGATATGCTTAAGTTCAGCGGGTAATCTTGCCTGAGCTCAGGTCGAGAAGTGAAGGGTTCCA TGTTGGGAGGTATACTTGTATAGGGCTGGTTCGTCTCGGATGCTATCAATCAAGACAACAAAGAGAAGCCGAGCAAGGCGTAGGATAGTCGAATAAGGAAAGACACANGTGAGTCAACACATGTGAATAACACAACTACTCGAGTGCGGCTACATACCCACACACACGCCATTGCTGACGCATGCATGGGCAATGCTCGGAGCGCTACTTTCACTTTGGCAGACCTCACCAACGCTCGATTAAGAACGGAGGATCGGACTGCGAGTTTCCACGACNATCATCCTCGAAAGAAGAAGAGAGTCGATGATGGAGAACCCGACGCTGAGGCAGACATGCTCTTGGCCGAAGCCTTGAGCGCAATATGCGTTCAAAAATTCGATGGTTCACGGAATTCTGCAATTCACACTACGTATCGCATTTCGCTGCGTTCTTCATCGTTGCGAGAGCCTAGATATCCGTCGTTGAGAGTTGTCTAGTTGACAATGTCATGGCGTGTTGCACGACCACGACTGTTTGGATGTNTTAGTATATGTGGGTTAAATAANGTTACAATGCGCCATGTTCCGCTCGAAGTANANTGNNTGANNNNTGANCGCANTGAANNNNNNNNNGNNTCACATACTCTGCGCTAGA                                                                                                                                                                                            '
p147
sg6
S'CCATCGAATTTTTGAACGCATATTGCGCTCAAGGCTTCGGCCAAGAGCATGTCTGCCTCAGCGTCGGGTTCTCCATCATCGACTCTCTTCTTCTTTCGAGGATGATCGTCGTGGAAACTCGCAGTCCGATCCTCCGTTCTTAATCGAGCGTTGGTGAGGTCTGCCAAAGTGAAAGTAGCGCTCCGAGCATTGCCCATGCATGCGTCAGCAATGGCGTGTGTGTGGGTATGTAGCCGCACTCGAGTAGTTGTGTTATTCACATGTGTTGACTCACATGTGTCTTTCCTTATTCGACTATCCTACGCCTTGCTCGGCTTCTCTTTGTTGTCTTGATTGATAGCATCCGAGACGAACCAGCCCTATACAAGTATACCTCCCAACATGGAACCCTTCACTTCTCGACCTGAGCTCAGGCAAGATTACCCGCTGAACTTAAGCATATCAATAAGCGGAGGAAAAGAAACCAACCAGGATTCCCCTAGTAACGGCGAGCGAACCGGGATCAGCCCAACTTGAAAATCTCCCTCTTGGAGAATTGTAGTCTACAGAAGTGCCCTCTGTGGCCGTGGGAGCTCAAGTTCGCTGGAAGGCGACGTCAAAGAGGGTGAGAACCCCGTCGGCTCCCATCTGGCCGCACCACGAGGTGCTTTCCACGAGTCGGGTTGTTTGGGNNNNAGCCCAAACAACCCGACTCGTGGAAAGCACCTCGTGGTGCGGCCAGATGGGAGCCGACGGGGTTCTCACCCTCTTTGANGTCGCCTTCCAGCGAACTTGAGCTCCCACGGNCACNGANGGCACTTCTGTAGACTACAATTCTCCAAGAGGGAGATTTTCAAGTTGGGCTGATCCCGGTTCGNCTCGCCGTTACTAGGGGAATCCTGGTTGGTTTCTTTTCCTCCGCTTATTGATATGCTTAAGTTCAGCGGGTAATCTTGCCTGAGCTCAGGTCGAGAAGTGAAGGGTTCCATGTTGGGAGGTATACTTGTATAGGGCTGGTTCGTCTCGGATGCTATCAATCAAGACAACAAAGAGAAGCCGAGCAAGGCGTAGGATAGTCGAATAAGGAAAGACACANGTGAGTCAACACATGTGAATAACACAACTACTCGAGTGCGGCTACATACCCACACACACGCCATTGCTGACGCATGCATGGGCAATGCTCGGAGCGCTACTTTCACTTTGGCAGACCTCACCAACGCTCGATTAAGAACGGAGGATCGGACTGCGAGTTTCCACGACNATCATCCTCGAAAGAAGAAGAGAGTCGATGATGGAGAACCCGACGCTGAGGCAGACATGCTCTTGGCCGAAGCCTTGAGCGCAATATGCGTTCAAAAATTCGATGGTTCACGGAATTCTGCAATTCACACTACGTATCGCATTTCGCTGCGTTCTTCATCGTTGCGAGAGCCTAGATATCCGTCGTTGAGAGTTGTCTAGTTGACAATGTCATGGCGTGTTGCACGACCACGACTGTTTGGATGTNTTAGTATATGTGGGTTAAATAANGTTACAATGCGCCATGTTCCGCTCGAAGTANANTGNNTGANNNNTGANCGCANTGAANNNNNNNNNGNNTCACATACTCTGCGCTAGA'
p148
sg8
S'frwdrev'
p149
sg10
I01
sg11
g12
sg13
I01
sg14
(lp150
(dp151
g4
g12
sg6
g12
sg8
S'file'
p152
sg10
I00
sg11
g12
sg13
I00
sg14
(lp153
sg19
I00
sg20
I30
sg21
S'gear_PAN1915_JA3-21C2-chloroITS2_F.ab1'
p154
sa(dp155
g4
g12
sg6
g12
sg8
S'file'
p156
sg10
I00
sg11
g12
sg13
I00
sg14
(lp157
sg19
I00
sg20
I31
sg21
S'../JA/cog_PAN1915_20210326C2_26sR_chloro.ab1'
p158
sasg19
I00
sg20
I29
sg21
S'gear_PAN1915_JA3-26C2_ITS2'
p159
sa(dp160
g4
S'                   AATGTGGTGCTGCAGTAGCTGCTGAGTCTTCTACAGGTACTTGGACAACAGTATGGACAGATGGTCTTACAAGTCTTGACCGTTACAAAGGTCGTTGTTACGACATCGAACCAGTTCCAGGTGAAGAAAATCAATATATTGCGTATGTTGCTTACCCCATTGATCTTTTTGAAGAAGGTTCAGTAACTAACTTGTTTACTTCTATTGTAGGTAACGTTTTTGGTTTCAAAGCTCTTCGTGCACTACGTTTAGAAGATCTTCGTATTCCACCAGCATATGTAAAAACTTTTTCAGGCCCTCCTCACGGGATTCAAGTAGAACGTGATAAATTAAACAAATATGGTCGTGGTCTTCTTGGATGTACAATTAAACCTAAATTAGGTCTTTCAGCTAAAAACTACGGTAGAGCTGTTTACGAGTGCCTACGTGGTGGTCTAGACTTCACGAAAGATGATGAAAACGTGAATTCACAACCATTCATGCGTTGGAGAGACCGTTTCCTTTTTGTTGCAGAAGCAATTTACAAATCACAATCAGAAACAGGTGAAGTTAAAGGACATTATTTAAATGTGACAGCAGCTACATGTGAAGAAATGATGAAACGTGCGCAATTTGCTAAAGATCTTGGTATGCCAATTATTATGCACGATTACATTACAGGTGGTTTTACAGCTAACACATCATTAGCTTTATACTGTCGTGATAATGGTCTATTATTACATATTCACCGTGCTATGCACGCTGTTATTGACCGTCAAAGAAACCATGGTA TCACTTCCGTGTATTAGCTAAA                         '
p161
sg6
S'AATGTGGTGCTGCAGTAGCTGCTGAGTCTTCTACAGGTACTTGGACAACAGTATGGACAGATGGTCTTACAAGTCTTGACCGTTACAAAGGTCGTTGTTACGACATCGAACCAGTTCCAGGTGAAGAAAATCAATATATTGCGTATGTTGCTTACCCCATTGATCTTTTTGAAGAAGGTTCAGTAACTAACTTGTTTACTTCTATTGTAGGTAACGTTTTTGGTTTCAAAGCTCTTCGTGCACTACGTTTAGAAGATCTTCGTATTCCACCAGCATATGTAAAAACTTTTTCAGGCCCTCCTCACGGGATTCAAGTAGAACGTGATAAATTAAACAAATATGGTCGTGGTCTTCTTGGATGTACAATTAAACCTAAATTAGGTCTTTCAGCTAAAAACTACGGTAGAGCTGTTTACGAGTGCCTACGTGGTGGTCTAGACTTCACGAAAGATGATGAAAACGTGAATTCACAACCATTCATGCGTTGGAGAGACCGTTTCCTTTTTGTTGCAGAAGCAATTTACAAATCACAATCAGAAACAGGTGAAGTTAAAGGACATTATTTAAATGTGACAGCAGCTACATGTGAAGAAATGATGAAACGTGCGCAATTTGCTAAAGATCTTGGTATGCCAATTATTATGCACGATTACATTACAGGTGGTTTTACAGCTAACACATCATTAGCTTTATACTGTCGTGATAATGGTCTATTATTACATATTCACCGTGCTATGCACGCTGTTATTGACCGTCAAAGAAACCATGGTATCACTTCCGTGTATTAGCTAAA'
p162
sg8
S'frwdrev'
p163
sg10
I01
sg11
g12
sg13
I01
sg14
(lp164
(dp165
g4
g12
sg6
g12
sg8
S'file'
p166
sg10
I00
sg11
g12
sg13
I00
sg14
(lp167
sg19
I00
sg20
I33
sg21
S'honeycomb_BDW1906B_7-5L3-rbcL_bc001_F.ab1'
p168
sa(dp169
g4
g12
sg6
g12
sg8
S'file'
p170
sg10
I00
sg11
g12
sg13
I00
sg14
(lp171
sg19
I01
sg20
I34
sg21
S'honeycomb_BDW1906B_7-5L3-rbcL_bc001_R.ab1'
p172
sasg19
I00
sg20
I32
sg21
S'honeycomb_BDW1906B_7-5L3_rbcL'
p173
sa(dp174
g4
S'                          GTGCTGCAGTAGCTGCTGAGTCTTCTACAGGTACTTGGACAACAGTATGGACAGATGGTCTTACAAGTCTTGACCGTTACAAAGGTCGTTGTTACGACATCGAACCAGTTCCAGGTGAAGAAAATCAATATATTGCTTATGTTGCTTACCCTATTGATCTTTTTGAAGAAGGTTCAGTAACAAACTTGTTTACTTCTATTGTAGGTAACGTTTTTGGTTTCAAAGCTCTTCGTGCACTACGTTTAGAAGATCTTCGTATTCCACCAGCATATGTAAAAACTTTCTCAGGTCCTCCTCACGGGATTCAAGTAGAACGTGATAAATTAAACAAATATGGTCGTGGTCTTCTTGGGTGTACAATTAAACCTAAATTAGGTCTTTCAGCTAAAAACTACGGTAGAGCTGTTTACGAGTGTCTACGTGGTGGTCTAGACTTCACGAAAGATGATGAAAACGTTAACTCACAACCATTCATGCGTTGGAGAGACCGTTTCCTTTTTGTTGCAGAAGCAATTTACAAATCACAATCAGAAACAGGTGAAGTTAAAGGACATTATTTAAATGTTACAGCAGCTACATGTGAAGAAATGATGAAACGTGCGCAATTTGCTAAAGATCTTGGTATGCCAATTATTATGCACGATTACATTACAGGTGGTTTTACAGCTAACACATCATTAGCTTTATACTGTCGTGATAATGGTCTATTATTACATATTCACCGTGCTATGCACGCTGTTATTGACCGTCAAAGA AA CC ATGGTATTCACTTCCGTGTATTAGCTAAAGCTC                    '
p175
sg6
S'GTGCTGCAGTAGCTGCTGAGTCTTCTACAGGTACTTGGACAACAGTATGGACAGATGGTCTTACAAGTCTTGACCGTTACAAAGGTCGTTGTTACGACATCGAACCAGTTCCAGGTGAAGAAAATCAATATATTGCTTATGTTGCTTACCCTATTGATCTTTTTGAAGAAGGTTCAGTAACAAACTTGTTTACTTCTATTGTAGGTAACGTTTTTGGTTTCAAAGCTCTTCGTGCACTACGTTTAGAAGATCTTCGTATTCCACCAGCATATGTAAAAACTTTCTCAGGTCCTCCTCACGGGATTCAAGTAGAACGTGATAAATTAAACAAATATGGTCGTGGTCTTCTTGGGTGTACAATTAAACCTAAATTAGGTCTTTCAGCTAAAAACTACGGTAGAGCTGTTTACGAGTGTCTACGTGGTGGTCTAGACTTCACGAAAGATGATGAAAACGTTAACTCACAACCATTCATGCGTTGGAGAGACCGTTTCCTTTTTGTTGCAGAAGCAATTTACAAATCACAATCAGAAACAGGTGAAGTTAAAGGACATTATTTAAATGTTACAGCAGCTACATGTGAAGAAATGATGAAACGTGCGCAATTTGCTAAAGATCTTGGTATGCCAATTATTATGCACGATTACATTACAGGTGGTTTTACAGCTAACACATCATTAGCTTTATACTGTCGTGATAATGGTCTATTATTACATATTCACCGTGCTATGCACGCTGTTATTGACCGTCAAAGAAACCATGGTATTCACTTCCGTGTATTAGCTAAAGCTC'
p176
sg8
S'frwdrev'
p177
sg10
I01
sg11
g12
sg13
I01
sg14
(lp178
(dp179
g4
g12
sg6
g12
sg8
S'file'
p180
sg10
I00
sg11
g12
sg13
I00
sg14
(lp181
sg19
I00
sg20
I36
sg21
S'honeycomb_BDW1915_7-27L3-rbcL_bc001_F.ab1'
p182
sa(dp183
g4
g12
sg6
g12
sg8
S'file'
p184
sg10
I00
sg11
g12
sg13
I00
sg14
(lp185
sg19
I01
sg20
I37
sg21
S'honeycomb_BDW1915_7-27L3-rbcL_bc001_R.ab1'
p186
sasg19
I00
sg20
I35
sg21
S'honeycomb_BDW1915_7-27L3_rbcL'
p187
sa(dp188
g4
S'                             TGTGGTGCTGCAGTAGCTGCTGAGTCTTCTACAGGTACTTGGACAACAGTATGGACAGATGGTCTTACAAGTCTTGACCGTTACAAAGGTCGTTGTTACGACATCGAACCAGTTCCAGGTGAAGAAAATCAATATATTGCTTATGTTGCTTACCCTATTGATCTTTTTGAAGAAGGTTCAGTAACAAACTTGTTTACTTCTATTGTAGGTAACGTTTTTGGTTTCAAAGCTCTTCGTGCACTACGTTTAGAAGATCTTCGTATTCCACCAGCATATGTAAAAACTTTCTCAGGTCCTCCTCACGGGATTCAAGTAGAACGTGATAAATTAAACAAATATGGTCGTGGTCTTCTTGGGTGTACAATTAAACCTAAATTAGGTCTTTCAGCTAAAAACTACGGTAGAGCTGTTTACGAGTGTCTACGTGGTGGTCTAGACTTCACGAAAGATGATGAAAACGTTAACTCACAACCATTCATGCGTTGGAGAGACCGTTTCCTTTTTGTTGCAGAAGCAATTTACAAATCACAATCAGAAACAGGTGAAGTTAAAGGACATTATTTAAATGTTACAGCAGCTACATGTGAAGAAATGATGAAACGTGCGCAATTTGCTAAAGATCTTGGTATGCCAATTATTATGCACGATTACATTACAGGTGGTTTTACAGCTAACACATCATTAGCTTTATACTGTCGTGATAATGGTCTATTATTACATATTCACCGTGCTATGCACGCTGTTATTGACCGTCAAAGAAACCATCGGTATTCACTTCCGTGTATTAGCTAAAGCT                    '
p189
sg6
S'TGTGGTGCTGCAGTAGCTGCTGAGTCTTCTACAGGTACTTGGACAACAGTATGGACAGATGGTCTTACAAGTCTTGACCGTTACAAAGGTCGTTGTTACGACATCGAACCAGTTCCAGGTGAAGAAAATCAATATATTGCTTATGTTGCTTACCCTATTGATCTTTTTGAAGAAGGTTCAGTAACAAACTTGTTTACTTCTATTGTAGGTAACGTTTTTGGTTTCAAAGCTCTTCGTGCACTACGTTTAGAAGATCTTCGTATTCCACCAGCATATGTAAAAACTTTCTCAGGTCCTCCTCACGGGATTCAAGTAGAACGTGATAAATTAAACAAATATGGTCGTGGTCTTCTTGGGTGTACAATTAAACCTAAATTAGGTCTTTCAGCTAAAAACTACGGTAGAGCTGTTTACGAGTGTCTACGTGGTGGTCTAGACTTCACGAAAGATGATGAAAACGTTAACTCACAACCATTCATGCGTTGGAGAGACCGTTTCCTTTTTGTTGCAGAAGCAATTTACAAATCACAATCAGAAACAGGTGAAGTTAAAGGACATTATTTAAATGTTACAGCAGCTACATGTGAAGAAATGATGAAACGTGCGCAATTTGCTAAAGATCTTGGTATGCCAATTATTATGCACGATTACATTACAGGTGGTTTTACAGCTAACACATCATTAGCTTTATACTGTCGTGATAATGGTCTATTATTACATATTCACCGTGCTATGCACGCTGTTATTGACCGTCAAAGAAACCATCGGTATTCACTTCCGTGTATTAGCTAAAGCT'
p190
sg8
S'frwdrev'
p191
sg10
I01
sg11
g12
sg13
I01
sg14
(lp192
(dp193
g4
g12
sg6
g12
sg8
S'file'
p194
sg10
I00
sg11
g12
sg13
I00
sg14
(lp195
sg19
I00
sg20
I39
sg21
S'honeycomb_BDW1915_7-27L4-rbcL_bc001_F.ab1'
p196
sa(dp197
g4
g12
sg6
g12
sg8
S'file'
p198
sg10
I00
sg11
g12
sg13
I00
sg14
(lp199
sg19
I01
sg20
I40
sg21
S'honeycomb_BDW1915_7-27L4-rbcL_bc001_R.ab1'
p200
sasg19
I00
sg20
I38
sg21
S'honeycomb_BDW1915_7-27L4_rbcL'
p201
sa(dp202
g4
g12
sg6
g12
sg8
S'file'
p203
sg10
I00
sg11
g12
sg13
I00
sg14
(lp204
sg19
I00
sg20
I41
sg21
S'../JA/cog_PAN1915_20210326C3_26sR_chloro.ab1'
p205
sa(dp206
g4
S'      TTGACCGTTATAAAGGTCGTTGTTATGATATCGAACCAGTTGCAGGTGAAGAAAACCAGTACATTGCTTATGTTGCTTACCCAATCGACTTATTTGAAGAAGGTTCTGTAACTAACTTATTCACGTCAATTGTTGGTAACGTTTTTGGTTTCAAAGCTCTTCGTGCTTTACGTCTTGAAGATTTACGTATTTCTTGTGCGTATGCTAAAACATTCCAAGGACCTCCTCATGGTATCCAAGTAGAACGTGACAAATTAAACAAATACGGACGTGGTCTTTTAGGCTGTACAATCAAACCTAAATTAGGTCTTTCAGCTAAAAACTATGGTCGTGCTGTTTACGAATGTTTACGTGGTGGTTTAGACTTTACAAAAGATGATGAAAACGTAACATCTCAAGCTTTCATGCGTTGGAGAGACCGTTTTATCTTCGTTGCTGAAGCGATTTACAAATCTCAAGCTGAAACTGGTGAAATTAAAGGTCACTATTTAAACGTAACTGCGGGTACGAGCGAAGAAATGCTAAAACGTGCAGAAGTAGCTAAAGATTTAGGGGTACCAATCATCATGCATGACTACTTAACTGGTGGTTTAACTGCAAACACTTCATTAGCACACTACTGTCGTGACAATGGTCTATTACTACACATTCACAGAGCTATGCACGCGGTTATTGACCGTCAAAGAAACCACGGTATCCATTTCCGTGTTTTAGCTAAAGCTCTTCGTCTGTCAGGTGGTGACCACCTTCACTCAGGAACAGTTGTAGGTAAACTAGAAGGAGAACGTGAAGTTACTCTTGGTTTCGTTGATTTAATGCGTGACGAATATATCGAAAAAGACCGTAGCCGTGGTATTTATTCACAC                '
p207
sg6
S'TTGACCGTTATAAAGGTCGTTGTTATGATATCGAACCAGTTGCAGGTGAAGAAAACCAGTACATTGCTTATGTTGCTTACCCAATCGACTTATTTGAAGAAGGTTCTGTAACTAACTTATTCACGTCAATTGTTGGTAACGTTTTTGGTTTCAAAGCTCTTCGTGCTTTACGTCTTGAAGATTTACGTATTTCTTGTGCGTATGCTAAAACATTCCAAGGACCTCCTCATGGTATCCAAGTAGAACGTGACAAATTAAACAAATACGGACGTGGTCTTTTAGGCTGTACAATCAAACCTAAATTAGGTCTTTCAGCTAAAAACTATGGTCGTGCTGTTTACGAATGTTTACGTGGTGGTTTAGACTTTACAAAAGATGATGAAAACGTAACATCTCAAGCTTTCATGCGTTGGAGAGACCGTTTTATCTTCGTTGCTGAAGCGATTTACAAATCTCAAGCTGAAACTGGTGAAATTAAAGGTCACTATTTAAACGTAACTGCGGGTACGAGCGAAGAAATGCTAAAACGTGCAGAAGTAGCTAAAGATTTAGGGGTACCAATCATCATGCATGACTACTTAACTGGTGGTTTAACTGCAAACACTTCATTAGCACACTACTGTCGTGACAATGGTCTATTACTACACATTCACAGAGCTATGCACGCGGTTATTGACCGTCAAAGAAACCACGGTATCCATTTCCGTGTTTTAGCTAAAGCTCTTCGTCTGTCAGGTGGTGACCACCTTCACTCAGGAACAGTTGTAGGTAAACTAGAAGGAGAACGTGAAGTTACTCTTGGTTTCGTTGATTTAATGCGTGACGAATATATCGAAAAAGACCGTAGCCGTGGTATTTATTCACAC'
p208
sg8
S'frwdrev'
p209
sg10
I01
sg11
g12
sg13
I01
sg14
(lp210
(dp211
g4
g12
sg6
g12
sg8
S'file'
p212
sg10
I00
sg11
g12
sg13
I00
sg14
(lp213
sg19
I00
sg20
I43
sg21
S'petal_CAT20TR8_7-22L2-rbcL_remiasii_F.ab1'
p214
sa(dp215
g4
g12
sg6
g12
sg8
S'file'
p216
sg10
I00
sg11
g12
sg13
I00
sg14
(lp217
sg19
I01
sg20
I44
sg21
S'petal_CAT20TR8_7-22L2-rbcL_remiasii_R.ab1'
p218
sasg19
I00
sg20
I42
sg21
S'petal_CAT20TR8_7-22L2_rbcL'
p219
sa(dp220
g4
S'                             AAATGCGATACGTAGTGTGAATTGCAGAATTCCGTGAACCATCGAATTTTTGAACGCATATTGCGCTCAAGGCTTCGGCCAAGAGCATGTCTGCCTCAGCGTCGGGTTCTCCATCATGGACTCTCCTCTCTTCTTTCGATTAGAGTGGCGAGTCGTGGAAACTCGCAGTCCGATCCTCCGTTCTTCATTGAGCGTTGGTGAGGTCTGCCAAAGTGAAAGTAGTGCTCCGAGCATCGCCCATCCATGTGTCAGCAATGGCGTGTGTTTGGGTATGTAGCCGCACTCGAGTAGTTGTGATCTCACATGTGTTCACTCACGTGTGTTTTTCCTATTCGACTATCCTACAATTTGCTCGGCTTCTCTTTGTTGTCATCACCATGTGTGATAGCAACATCCGAGACGACCCCAGCCCTATATTAGTATACCTCCCAACATGGAACCCTTCACTTCTCGACCTGAGCTCAGGCAAGATTACCCGCTGAACTTAAGCATATCAATAAGCGGAGGAAAAGAAACCAACCAGGATTCCCCTAGTAACGGCGAGCGAACCGGGATCAGCCCAACTTGAAAATCTCCCTCTTGGAGAATTGTAGTCTACAGAAGTGCCCTCTGTGGCCGTGGGAGCTCAAGTTCGCTGGAAGGCGACGTCAAAGAGGGTGAGAACCCCGTCGGCTCCCATCTGGCNGCACCACGAGGTGCTTTCCACGAGTCGGGTTGTTTGGGAATGCAGCCCAAAANTGGAGGTAAATCCCTTCTAAGGCTAAATAACGGCGAGAGA                           '
p221
sg6
S'AAATGCGATACGTAGTGTGAATTGCAGAATTCCGTGAACCATCGAATTTTTGAACGCATATTGCGCTCAAGGCTTCGGCCAAGAGCATGTCTGCCTCAGCGTCGGGTTCTCCATCATGGACTCTCCTCTCTTCTTTCGATTAGAGTGGCGAGTCGTGGAAACTCGCAGTCCGATCCTCCGTTCTTCATTGAGCGTTGGTGAGGTCTGCCAAAGTGAAAGTAGTGCTCCGAGCATCGCCCATCCATGTGTCAGCAATGGCGTGTGTTTGGGTATGTAGCCGCACTCGAGTAGTTGTGATCTCACATGTGTTCACTCACGTGTGTTTTTCCTATTCGACTATCCTACAATTTGCTCGGCTTCTCTTTGTTGTCATCACCATGTGTGATAGCAACATCCGAGACGACCCCAGCCCTATATTAGTATACCTCCCAACATGGAACCCTTCACTTCTCGACCTGAGCTCAGGCAAGATTACCCGCTGAACTTAAGCATATCAATAAGCGGAGGAAAAGAAACCAACCAGGATTCCCCTAGTAACGGCGAGCGAACCGGGATCAGCCCAACTTGAAAATCTCCCTCTTGGAGAATTGTAGTCTACAGAAGTGCCCTCTGTGGCCGTGGGAGCTCAAGTTCGCTGGAAGGCGACGTCAAAGAGGGTGAGAACCCCGTCGGCTCCCATCTGGCNGCACCACGAGGTGCTTTCCACGAGTCGGGTTGTTTGGGAATGCAGCCCAAAANTGGAGGTAAATCCCTTCTAAGGCTAAATAACGGCGAGAGA'
p222
sg8
S'frwdrev'
p223
sg10
I01
sg11
g12
sg13
I01
sg14
(lp224
(dp225
g4
g12
sg6
g12
sg8
S'file'
p226
sg10
I00
sg11
g12
sg13
I00
sg14
(lp227
sg19
I00
sg20
I46
sg21
S'petal_WED2236_8-31L2-chloroITS2_F.ab1'
p228
sa(dp229
g4
g12
sg6
g12
sg8
S'file'
p230
sg10
I00
sg11
g12
sg13
I00
sg14
(lp231
sg19
I01
sg20
I47
sg21
S'petal_WED2236_8-31L2-chloroITS2_R.ab1'
p232
sasg19
I00
sg20
I45
sg21
S'petal_WED2236_8-31L2_ITS2'
p233
sa(dp234
g4
S'                                GTTGCTGGTGAAGAAAACCAATACATCGCTTACGTTGCTTATCCTATTGACCTTTTTGAAGAAGGTTCTGTAACTAACTTATTTACATCTATTGTAGGTAACGTTTTTGGTTTCAAAGCTCTTCGTGCTTTACGTCTTGAAGATTTACGTATTTCTTGTGCATACGCTAAAACATTCCAAGGACCTCCTCACGGGATCCAAGTAGAACGTGACAAATTAAACAAATATGGTCGTGGTCTTTTAGGTTGTACAATTAAACCTAAATTAGGTTTATCAGCTAAAAACTATGGTCGTGCAGTTTACGAATGTTTACG TGGTGGGTTAGATTTCACAAAAGATGATGAAAATGTTACAAGCCANAGCTTTCATGCGTTGGAGAGACCGT TTTATTTTTGTAGCAGAAGCTCTTTACAAATCTCAAGCTGAAACAGGTAAATT TTGCCTAGCTAGTCTGTAAAGAC TAGTAAAAAACATTGGATGAATTGCAAGGACGCTAAAGCTTTTTTTAAATCATTTTATAAATCATTTTATAAATCATTTTATAAATCATAGCTATGCCAACTTGCA GCGAAGCTTGCTGAAAGATTTTTTGTAGGCA AGAACGTTCAACGACTAGAGAGTGAGCTGATCTGGGCA ATAATCTCTCCACGAGCCTC CAACTACCCTTTTTTTTATCAAAACAGCTGTGCTGA A AAGAAATAGGTAGAAGACATAGTCTGAGCTTTAAGGAAACTTAAAGAAATCTAGGATAAAGAACCTAGATGATAACATAATGGAAATTAAAG GACATTATTTAA ACGTTACTGCTGGAACGTCTGAAGAAATGCTANAAAAGAGCTGAAGTAGCTAAAGATTTAGGGGTACCTATTATTATGCATGACTATCTAACAGGTGGTCTTACTGCTAACACTTCATTAGCTCACTACTGTCGTGACAATGGTCTATTATTACACATTCACAGAGCAATGCACGCGGTTATTGACCGTCAAAGAAACCACGGGATTCACTTCCGTGTATTAGCAAAAGCTCTTCGTTTATCTGGTGGGGACCATCTTCACTCAGGAACTGTTGTAGGAAAACTAGAAGGTGAACGTGAAGTTACTTTAGGTTTCGTTGATTTAATGAGAGACGAATATATTGAAAAAGACCGTAGCCGTGGTA                      '
p235
sg6
S'GTTGCTGGTGAAGAAAACCAATACATCGCTTACGTTGCTTATCCTATTGACCTTTTTGAAGAAGGTTCTGTAACTAACTTATTTACATCTATTGTAGGTAACGTTTTTGGTTTCAAAGCTCTTCGTGCTTTACGTCTTGAAGATTTACGTATTTCTTGTGCATACGCTAAAACATTCCAAGGACCTCCTCACGGGATCCAAGTAGAACGTGACAAATTAAACAAATATGGTCGTGGTCTTTTAGGTTGTACAATTAAACCTAAATTAGGTTTATCAGCTAAAAACTATGGTCGTGCAGTTTACGAATGTTTACGTGGTGGGTTAGATTTCACAAAAGATGATGAAAATGTTACAAGCCANAGCTTTCATGCGTTGGAGAGACCGTTTTATTTTTGTAGCAGAAGCTCTTTACAAATCTCAAGCTGAAACAGGTAAATTTTGCCTAGCTAGTCTGTAAAGACTAGTAAAAAACATTGGATGAATTGCAAGGACGCTAAAGCTTTTTTTAAATCATTTTATAAATCATTTTATAAATCATTTTATAAATCATAGCTATGCCAACTTGCAGCGAAGCTTGCTGAAAGATTTTTTGTAGGCAAGAACGTTCAACGACTAGAGAGTGAGCTGATCTGGGCAATAATCTCTCCACGAGCCTCCAACTACCCTTTTTTTTATCAAAACAGCTGTGCTGAAAAGAAATAGGTAGAAGACATAGTCTGAGCTTTAAGGAAACTTAAAGAAATCTAGGATAAAGAACCTAGATGATAACATAATGGAAATTAAAGGACATTATTTAAACGTTACTGCTGGAACGTCTGAAGAAATGCTANAAAAGAGCTGAAGTAGCTAAAGATTTAGGGGTACCTATTATTATGCATGACTATCTAACAGGTGGTCTTACTGCTAACACTTCATTAGCTCACTACTGTCGTGACAATGGTCTATTATTACACATTCACAGAGCAATGCACGCGGTTATTGACCGTCAAAGAAACCACGGGATTCACTTCCGTGTATTAGCAAAAGCTCTTCGTTTATCTGGTGGGGACCATCTTCACTCAGGAACTGTTGTAGGAAAACTAGAAGGTGAACGTGAAGTTACTTTAGGTTTCGTTGATTTAATGAGAGACGAATATATTGAAAAAGACCGTAGCCGTGGTA'
p236
sg8
S'frwdrev'
p237
sg10
I01
sg11
g12
sg13
I01
sg14
(lp238
(dp239
g4
g12
sg6
g12
sg8
S'file'
p240
sg10
I00
sg11
g12
sg13
I00
sg14
(lp241
sg19
I00
sg20
I49
sg21
S'petal_WED2236_8-31L2-rbcL_remiasii_F.ab1'
p242
sa(dp243
g4
g12
sg6
g12
sg8
S'file'
p244
sg10
I00
sg11
g12
sg13
I00
sg14
(lp245
sg19
I01
sg20
I50
sg21
S'petal_WED2236_8-31L2-rbcL_remiasii_R.ab1'
p246
sasg19
I00
sg20
I48
sg21
S'petal_WED2236_8-31L2_rbcL'
p247
sa(dp248
g4
S'                   AAGAATGTGGTGCTGCAGTAGCTGCTG A  GT  CTTCTACAGGTACTTGGACAACAGTACCTCCGGACAGAATGGTCTTACAA TCTTGNCCNNTACA GACGCTCGTTCGTCTATCTGACNTCGNANNAGTNCCNNNTGAAGAAAATGCANTATATT GCT TATGNNTNTGCTTAC TC CTCT  TGGATNNNTTTGAAGAAGGTTCAGTAACAAACTTGTTTACTTCTATTGTAGGTAACGTTTTTGGTTTCAAAGCTCTTCGTGCACTACGTTTAGAAGATCTTCGTATTCCACCAGCATATGTAAAAACTTTCTCAGGTCCTCCTCACGGGATTCAAGTAGAACGTGATAAATTAAACAAATATGGTCGTGGTCTTCTTGGGTGTACAATTAAACCTAAATTAGGTCTTTCAGCTAAAAACTATGGTAGAGCTGTTTACGAGTGTCTACGTGGTGGTCTAGATTTCACGAAAGATGATGAAAACGTTAACTCACAACCATTCATGCGTTGGAGAGACCGTTTCCTTTTTGTTGCAGAAGCGATTTACAAATCACAATCAGAAACAGGTGAAGTTAAAGGGCATT ATTTAAATGTTACAGCAGCTACATCGTGAAGAAA GATGAAACGTGCGCAATTT GCTACA  ACGATCTT GTGTAT TGGCCAATTATTACCTGCACTGATTATATTACAGGTGGTTTCCCTACAGCTAACACATCATTAGCTTTATACTGGTCG TGAGTACATG TCTGAANANTNCACTCNTTCACCGTNCTATGCACGCTNTTCNTCTGNCCG  TCAAAGAAACCATGGTATTCACTTCCGTGTATTAGCTAAAGCTCT                  '
p249
sg6
S'AAGAATGTGGTGCTGCAGTAGCTGCTGAGTCTTCTACAGGTACTTGGACAACAGTACCTCCGGACAGAATGGTCTTACAATCTTGNCCNNTACAGACGCTCGTTCGTCTATCTGACNTCGNANNAGTNCCNNNTGAAGAAAATGCANTATATTGCTTATGNNTNTGCTTACTCCTCTTGGATNNNTTTGAAGAAGGTTCAGTAACAAACTTGTTTACTTCTATTGTAGGTAACGTTTTTGGTTTCAAAGCTCTTCGTGCACTACGTTTAGAAGATCTTCGTATTCCACCAGCATATGTAAAAACTTTCTCAGGTCCTCCTCACGGGATTCAAGTAGAACGTGATAAATTAAACAAATATGGTCGTGGTCTTCTTGGGTGTACAATTAAACCTAAATTAGGTCTTTCAGCTAAAAACTATGGTAGAGCTGTTTACGAGTGTCTACGTGGTGGTCTAGATTTCACGAAAGATGATGAAAACGTTAACTCACAACCATTCATGCGTTGGAGAGACCGTTTCCTTTTTGTTGCAGAAGCGATTTACAAATCACAATCAGAAACAGGTGAAGTTAAAGGGCATTATTTAAATGTTACAGCAGCTACATCGTGAAGAAAGATGAAACGTGCGCAATTTGCTACAACGATCTTGTGTATTGGCCAATTATTACCTGCACTGATTATATTACAGGTGGTTTCCCTACAGCTAACACATCATTAGCTTTATACTGGTCGTGAGTACATGTCTGAANANTNCACTCNTTCACCGTNCTATGCACGCTNTTCNTCTGNCCGTCAAAGAAACCATGGTATTCACTTCCGTGTATTAGCTAAAGCTCT'
p250
sg8
S'frwdrev'
p251
sg10
I01
sg11
g12
sg13
I01
sg14
(lp252
(dp253
g4
g12
sg6
g12
sg8
S'file'
p254
sg10
I00
sg11
g12
sg13
I00
sg14
(lp255
sg19
I00
sg20
I52
sg21
S'sphere_CAT20TR3_6-22L2-rbcL_bc001_F.ab1'
p256
sa(dp257
g4
g12
sg6
g12
sg8
S'file'
p258
sg10
I00
sg11
g12
sg13
I00
sg14
(lp259
sg19
I01
sg20
I53
sg21
S'sphere_CAT20TR3_6-22L2-rbcL_bc001_R.ab1'
p260
sasg19
I00
sg20
I51
sg21
S'sphere_CAT20TR3_6-22L2_rbcL'
p261
sa(dp262
g4
S'                                                                        CAACAGTANNTCCNGACAGAATGGTCTTACAA TCTTGNCCGNTACANGANGCTCGTTCGTCTATCTG CNTCGNANNAGTNCCNNNTGAAGAAAATGCANTNTATT NCT NATGNNGCTCTAC TC CTCT  TGGATCNNTTTGAAGAAGGTTCAGTAACAAACTTGTTTACTTCTATTGTAGGTAACGTTTTTGGTTTCAAAGCTCTTCGTGCACTACGTTTAGAAGATCTTCGTATTCCACCAGCATATGTAAAAACTTTCTCAGGTCCTCCTCACGGGATTCAAGTAGAACGTGATAAATTAAACAAATATGGTCGTGGTCTTCTTGGGTGTACAATTAAACCTAAATTAGGTCTTTCAGCTAAAAACTATGGTAGAGCTGTTTACGAGTGTCTACGTGGTGGTCTAGATTTCACGAAAGATGATGAAAACGTTAACTCACAACCATTCATGCGTTGGAGAGACCGTTTCCTTTTTGTTGCAGAAGCGATTTACAAATCACAATCAGAAACAGGTGAAGTTAAAGGGCATTATTTAAATNGTTAC AGCAGCTACAT GTGAAGAAATGATGANACGTGCGCAATTT GCTACAAGATCTTGGTATGCCAATTATTATGCACGATTNTATTACNGGTGGTTTTA NAGCTAACACATCNTGNAGCTTNATNCNNTCGTGATAATGNNCTATCATNACGNTNTTCACCGTGCTATGCANGCTGTNATTGACCGTC AACCTCCATGAAGAATNCACTTCCGTNTCCNTA CATNANGCTCTTCG                                                       '
p263
sg6
S'CAACAGTANNTCCNGACAGAATGGTCTTACAATCTTGNCCGNTACANGANGCTCGTTCGTCTATCTGCNTCGNANNAGTNCCNNNTGAAGAAAATGCANTNTATTNCTNATGNNGCTCTACTCCTCTTGGATCNNTTTGAAGAAGGTTCAGTAACAAACTTGTTTACTTCTATTGTAGGTAACGTTTTTGGTTTCAAAGCTCTTCGTGCACTACGTTTAGAAGATCTTCGTATTCCACCAGCATATGTAAAAACTTTCTCAGGTCCTCCTCACGGGATTCAAGTAGAACGTGATAAATTAAACAAATATGGTCGTGGTCTTCTTGGGTGTACAATTAAACCTAAATTAGGTCTTTCAGCTAAAAACTATGGTAGAGCTGTTTACGAGTGTCTACGTGGTGGTCTAGATTTCACGAAAGATGATGAAAACGTTAACTCACAACCATTCATGCGTTGGAGAGACCGTTTCCTTTTTGTTGCAGAAGCGATTTACAAATCACAATCAGAAACAGGTGAAGTTAAAGGGCATTATTTAAATNGTTACAGCAGCTACATGTGAAGAAATGATGANACGTGCGCAATTTGCTACAAGATCTTGGTATGCCAATTATTATGCACGATTNTATTACNGGTGGTTTTANAGCTAACACATCNTGNAGCTTNATNCNNTCGTGATAATGNNCTATCATNACGNTNTTCACCGTGCTATGCANGCTGTNATTGACCGTCAACCTCCATGAAGAATNCACTTCCGTNTCCNTACATNANGCTCTTCG'
p264
sg8
S'frwdrev'
p265
sg10
I01
sg11
g12
sg13
I01
sg14
(lp266
(dp267
g4
g12
sg6
g12
sg8
S'file'
p268
sg10
I00
sg11
g12
sg13
I00
sg14
(lp269
sg19
I00
sg20
I55
sg21
S'sphere_CAT20TR8_7-22L3-rbcL_bc001_F.ab1'
p270
sa(dp271
g4
g12
sg6
g12
sg8
S'file'
p272
sg10
I00
sg11
g12
sg13
I00
sg14
(lp273
sg19
I01
sg20
I56
sg21
S'sphere_CAT20TR8_7-22L3-rbcL_bc001_R.ab1'
p274
sasg19
I00
sg20
I54
sg21
S'sphere_CAT20TR8_7-22L3_rbcL'
p275
sa(dp276
g4
S'                            CCAGTTGCTGGTGAAGAAAACCAATACATCGCTTACGTTGCTTATCCTATTGACCTTTTTGAAGAAGGTTCTGTAACTAACTTATTTACATCTATTGTAGGTAACGTTTTTGGTTTCAAAGCTCTTCGTGCTTTACGTCTTGAAGATTTACGTATTTCTTGTGCATACGCTAAAACATTCCAAGGACCTCCTCACGGGATCCAAGTAGAACGTGACAAATTAAACAAATATGGTCGTGGTCTTTTAGGTTGTACAATTAAACCAAAATTAGGTTTATCAGCTAAAAACTATGGTCGTGCAGTTTACGAATGTTTACGTGGTGGGTTAGATTTCACAAAAGATGATGAAAATGTTACAAGCCAAGCTTTCATGCGTTGGAGAGACCGTTTTATTTTTGTAGCAGAAGCTCTTTACAAATCTCAAGCTGAAACAGGTAAATTTTGCCTAGCTAGTCTGTAAAGACTAGTAAAAAACATTGGATGAATTGCAAGGACGCTAAAGCTTTTTATAAATCATTTTATAAATCATAGCTATGCCAACTTGCAGCGAAGCTTGCTGAAAGATTTTTTGTAGGCAAGAACGTTCAACGACTAGAGAGTGAGCTGATCTGGGCAATAATCTCTCCACGAGCCTCCAACTACCCTTTTTTTTATCAAAACAGCTGTGCTGTGCTGAAAGGAAATAGGTAGAAGACATAGTCTGAGCTTTAAGGAAACTTAAAGAAATCTAGGATAAAGAACCTAGATGATAACATAATGGAAATTAAAGGACATTATTTAAACGTTACTGCTGGAACGTCTGAAGAAATGCTAAAAAGAGCTGAAGTAGCTAAAGATTTAGGGGTACCTATTATTATGCATGACTATCTAACAGGTGGTCTTACTGCTAACACTTCATTAGCTCACTACTGTCGTGACAATGGTCTATTATTACACATTCACAGAGCAATGCACGCGGTTATTGACCGTCAAAGAAACCACGGGATTCACTTCCGTGTATTAGCAAAAGCTCTTCGTTTATCTGGTGGGGACCATCTTCACTCAGGAACTGTTGTAGGAAAACTAGAAGGTGAACGTGAAGTTACTTTAGGTTTCGTTGATTTAATGAGAGACGAATATATTGAAAAAGACCGTAGCCGTGGTA                      '
p277
sg6
S'CCAGTTGCTGGTGAAGAAAACCAATACATCGCTTACGTTGCTTATCCTATTGACCTTTTTGAAGAAGGTTCTGTAACTAACTTATTTACATCTATTGTAGGTAACGTTTTTGGTTTCAAAGCTCTTCGTGCTTTACGTCTTGAAGATTTACGTATTTCTTGTGCATACGCTAAAACATTCCAAGGACCTCCTCACGGGATCCAAGTAGAACGTGACAAATTAAACAAATATGGTCGTGGTCTTTTAGGTTGTACAATTAAACCAAAATTAGGTTTATCAGCTAAAAACTATGGTCGTGCAGTTTACGAATGTTTACGTGGTGGGTTAGATTTCACAAAAGATGATGAAAATGTTACAAGCCAAGCTTTCATGCGTTGGAGAGACCGTTTTATTTTTGTAGCAGAAGCTCTTTACAAATCTCAAGCTGAAACAGGTAAATTTTGCCTAGCTAGTCTGTAAAGACTAGTAAAAAACATTGGATGAATTGCAAGGACGCTAAAGCTTTTTATAAATCATTTTATAAATCATAGCTATGCCAACTTGCAGCGAAGCTTGCTGAAAGATTTTTTGTAGGCAAGAACGTTCAACGACTAGAGAGTGAGCTGATCTGGGCAATAATCTCTCCACGAGCCTCCAACTACCCTTTTTTTTATCAAAACAGCTGTGCTGTGCTGAAAGGAAATAGGTAGAAGACATAGTCTGAGCTTTAAGGAAACTTAAAGAAATCTAGGATAAAGAACCTAGATGATAACATAATGGAAATTAAAGGACATTATTTAAACGTTACTGCTGGAACGTCTGAAGAAATGCTAAAAAGAGCTGAAGTAGCTAAAGATTTAGGGGTACCTATTATTATGCATGACTATCTAACAGGTGGTCTTACTGCTAACACTTCATTAGCTCACTACTGTCGTGACAATGGTCTATTATTACACATTCACAGAGCAATGCACGCGGTTATTGACCGTCAAAGAAACCACGGGATTCACTTCCGTGTATTAGCAAAAGCTCTTCGTTTATCTGGTGGGGACCATCTTCACTCAGGAACTGTTGTAGGAAAACTAGAAGGTGAACGTGAAGTTACTTTAGGTTTCGTTGATTTAATGAGAGACGAATATATTGAAAAAGACCGTAGCCGTGGTA'
p278
sg8
S'frwdrev'
p279
sg10
I01
sg11
g12
sg13
I01
sg14
(lp280
(dp281
g4
g12
sg6
g12
sg8
S'file'
p282
sg10
I00
sg11
g12
sg13
I00
sg14
(lp283
sg19
I00
sg20
I58
sg21
S'star_BUG1903_7-22L1-rbcL_remiasii_F.ab1'
p284
sa(dp285
g4
g12
sg6
g12
sg8
S'file'
p286
sg10
I00
sg11
g12
sg13
I00
sg14
(lp287
sg19
I01
sg20
I59
sg21
S'star_BUG1903_7-22L1-rbcL_remiasii_R.ab1'
p288
sasg19
I00
sg20
I57
sg21
S'star_BUG1903_7-22L1_rbcL'
p289
sasS'formatversion'
p290
S'0.9'
p291
sS'consseqsettings'
p292
(dp293
S'consensus_algorithm'
p294
S'Bayesian'
p295
sS'do_qualitytrim'
p296
I01
sS'qualitytrim_winsize'
p297
I10
sS'primermatch_threshold'
p298
F0.8
sS'trim_endgaps'
p299
I00
sS'min_confscore'
p300
I30
sS'forward_primer'
p301
g12
sS'reverse_primer'
p302
g12
sS'qualitytrim_basecnt'
p303
I8
sS'trim_consensus'
p304
I01
sS'trim_primers'
p305
I00
ssS'properties'
p306
(dp307
S'fwd_trace_searchstr'
p308
S'_F.ab1'
p309
sS'rev_trace_searchstr'
p310
S'_R.ab1'
p311
sS'trace_file_dir'
p312
S'.'
p313
ss.