(dp0
S'items'
p1
(lp2
(dp3
S'fullcons'
p4
S'                            TGTGGTGCTGCAGTAGCTGCTGAGTCTTCTACAGGTACTTGGACAACAGTATGGACAGATGGTCTTACAAGTCTTGACCGTTACAAAGGTCGTTGTTACGACATCGAACCAGTTCCAGGTGAAGAAAATCAATATATTGCTTATGTTGCTTACCCTCTTGATCTTTTTGAAGAAGGTTCAGTAACAAACTTGTTTACTTCTATTGTAGGTAACGTTTTTGGTTTCAAAGCTCTTCGTGCACTACGTTTAGAAGATCTTCGTATTCCACCAGCATATGTAAAAACTTTCTCAGGTCCTCCTCACGGGATTCAAGTAGAACGTGATAAATTAAACAAATATGGTCGTGGTCTTCTTGGGTGTACAATTAAACCTAAATTAGGTCTTTCAGCTAAAAACTATGGTAGAGCTGTTTACGAGTGTCTACGTGGTGGTCTAGATTTCACGAAAGATGATGAAAACGTTAACTCACAACCATTCATGCGTTGGAGAGACCGTTTCCTTTTTGTTGCAGAAGCGATTTACAAATCACAATCAGAAACAGGTGAAGTTAAAGGGCATTATTTAAATGTTACAGCAGCTACATGTGAAGAAATGATGAAACGTGCGCAATTTGCTAAAGATCTTGGTATGCCAATTATTATGCACGATTATATTACAGGTGGTTTTACAGCTAACACATCATTAGCTTTATACTGTCGTGATAATGGTCTATTATTACATATTCACCGTGCTATGCACGCTGTTATTGACCGTCAAAGA  AACCATGGTATTCACTTCCGTGTATTAGCTAAA                        '
p5
sS'compactcons'
p6
S'TGTGGTGCTGCAGTAGCTGCTGAGTCTTCTACAGGTACTTGGACAACAGTATGGACAGATGGTCTTACAAGTCTTGACCGTTACAAAGGTCGTTGTTACGACATCGAACCAGTTCCAGGTGAAGAAAATCAATATATTGCTTATGTTGCTTACCCTCTTGATCTTTTTGAAGAAGGTTCAGTAACAAACTTGTTTACTTCTATTGTAGGTAACGTTTTTGGTTTCAAAGCTCTTCGTGCACTACGTTTAGAAGATCTTCGTATTCCACCAGCATATGTAAAAACTTTCTCAGGTCCTCCTCACGGGATTCAAGTAGAACGTGATAAATTAAACAAATATGGTCGTGGTCTTCTTGGGTGTACAATTAAACCTAAATTAGGTCTTTCAGCTAAAAACTATGGTAGAGCTGTTTACGAGTGTCTACGTGGTGGTCTAGATTTCACGAAAGATGATGAAAACGTTAACTCACAACCATTCATGCGTTGGAGAGACCGTTTCCTTTTTGTTGCAGAAGCGATTTACAAATCACAATCAGAAACAGGTGAAGTTAAAGGGCATTATTTAAATGTTACAGCAGCTACATGTGAAGAAATGATGAAACGTGCGCAATTTGCTAAAGATCTTGGTATGCCAATTATTATGCACGATTATATTACAGGTGGTTTTACAGCTAACACATCATTAGCTTTATACTGTCGTGATAATGGTCTATTATTACATATTCACCGTGCTATGCACGCTGTTATTGACCGTCAAAGAAACCATGGTATTCACTTCCGTGTATTAGCTAAA'
p7
sS'itemtype'
p8
S'frwdrev'
p9
sS'useseq'
p10
I01
sS'notes'
p11
S''
p12
sS'hasseq'
p13
I01
sS'children'
p14
(lp15
(dp16
g4
g12
sg6
g12
sg8
S'file'
p17
sg10
I00
sg11
g12
sg13
I00
sg14
(lp18
sS'isreverse'
p19
I00
sS'id'
p20
I37
sS'name'
p21
S'big_BUG1901_7-12L8-rbcL_bc1_F.ab1'
p22
sa(dp23
g4
g12
sg6
g12
sg8
S'file'
p24
sg10
I00
sg11
g12
sg13
I00
sg14
(lp25
sg19
I01
sg20
I36
sg21
S'big_BUG1901_7-12L8-rbcL_bc1_R.ab1'
p26
sasg19
I00
sg20
I38
sg21
S'big_BUG1901_7-12L8-rbcL_bc1_'
p27
sa(dp28
g4
S'                      GAATGTGGTGCTGCAGTAGCTGCTGAGTCTTCTACAGGTACTTGGACAACAGTATGGACAGATGGTCTTACAAGTCTTGACCGTTACAAAGGTCGTTGTTACGACATCGAACCAGTTCCAGGTGAAGAAAATCAATATATTGCTTATGTTGCTTACCCTCTTGATCTTTTTGAAGAAGGTTCAGTAACAAACTTGTTTACTTCTATTGTAGGTAACGTTTTTGGTTTCAAAGCTCTTCGTGCACTACGTTTAGAAGATCTTCGTATTCCACCAGCATATGTAAAAACTTTCTCAGGTCCTCCTCACGGGATTCAAGTAGAACGTGATAAATTAAACAAATATGGTCGTGGTCTTCTTGGGTGTACAATTAAACCTAAATTAGGTCTTTCAGCTAAAAACTATGGTAGAGCTGTTTACGAGTGTCTACGTGGTGGTCTAGATTTCACGAAAGATGATGAAAACGTTAACTCACAACCATTCATGCGTTGGAGAGACCGTTTCCTTTTTGTTGCAGAAGCGATTTACAAATCACAATCAGAAACAGGTGAAGTTAAAGGGCATTATTTAAATGTTACAGCAGCTACATGTGAAGAAATGATGAAACGTGCGCAATTTGCTAAAGATCTTGGTATGCCAATTATTATGCACGATTATATTACAGGTGGTTTTACAGCTAACACATCATTAGCTTTATACTGTCGTGATAATGGTCTATTATTACATATTCACCGTGCTATGCACGCTGTTATTGACCGTCAAAGAAACCATGGTATTCACTTCCGTGTATTAGCTAAAGCTCT                     '
p29
sg6
S'GAATGTGGTGCTGCAGTAGCTGCTGAGTCTTCTACAGGTACTTGGACAACAGTATGGACAGATGGTCTTACAAGTCTTGACCGTTACAAAGGTCGTTGTTACGACATCGAACCAGTTCCAGGTGAAGAAAATCAATATATTGCTTATGTTGCTTACCCTCTTGATCTTTTTGAAGAAGGTTCAGTAACAAACTTGTTTACTTCTATTGTAGGTAACGTTTTTGGTTTCAAAGCTCTTCGTGCACTACGTTTAGAAGATCTTCGTATTCCACCAGCATATGTAAAAACTTTCTCAGGTCCTCCTCACGGGATTCAAGTAGAACGTGATAAATTAAACAAATATGGTCGTGGTCTTCTTGGGTGTACAATTAAACCTAAATTAGGTCTTTCAGCTAAAAACTATGGTAGAGCTGTTTACGAGTGTCTACGTGGTGGTCTAGATTTCACGAAAGATGATGAAAACGTTAACTCACAACCATTCATGCGTTGGAGAGACCGTTTCCTTTTTGTTGCAGAAGCGATTTACAAATCACAATCAGAAACAGGTGAAGTTAAAGGGCATTATTTAAATGTTACAGCAGCTACATGTGAAGAAATGATGAAACGTGCGCAATTTGCTAAAGATCTTGGTATGCCAATTATTATGCACGATTATATTACAGGTGGTTTTACAGCTAACACATCATTAGCTTTATACTGTCGTGATAATGGTCTATTATTACATATTCACCGTGCTATGCACGCTGTTATTGACCGTCAAAGAAACCATGGTATTCACTTCCGTGTATTAGCTAAAGCTCT'
p30
sg8
S'frwdrev'
p31
sg10
I01
sg11
g12
sg13
I01
sg14
(lp32
(dp33
g4
g12
sg6
g12
sg8
S'file'
p34
sg10
I00
sg11
g12
sg13
I00
sg14
(lp35
sg19
I00
sg20
I35
sg21
S'big_BUG1902_7-21L1-rbcL_bc1_F.ab1'
p36
sa(dp37
g4
g12
sg6
g12
sg8
S'file'
p38
sg10
I00
sg11
g12
sg13
I00
sg14
(lp39
sg19
I01
sg20
I34
sg21
S'big_BUG1902_7-21L1-rbcL_bc1_R.ab1'
p40
sasg19
I00
sg20
I39
sg21
S'big_BUG1902_7-21L1-rbcL_bc1_'
p41
sa(dp42
g4
S'                           GGTGCNGCAGTAGCTGCTGAGTCTTCTACAGGTACTTGGACAACAGTATGGACAGATGGTCTTACAAGTCTTGACCGTTACAAAGGTCGTTGTTACGACATCGAACCAGTTCCAGGTGAAGAAAATCAATATATTGCTTATGTTGCTTACCCTCTTGATCTTTTTGAAGAAGGTTCAGTAACAAACTTGTTTACTTCTATTGTAGGTAACGTTTTTGGTTTCAAAGCTCTTCGTGCACTACGTTTAGAAGATCTTCGTATTCCACCAGCATATGTAAAAACTTTCTCAGGTCCTCCTCACGGGATTCAAGTAGAACGTGATAAATTAAACAAATATGGTCGTGGTCTTCTTGGGTGTACAATTAAACCTAAATTAGGTCTTTCAGCTAAAAACTATGGTAGAGCTGTTTACGAGTGTCTACGTGGTGGTCTAGATTTCACGAAAGATGATGAAAACGTTAACTCACAACCATTCATGCGTTGGAGAGACCGTTTCCTTTTTGTTGCAGAAGCGATTTACAAATCACAATCAGAAACAGGTGAAGTTAAAGGGCATTATTTAAATGTTACAGCAGCTACATGTGAAGAAATGATGAAACGCGCGCAATTTGCTAAAGATCTTGGTATGCCAATTATTATGCACGATTATATTACAGGTGGTTTTACAGCTAACACATCATTAGCTTTATACTGTCGTGATAATGGTCTATTATTACATATTCACCGTGCTATGCACGCTGTTATTGACCGTCAAAGAAACCATGGTATTCACTTCCGTGTATTAGCTAAAGCTCNNC                 '
p43
sg6
S'GGTGCNGCAGTAGCTGCTGAGTCTTCTACAGGTACTTGGACAACAGTATGGACAGATGGTCTTACAAGTCTTGACCGTTACAAAGGTCGTTGTTACGACATCGAACCAGTTCCAGGTGAAGAAAATCAATATATTGCTTATGTTGCTTACCCTCTTGATCTTTTTGAAGAAGGTTCAGTAACAAACTTGTTTACTTCTATTGTAGGTAACGTTTTTGGTTTCAAAGCTCTTCGTGCACTACGTTTAGAAGATCTTCGTATTCCACCAGCATATGTAAAAACTTTCTCAGGTCCTCCTCACGGGATTCAAGTAGAACGTGATAAATTAAACAAATATGGTCGTGGTCTTCTTGGGTGTACAATTAAACCTAAATTAGGTCTTTCAGCTAAAAACTATGGTAGAGCTGTTTACGAGTGTCTACGTGGTGGTCTAGATTTCACGAAAGATGATGAAAACGTTAACTCACAACCATTCATGCGTTGGAGAGACCGTTTCCTTTTTGTTGCAGAAGCGATTTACAAATCACAATCAGAAACAGGTGAAGTTAAAGGGCATTATTTAAATGTTACAGCAGCTACATGTGAAGAAATGATGAAACGCGCGCAATTTGCTAAAGATCTTGGTATGCCAATTATTATGCACGATTATATTACAGGTGGTTTTACAGCTAACACATCATTAGCTTTATACTGTCGTGATAATGGTCTATTATTACATATTCACCGTGCTATGCACGCTGTTATTGACCGTCAAAGAAACCATGGTATTCACTTCCGTGTATTAGCTAAAGCTCNNC'
p44
sg8
S'frwdrev'
p45
sg10
I01
sg11
g12
sg13
I01
sg14
(lp46
(dp47
g4
g12
sg6
g12
sg8
S'file'
p48
sg10
I00
sg11
g12
sg13
I00
sg14
(lp49
sg19
I00
sg20
I33
sg21
S'big_WED2206_7-26L2-rbcL_bc1_F.ab1'
p50
sa(dp51
g4
g12
sg6
g12
sg8
S'file'
p52
sg10
I00
sg11
g12
sg13
I00
sg14
(lp53
sg19
I01
sg20
I32
sg21
S'big_WED2206_7-26L2-rbcL_bc1_R.ab1'
p54
sasg19
I00
sg20
I40
sg21
S'big_WED2206_7-26L2-rbcL_bc1_'
p55
sa(dp56
g4
S'                                        ATAAAGGTCGTTGTTATGATATCGAACCAGTTGCAGGTGAAGAAAACCAGTACATTGCTTATGTTGCTTACCCAATCGACTTATTTGAAGAAGGTTCTGTAACTAACTTATTCACGTCAATTGTTGGTAACGTTTTTGGTTTCAAAGCTCTTCGTGCTCTACGTCTTGAAGATTTACGTATTTCTTGTGCGTATGCTAAAACATTCCAAGGACCTCCTCATGGTATCCAAGTTGAACGTGACAAATTAAACAAATACGGACGTGGTCTTTTAGGCTGTACAATCAAACCTAAATTAGGTCTTTCAGCTAAAAACTATGGTCGTGCTGTTTACGAATGTTTACGTGGTGGTTTAGACTTTACAAAAGATGATGAAAACGTAACATCTCAAGCTTTCATGCGTTGGAGAGACCGTTTTATCTTCGTTGCTGAAGCGATTTACAAATCTCAAGCTGAAACTGGTGAAATTAAAGGTCACTATTTAAACGTAACTGCGGGTACGAGCGAAGAAATGCTAAAACGTGCAGAAGTAGCTAAAGATTTAGGGGTACCAATCATCATGCATGACTACTTAACTGGTGGTTTAACTGCAAACACTTCATTAGCACACTACTGTCGTGACAACGGTCTATTACTACACATTCACAGAGCTATGCACGCGGTTATTGACCGTCAAAGAAACCACGGTATCCATTTCCGTGTTTTAGCTAAAGCTCTTCGTCTGTCAGGTGGTGACCACCTTCACTCAGGAACAGTTGTAGGTAAACTAGAAGGAGAACGTGAAGTTACTCTTGGTTTCGTTGATTTAATGCGTGACGAATATATCGAAAAAGACCGTAGCCGTGGTATTTANTTCACACAAGAC                                                '
p57
sg6
S'ATAAAGGTCGTTGTTATGATATCGAACCAGTTGCAGGTGAAGAAAACCAGTACATTGCTTATGTTGCTTACCCAATCGACTTATTTGAAGAAGGTTCTGTAACTAACTTATTCACGTCAATTGTTGGTAACGTTTTTGGTTTCAAAGCTCTTCGTGCTCTACGTCTTGAAGATTTACGTATTTCTTGTGCGTATGCTAAAACATTCCAAGGACCTCCTCATGGTATCCAAGTTGAACGTGACAAATTAAACAAATACGGACGTGGTCTTTTAGGCTGTACAATCAAACCTAAATTAGGTCTTTCAGCTAAAAACTATGGTCGTGCTGTTTACGAATGTTTACGTGGTGGTTTAGACTTTACAAAAGATGATGAAAACGTAACATCTCAAGCTTTCATGCGTTGGAGAGACCGTTTTATCTTCGTTGCTGAAGCGATTTACAAATCTCAAGCTGAAACTGGTGAAATTAAAGGTCACTATTTAAACGTAACTGCGGGTACGAGCGAAGAAATGCTAAAACGTGCAGAAGTAGCTAAAGATTTAGGGGTACCAATCATCATGCATGACTACTTAACTGGTGGTTTAACTGCAAACACTTCATTAGCACACTACTGTCGTGACAACGGTCTATTACTACACATTCACAGAGCTATGCACGCGGTTATTGACCGTCAAAGAAACCACGGTATCCATTTCCGTGTTTTAGCTAAAGCTCTTCGTCTGTCAGGTGGTGACCACCTTCACTCAGGAACAGTTGTAGGTAAACTAGAAGGAGAACGTGAAGTTACTCTTGGTTTCGTTGATTTAATGCGTGACGAATATATCGAAAAAGACCGTAGCCGTGGTATTTANTTCACACAAGAC'
p58
sg8
S'frwdrev'
p59
sg10
I01
sg11
g12
sg13
I01
sg14
(lp60
(dp61
g4
g12
sg6
g12
sg8
S'file'
p62
sg10
I00
sg11
g12
sg13
I00
sg14
(lp63
sg19
I00
sg20
I31
sg21
S'callous_BLU1901_8-19L2-remiasii_rbcL_F.ab1'
p64
sa(dp65
g4
g12
sg6
g12
sg8
S'file'
p66
sg10
I00
sg11
g12
sg13
I00
sg14
(lp67
sg19
I01
sg20
I30
sg21
S'callous_BLU1901_8-19L2-remiasii_rbcL_R.ab1'
p68
sasg19
I00
sg20
I41
sg21
S'callous_BLU1901_8-19L2-remiasii_rbcL_'
p69
sa(dp70
g4
S'                               TNNCAAAGGTCGTTGTTATGATATCGAACCAGTTGCTGGTGAAGAAAACCAATACATCGCTTACGTTGCTTATCCTATTGACCTTTTTGAAGAAGGTTCTGTAACTAACTTATTTACATCTATTGTAGGTAACGTTTTTGGTTTCAAAGCTCTTCGTGCTTTACGTCTTGAAGATTTACGTATTTCTTGTGCATACGCTAAAACATTCCAAGGACCTCCTCACGGGATCCAAGTAGAACGTGACAAATTAAACAAATATGGTCGTGGTCTTTTAGGTTGTACAATTAAACCTAAATTAGGTTTATCAGCTAAAAACTATGGTCGTGCAGTTTACGAATGTTTACGTGGTGGGTTAGATTTCACAAAAGATGATGAAAATGTTACAAGCCAAGCTTTCATGCGTTGGAGAGACCGTTTTATTTTTGTAGCAGAAGCGCTTTACAAATCTCAAGCTGAAACAGGTGAAATTAAAGGACATTATTTAAACGTTACTGCTGGAACGTCTGAAGAAATGCTAAAAAGAGCTGAAGTAGCTAAAGATTTAGGGGTACCTATTATTATGCATGACTATCTAACAGGTGGTCTTACTGCTAACACTTCATTAGCTCACTACTGTCGTGACAATGGTCTATTATTACACATTCACAGAGCAATGCACGCGGTTATTGACCGTCAAAGAAACCACGGGATTCACTTCCGTGTATTAGCAAAAGCTCTTCGTTTATCTGGTGGGGACCATCTTCACTCAGGAACTGTTGTAGGAAAACTAGAAGGTGAACGAGAAGTTACTTTAGGTTTNGTTGATTTAATGAGAGACGAATATATCGAAAAAGATCGTAGCCGTGGTA                       '
p71
sg6
S'TNNCAAAGGTCGTTGTTATGATATCGAACCAGTTGCTGGTGAAGAAAACCAATACATCGCTTACGTTGCTTATCCTATTGACCTTTTTGAAGAAGGTTCTGTAACTAACTTATTTACATCTATTGTAGGTAACGTTTTTGGTTTCAAAGCTCTTCGTGCTTTACGTCTTGAAGATTTACGTATTTCTTGTGCATACGCTAAAACATTCCAAGGACCTCCTCACGGGATCCAAGTAGAACGTGACAAATTAAACAAATATGGTCGTGGTCTTTTAGGTTGTACAATTAAACCTAAATTAGGTTTATCAGCTAAAAACTATGGTCGTGCAGTTTACGAATGTTTACGTGGTGGGTTAGATTTCACAAAAGATGATGAAAATGTTACAAGCCAAGCTTTCATGCGTTGGAGAGACCGTTTTATTTTTGTAGCAGAAGCGCTTTACAAATCTCAAGCTGAAACAGGTGAAATTAAAGGACATTATTTAAACGTTACTGCTGGAACGTCTGAAGAAATGCTAAAAAGAGCTGAAGTAGCTAAAGATTTAGGGGTACCTATTATTATGCATGACTATCTAACAGGTGGTCTTACTGCTAACACTTCATTAGCTCACTACTGTCGTGACAATGGTCTATTATTACACATTCACAGAGCAATGCACGCGGTTATTGACCGTCAAAGAAACCACGGGATTCACTTCCGTGTATTAGCAAAAGCTCTTCGTTTATCTGGTGGGGACCATCTTCACTCAGGAACTGTTGTAGGAAAACTAGAAGGTGAACGAGAAGTTACTTTAGGTTTNGTTGATTTAATGAGAGACGAATATATCGAAAAAGATCGTAGCCGTGGTA'
p72
sg8
S'frwdrev'
p73
sg10
I01
sg11
g12
sg13
I01
sg14
(lp74
(dp75
g4
g12
sg6
g12
sg8
S'file'
p76
sg10
I00
sg11
g12
sg13
I00
sg14
(lp77
sg19
I00
sg20
I57
sg21
S'callous_DOG1906_7-12L7-remiasii_rbcL_F.ab1'
p78
sa(dp79
g4
g12
sg6
g12
sg8
S'file'
p80
sg10
I00
sg11
g12
sg13
I00
sg14
(lp81
sg19
I01
sg20
I28
sg21
S'callous_DOG1906_7-12L7-remiasii_rbcL_R.ab1'
p82
sasg19
I00
sg20
I58
sg21
S'callous_DOG1906_7-12L7-remiasii_rbcL_'
p83
sa(dp84
g4
S'                                     TACAAAGGTCGTTGTTATGATATCGAACCAGTTGCTGGTGAAGAAAACCAATACATCGCTTACGTTGCTTATCCTATTGACCTTTTTGAAG AAGGTTCTGTAACTAACTTATTTACATCTATTGTAGGTAACGTTTTTGGTTTCAAAGCTCTTCGTGCTTTACGTCTTGAAGATTTACGTATTTCTTGTGCATACGCTAAAACATTCCAAGGACCTCCTCACGGGATCCAAGTAGAACGTGACAAATTAAACAAATATGGTCGTGGTCTTTTAGGTTGTACAATTAAACCTAAATTAGGTTTATCAGCTAAAAACTATGGTCGTGCAGTTTACGAATGTTTACGTGGTGGATTAGATTTCACAAAAGATGATGAAAATGTTACAAGCCAAGCTTTCATGCGTTGGAGAGACCGTTTTATTTTTGTAGCAGAAGCTCTTTACAAAGCTCAAGCTGAAACAGGTGAAATTAAAGGACATTATTTAAACGTTACTGCTGGAACGTCTGAAGAAATGATGAAAAGAGCTGAAGTAGCTAAAGATTTAGGGGTACCTATTATTATGCATGACTATCTAACAGGTGGTCTTACTGCTAACACTTCATTAGCTCACTACTGTCGTGACAATGGTCTATTATTACACATTCACAGAGCAATGCACGCGGTTATTGACCGTCAAAGAAACCACGGGATTCACTTCCGTGTATTAGCAAAAGCTCTTCGTTTATCTGGTGGGGACCATCTTCACTCAGGAACTGTTGTAGGAAAACTAGAAGGTGAACGTGAAGTTACTTTAGGTTTCGTTGATTTAATGAGAGACGAATATATCGAAAAAGACCGTAGCCGTGGTANTTACTTCACTCAAGANTGGNG                                           '
p85
sg6
S'TACAAAGGTCGTTGTTATGATATCGAACCAGTTGCTGGTGAAGAAAACCAATACATCGCTTACGTTGCTTATCCTATTGACCTTTTTGAAGAAGGTTCTGTAACTAACTTATTTACATCTATTGTAGGTAACGTTTTTGGTTTCAAAGCTCTTCGTGCTTTACGTCTTGAAGATTTACGTATTTCTTGTGCATACGCTAAAACATTCCAAGGACCTCCTCACGGGATCCAAGTAGAACGTGACAAATTAAACAAATATGGTCGTGGTCTTTTAGGTTGTACAATTAAACCTAAATTAGGTTTATCAGCTAAAAACTATGGTCGTGCAGTTTACGAATGTTTACGTGGTGGATTAGATTTCACAAAAGATGATGAAAATGTTACAAGCCAAGCTTTCATGCGTTGGAGAGACCGTTTTATTTTTGTAGCAGAAGCTCTTTACAAAGCTCAAGCTGAAACAGGTGAAATTAAAGGACATTATTTAAACGTTACTGCTGGAACGTCTGAAGAAATGATGAAAAGAGCTGAAGTAGCTAAAGATTTAGGGGTACCTATTATTATGCATGACTATCTAACAGGTGGTCTTACTGCTAACACTTCATTAGCTCACTACTGTCGTGACAATGGTCTATTATTACACATTCACAGAGCAATGCACGCGGTTATTGACCGTCAAAGAAACCACGGGATTCACTTCCGTGTATTAGCAAAAGCTCTTCGTTTATCTGGTGGGGACCATCTTCACTCAGGAACTGTTGTAGGAAAACTAGAAGGTGAACGTGAAGTTACTTTAGGTTTCGTTGATTTAATGAGAGACGAATATATCGAAAAAGACCGTAGCCGTGGTANTTACTTCACTCAAGANTGGNG'
p86
sg8
S'frwdrev'
p87
sg10
I01
sg11
g12
sg13
I01
sg14
(lp88
(dp89
g4
g12
sg6
g12
sg8
S'file'
p90
sg10
I00
sg11
g12
sg13
I00
sg14
(lp91
sg19
I00
sg20
I27
sg21
S'cog_GAR1930_7-12L1-remiasii_rbcL_F.ab1'
p92
sa(dp93
g4
g12
sg6
g12
sg8
S'file'
p94
sg10
I00
sg11
g12
sg13
I00
sg14
(lp95
sg19
I01
sg20
I26
sg21
S'cog_GAR1930_7-12L1-remiasii_rbcL_R.ab1'
p96
sasg19
I00
sg20
I43
sg21
S'cog_GAR1930_7-12L1-remiasii_rbcL_'
p97
sa(dp98
g4
S'                                   CCGTTATAAAGGTCGTTGTTATGATATCGAACCAGTTGCAGGTGAAGAAAACCAGTACATTGCTTATGTTGCTTACCCAATCGACTTATTTGAAGAAGGTTCTGTAACTAACTTATTCACGTCAATTGTTGGTAACGTTTTTGGTTTCAAAGCTCTTCGTGCTCTACGTCTTGAAGATTTACGTATTTCTTGTGCGTATGCTAAAACATTCCAAGGACCTCCTCATGGTATCCAAGTAGAACGTGACAAATTAAACAAATACGGACGTGGTCTTTTAGGCTGTACAATCAAACCTAAATTAGGTCTTTCAGCTAAAAACTATGGTCGTGCTGTTTACGAATGTTTACGTGGTGGTTTAGACTTTACAAAAGATGATGAAAACGTAACATCTCAAGCTTTCATGCGTTGGAGAGACCGTTTTATCTTCGTTGCTGAAGCGATTTACAAATCTCAAGCTGAAACTGGTGAAATTAAAGGTCACTATTTAAACGTAACTGCGGGTACGAGCGAAGAAATGCTAAAACGTGCAGAAGTAGCTAAAGATTTAGGGGTACCAATCATCATGCATGACTACTTAACTGGTGGTTTAACTGCAAACACTTCATTAGCACACTACTGTCGTGACAACGGTCTATTACTACACATTCACAGAGCTATGCACGCGGTTATTGACCGTCAAAGAAACCACGGTATCCATTTCCGTGTTTTAGCTAAAGCTCTTCGTCTGTCAGGTGGTGACCACCTTCACTCAGGAACAGTTGTAGGTAAACTAGAAGGAGAACGTGAAGTTACTCTTGGTTTCGTTGATTTAATGCGTGACGAATATATCGAAAAAGACCGTAGCCGTGGTATTTATTTCACACAAGANTNGTGTGGTTTANN                                '
p99
sg6
S'CCGTTATAAAGGTCGTTGTTATGATATCGAACCAGTTGCAGGTGAAGAAAACCAGTACATTGCTTATGTTGCTTACCCAATCGACTTATTTGAAGAAGGTTCTGTAACTAACTTATTCACGTCAATTGTTGGTAACGTTTTTGGTTTCAAAGCTCTTCGTGCTCTACGTCTTGAAGATTTACGTATTTCTTGTGCGTATGCTAAAACATTCCAAGGACCTCCTCATGGTATCCAAGTAGAACGTGACAAATTAAACAAATACGGACGTGGTCTTTTAGGCTGTACAATCAAACCTAAATTAGGTCTTTCAGCTAAAAACTATGGTCGTGCTGTTTACGAATGTTTACGTGGTGGTTTAGACTTTACAAAAGATGATGAAAACGTAACATCTCAAGCTTTCATGCGTTGGAGAGACCGTTTTATCTTCGTTGCTGAAGCGATTTACAAATCTCAAGCTGAAACTGGTGAAATTAAAGGTCACTATTTAAACGTAACTGCGGGTACGAGCGAAGAAATGCTAAAACGTGCAGAAGTAGCTAAAGATTTAGGGGTACCAATCATCATGCATGACTACTTAACTGGTGGTTTAACTGCAAACACTTCATTAGCACACTACTGTCGTGACAACGGTCTATTACTACACATTCACAGAGCTATGCACGCGGTTATTGACCGTCAAAGAAACCACGGTATCCATTTCCGTGTTTTAGCTAAAGCTCTTCGTCTGTCAGGTGGTGACCACCTTCACTCAGGAACAGTTGTAGGTAAACTAGAAGGAGAACGTGAAGTTACTCTTGGTTTCGTTGATTTAATGCGTGACGAATATATCGAAAAAGACCGTAGCCGTGGTATTTATTTCACACAAGANTNGTGTGGTTTANN'
p100
sg8
S'frwdrev'
p101
sg10
I01
sg11
g12
sg13
I01
sg14
(lp102
(dp103
g4
g12
sg6
g12
sg8
S'file'
p104
sg10
I00
sg11
g12
sg13
I00
sg14
(lp105
sg19
I00
sg20
I25
sg21
S'devil_ICE2001_5-18T2DUP-remiasii_rbcL_F.ab1'
p106
sa(dp107
g4
g12
sg6
g12
sg8
S'file'
p108
sg10
I00
sg11
g12
sg13
I00
sg14
(lp109
sg19
I01
sg20
I24
sg21
S'devil_ICE2001_5-18T2DUP-remiasii_rbcL_R.ab1'
p110
sasg19
I00
sg20
I44
sg21
S'devil_ICE2001_5-18T2DUP-remiasii_rbcL_'
p111
sa(dp112
g4
S'                                  NNAAGGTCGTTGTTATGATATCGAACCAGTTGCAGGTGAAGAAAACCAGTACATTGCTTATGTTGCTTACCCAATCGACTTATTTGAAGAAGGTTCTGTAACTAACTTATTCACGTCAATTGTTGGTAACGTTTTTGGTTTCAAAGCTCTTCGTGCTCTACGTCTTGAAGATTTACGTATTTCTTGTGCGTATGCTAAAACATTCCAAGGACCTCCTCATGGTATCCAAGTAGAACGTGACAAATTAAACAAATACGGACGTGGTCTTTTAGGCTGTACAATCAAACCTAAATTAGGTCTTTCAGCTAAAAACTATGGTCGTGCTGTTTACGAATGTTTACGTGGTGGTTTAGACTTTACAAAAGATGATGAAAACGTAACATCTCAAGCTTTCATGCGTTGGAGAGACCGTTTTATCTTCGTTGCTGAAGCGATTTACAAATCTCAAGCTGAAACTGGTGAAATTAAAGGTCACTATTTAAACGTAACTGCGGGTACGAGCGAAGAAATGCTAAAACGTGCAGAAGTAGCTAAAGATTTAGGGGTACCAATCATCATGCATGACTACTTAACTGGTGGTTTAACTGCAAACACTTCATTAGCACACTACTGTCGTGACAACGGTCTATTACTACACATTCACAGAGCTATGCACGCGGTTATTGACCGTCAAAGAAACCACGGTATCCATTTCCGTGTTTTAGCTAAAGCTCTTCGTCTGTCAGGTGGTGACCACCTTCACTCAGGAACAGTTGTAGGTAAACTAGAAGGAGAACGTGAAGTTACTCTT GGTTTCGTTGATTTAATGCGTGACGAATATATCGAAAAAGACCGTAGCCGTGGTANNTATTTCACACNN                                            '
p113
sg6
S'NNAAGGTCGTTGTTATGATATCGAACCAGTTGCAGGTGAAGAAAACCAGTACATTGCTTATGTTGCTTACCCAATCGACTTATTTGAAGAAGGTTCTGTAACTAACTTATTCACGTCAATTGTTGGTAACGTTTTTGGTTTCAAAGCTCTTCGTGCTCTACGTCTTGAAGATTTACGTATTTCTTGTGCGTATGCTAAAACATTCCAAGGACCTCCTCATGGTATCCAAGTAGAACGTGACAAATTAAACAAATACGGACGTGGTCTTTTAGGCTGTACAATCAAACCTAAATTAGGTCTTTCAGCTAAAAACTATGGTCGTGCTGTTTACGAATGTTTACGTGGTGGTTTAGACTTTACAAAAGATGATGAAAACGTAACATCTCAAGCTTTCATGCGTTGGAGAGACCGTTTTATCTTCGTTGCTGAAGCGATTTACAAATCTCAAGCTGAAACTGGTGAAATTAAAGGTCACTATTTAAACGTAACTGCGGGTACGAGCGAAGAAATGCTAAAACGTGCAGAAGTAGCTAAAGATTTAGGGGTACCAATCATCATGCATGACTACTTAACTGGTGGTTTAACTGCAAACACTTCATTAGCACACTACTGTCGTGACAACGGTCTATTACTACACATTCACAGAGCTATGCACGCGGTTATTGACCGTCAAAGAAACCACGGTATCCATTTCCGTGTTTTAGCTAAAGCTCTTCGTCTGTCAGGTGGTGACCACCTTCACTCAGGAACAGTTGTAGGTAAACTAGAAGGAGAACGTGAAGTTACTCTTGGTTTCGTTGATTTAATGCGTGACGAATATATCGAAAAAGACCGTAGCCGTGGTANNTATTTCACACNN'
p114
sg8
S'frwdrev'
p115
sg10
I01
sg11
g12
sg13
I01
sg14
(lp116
(dp117
g4
g12
sg6
g12
sg8
S'file'
p118
sg10
I00
sg11
g12
sg13
I00
sg14
(lp119
sg19
I00
sg20
I23
sg21
S'devil_ICE2001_5-18T2-remiasii_rbcL_F.ab1'
p120
sa(dp121
g4
g12
sg6
g12
sg8
S'file'
p122
sg10
I00
sg11
g12
sg13
I00
sg14
(lp123
sg19
I01
sg20
I22
sg21
S'devil_ICE2001_5-18T2-remiasii_rbcL_R.ab1'
p124
sasg19
I00
sg20
I45
sg21
S'devil_ICE2001_5-18T2-remiasii_rbcL_'
p125
sa(dp126
g4
S'                                        NNGTTGTTATGATATCGANCCAGTTGCAGGTGAAGAAAACCAGTACATTGCTTACGTTGCTTACCCTATCGACTTATTTGAAGAAGGTTCTGTAACTAACTTATTCACGTCAATTGTTGGTAACGTTTTTGGTTTCAAAGCTCTTCGTGCTCTTCGTCTTGAAGATTTACGTATTTCTTGTGCTTATGCTAAAACATTCCAAGGACCTCCTCATGGTATCCAAGTAGAACGTGACAAATTAAACAAATACGGACGTGGTCTTTTAGGCTGTACAATCAAACCTAAATTAGGTCTTTCAGCTAAAAACTATGGTCGTGCAGTTTACGAATGTTTACGTGGTGGTTTAGACTTTACAAAAGACGATGAAAACGTAACATCTCAAGCTTTCATGCGTTGGAGAGACCGTTTCATTTTCGTTGCTGAAGCGATTTACAAATCTCAAGCTGAAACTGGCGAAATTAAAGGTCACTACCTAAACGTAACTGCAGGTACATCTGAAGAAATGCTAAAACGTGCTGAAGTAGCTAAAGATTTAGGGGTACCAATCATCATGCATGACTACTTAACAGGTGGTTTAACTGCAAACACTTCATTAGCTCACTACTGTCGTGACAACGGTCTATTACTTCACATTCACAGAGCTATGCACGCGGTTATTGACCGTCAAAGAAACCACGGTATCCATTTCCGTGTTTTAGCTAAAGCTCTTCGTCTGTCAGGTGGTGACCACCTTCACTCAGGAACAGTTGTAGGTAAACTAGAAGGGGAACGTGAAGTTACTCTTGGTTTCGTTGATTTAATGCGTGACGAATACATCGAAAAAGACCGTAGCCGTGGTATTTATTTCACACAAG                                        '
p127
sg6
S'NNGTTGTTATGATATCGANCCAGTTGCAGGTGAAGAAAACCAGTACATTGCTTACGTTGCTTACCCTATCGACTTATTTGAAGAAGGTTCTGTAACTAACTTATTCACGTCAATTGTTGGTAACGTTTTTGGTTTCAAAGCTCTTCGTGCTCTTCGTCTTGAAGATTTACGTATTTCTTGTGCTTATGCTAAAACATTCCAAGGACCTCCTCATGGTATCCAAGTAGAACGTGACAAATTAAACAAATACGGACGTGGTCTTTTAGGCTGTACAATCAAACCTAAATTAGGTCTTTCAGCTAAAAACTATGGTCGTGCAGTTTACGAATGTTTACGTGGTGGTTTAGACTTTACAAAAGACGATGAAAACGTAACATCTCAAGCTTTCATGCGTTGGAGAGACCGTTTCATTTTCGTTGCTGAAGCGATTTACAAATCTCAAGCTGAAACTGGCGAAATTAAAGGTCACTACCTAAACGTAACTGCAGGTACATCTGAAGAAATGCTAAAACGTGCTGAAGTAGCTAAAGATTTAGGGGTACCAATCATCATGCATGACTACTTAACAGGTGGTTTAACTGCAAACACTTCATTAGCTCACTACTGTCGTGACAACGGTCTATTACTTCACATTCACAGAGCTATGCACGCGGTTATTGACCGTCAAAGAAACCACGGTATCCATTTCCGTGTTTTAGCTAAAGCTCTTCGTCTGTCAGGTGGTGACCACCTTCACTCAGGAACAGTTGTAGGTAAACTAGAAGGGGAACGTGAAGTTACTCTTGGTTTCGTTGATTTAATGCGTGACGAATACATCGAAAAAGACCGTAGCCGTGGTATTTATTTCACACAAG'
p128
sg8
S'frwdrev'
p129
sg10
I01
sg11
g12
sg13
I01
sg14
(lp130
(dp131
g4
g12
sg6
g12
sg8
S'file'
p132
sg10
I00
sg11
g12
sg13
I00
sg14
(lp133
sg19
I00
sg20
I21
sg21
S'envelope_GAR1930_7-12L2-remiasii_rbcL_F.ab1'
p134
sa(dp135
g4
g12
sg6
g12
sg8
S'file'
p136
sg10
I00
sg11
g12
sg13
I00
sg14
(lp137
sg19
I01
sg20
I20
sg21
S'envelope_GAR1930_7-12L2-remiasii_rbcL_R.ab1'
p138
sasg19
I00
sg20
I46
sg21
S'envelope_GAR1930_7-12L2-remiasii_rbcL_'
p139
sa(dp140
g4
S'                                 TACAAAGGTCGTTGTTATGATATCGAACCAGTTGCTGGTGAAGAAAACCAATACATCGCTTACGTTGCTTATCCTATTGACCTTTTTGAAGAAGGTTCTGTAACTAACTTATTTACATCTATTGTAGGTAACGTTTTTGGTTTCAAAGCTCTTCGTGCTTTACGTCTTGAAGATTTACGTATTTCTTGTGCATACGCTAAAACATTCCAAGGACCTCCTCACGGGATCCAAGTAGAACGTGACAAATTAAACAAATATGGTCGTGGTCTTTTAGGTTGTACAATTAAACCTAAATTAGGTTTATCAGCTAAAAACTATGGTCGTGCAGTTTACGAATGTTTACGTGGTGGATTAGATTTCACAAAAGATGATGAAAATGTTACAAGCCAAGCTTTCATGCGTTGGAGAGACCGTTTTATTTTTGTAGCAGAAGCTCTTTACAAAGCTCAAGCTGAAACAGGTGAAATTAAAGGACATTATTTAAACGTTACTGCTGGAACGTCTGAAGAAATGATGAAAAGAGCTGAAGTAGCTAAAGATTTAGGGGTACCTATTATTATGCATGACTATCTAACAGGTGGTCTTACTGCTAACACTTCATTAGCTCACTACTGTCGTGACAATGGTCTATTATTACACATTCACAGAGCAATGCACGCGGTTATTGACCGTCAAAGAAACCACGGGATTCACTTCCGTGTATTAGCAAAAGCTCTTCGTTTATCTGGTGGGGACCATCTTCACTCAGGAACTGTTGTAGGAAAACTAGAAGGTGAACGTGAAGTTACTTTAGGTTTCGTTGATTTAATGAGAGACGAATATATCGAAAAAGACCGTAGCCGTGGTATTTACTTCACTCAAGATTGN                                          '
p141
sg6
S'TACAAAGGTCGTTGTTATGATATCGAACCAGTTGCTGGTGAAGAAAACCAATACATCGCTTACGTTGCTTATCCTATTGACCTTTTTGAAGAAGGTTCTGTAACTAACTTATTTACATCTATTGTAGGTAACGTTTTTGGTTTCAAAGCTCTTCGTGCTTTACGTCTTGAAGATTTACGTATTTCTTGTGCATACGCTAAAACATTCCAAGGACCTCCTCACGGGATCCAAGTAGAACGTGACAAATTAAACAAATATGGTCGTGGTCTTTTAGGTTGTACAATTAAACCTAAATTAGGTTTATCAGCTAAAAACTATGGTCGTGCAGTTTACGAATGTTTACGTGGTGGATTAGATTTCACAAAAGATGATGAAAATGTTACAAGCCAAGCTTTCATGCGTTGGAGAGACCGTTTTATTTTTGTAGCAGAAGCTCTTTACAAAGCTCAAGCTGAAACAGGTGAAATTAAAGGACATTATTTAAACGTTACTGCTGGAACGTCTGAAGAAATGATGAAAAGAGCTGAAGTAGCTAAAGATTTAGGGGTACCTATTATTATGCATGACTATCTAACAGGTGGTCTTACTGCTAACACTTCATTAGCTCACTACTGTCGTGACAATGGTCTATTATTACACATTCACAGAGCAATGCACGCGGTTATTGACCGTCAAAGAAACCACGGGATTCACTTCCGTGTATTAGCAAAAGCTCTTCGTTTATCTGGTGGGGACCATCTTCACTCAGGAACTGTTGTAGGAAAACTAGAAGGTGAACGTGAAGTTACTTTAGGTTTCGTTGATTTAATGAGAGACGAATATATCGAAAAAGACCGTAGCCGTGGTATTTACTTCACTCAAGATTGN'
p142
sg8
S'frwdrev'
p143
sg10
I01
sg11
g12
sg13
I01
sg14
(lp144
(dp145
g4
g12
sg6
g12
sg8
S'file'
p146
sg10
I00
sg11
g12
sg13
I00
sg14
(lp147
sg19
I00
sg20
I19
sg21
S'envelope_GAR1930_7-12L4-remiasii_rbcL_F.ab1'
p148
sa(dp149
g4
g12
sg6
g12
sg8
S'file'
p150
sg10
I00
sg11
g12
sg13
I00
sg14
(lp151
sg19
I01
sg20
I18
sg21
S'envelope_GAR1930_7-12L4-remiasii_rbcL_R.ab1'
p152
sasg19
I00
sg20
I47
sg21
S'envelope_GAR1930_7-12L4-remiasii_rbcL_'
p153
sa(dp154
g4
S'                           CCGTTNCAAAGGTCGTTGTTATGATATCGAACCAGTTGCTGGTGAAGAAAACCAATACATCGCTTACGTTGCTTATCCTATTGACCTTTTTGAAGAAGGTTCTGTAACTAACTTATTTACATCTATTGTAGGTAACGTTTTTGGTTTCAAAGCTCTTCGTGCTTTACGTCTTGAAGATTTACGTATTTCTTGTGCATACGCTAAAACATTCCAAGGACCTCCTCACGGGATCCAAGTAGAACGTGACAAATTAAACAAATATGGTCGTGGTCTTTTAGGTTGTACAATTAAACCTAAATTAGGTTTATCAGCTAAAAACTATGGTCGTGCAGTTTACGAATGTTTACGTGGTGGATTAGATTTCACAAAAGATGATGAAAATGTTACAAGCCAAGCTTTCATGCGTTGGAGAGACCGTTTTATTTTTGTAGCAGAAGCTCTTTACAAAGCTCAAGCTGAAACAGGTGAAATTAAAGGACATTATTTAAACGTTACTGCTGGAACGTCTGAAGAAATGATGAAAAGAGCTGAAGTAGCTAAAGATTTAGGGGTACCTATTATTATGCATGACTATCTAACAGGTGGTCTTACTGCTAACACTTCATTAGCTCACTACTGTCGTGACAATGGTCTATTATTACACATTCACAGAGCAATGCACGCGGTTATTGACCGTCAAAGAAACCACGGGATTCACTTCCGTGTATTAGCAAAAGCTCTTCGTTTATCTGGTGGGGACCATCTTCACTCAGGAACTGTTGTAGGAAAACTAGAAGGTGAACGTGAAGTTACTTTAGGTTTCGTTGATTTAATGAGAGACGAATATATCGAAAAAGACCGTAGCCGTGGTATTTACTTCACTCAAGAT                                        '
p155
sg6
S'CCGTTNCAAAGGTCGTTGTTATGATATCGAACCAGTTGCTGGTGAAGAAAACCAATACATCGCTTACGTTGCTTATCCTATTGACCTTTTTGAAGAAGGTTCTGTAACTAACTTATTTACATCTATTGTAGGTAACGTTTTTGGTTTCAAAGCTCTTCGTGCTTTACGTCTTGAAGATTTACGTATTTCTTGTGCATACGCTAAAACATTCCAAGGACCTCCTCACGGGATCCAAGTAGAACGTGACAAATTAAACAAATATGGTCGTGGTCTTTTAGGTTGTACAATTAAACCTAAATTAGGTTTATCAGCTAAAAACTATGGTCGTGCAGTTTACGAATGTTTACGTGGTGGATTAGATTTCACAAAAGATGATGAAAATGTTACAAGCCAAGCTTTCATGCGTTGGAGAGACCGTTTTATTTTTGTAGCAGAAGCTCTTTACAAAGCTCAAGCTGAAACAGGTGAAATTAAAGGACATTATTTAAACGTTACTGCTGGAACGTCTGAAGAAATGATGAAAAGAGCTGAAGTAGCTAAAGATTTAGGGGTACCTATTATTATGCATGACTATCTAACAGGTGGTCTTACTGCTAACACTTCATTAGCTCACTACTGTCGTGACAATGGTCTATTATTACACATTCACAGAGCAATGCACGCGGTTATTGACCGTCAAAGAAACCACGGGATTCACTTCCGTGTATTAGCAAAAGCTCTTCGTTTATCTGGTGGGGACCATCTTCACTCAGGAACTGTTGTAGGAAAACTAGAAGGTGAACGTGAAGTTACTTTAGGTTTCGTTGATTTAATGAGAGACGAATATATCGAAAAAGACCGTAGCCGTGGTATTTACTTCACTCAAGAT'
p156
sg8
S'frwdrev'
p157
sg10
I01
sg11
g12
sg13
I01
sg14
(lp158
(dp159
g4
g12
sg6
g12
sg8
S'file'
p160
sg10
I00
sg11
g12
sg13
I00
sg14
(lp161
sg19
I00
sg20
I17
sg21
S'gear_PAN1918_5-25L3-remiasii_rbcL_F.ab1'
p162
sa(dp163
g4
g12
sg6
g12
sg8
S'file'
p164
sg10
I00
sg11
g12
sg13
I00
sg14
(lp165
sg19
I01
sg20
I16
sg21
S'gear_PAN1918_5-25L3-remiasii_rbcL_R.ab1'
p166
sasg19
I00
sg20
I48
sg21
S'gear_PAN1918_5-25L3-remiasii_rbcL_'
p167
sa(dp168
g4
S'                                    NCAAAGGTCGTTGTTACGACATCGAACCAGTTGCAGGTGAAGAAAACCAATATATTGCTTATGTTGCTTACCCTATCGACTTATTCGAAGAAGGTTCTGTAACTAACTTATTTACATCTATTGTAGGTAACGTTTTTGGTTTCAAAGCTCTTCGTGCACTTCGTTTAGAAGATTTACGTATTTCTTGTGCCTACTCTAAAACTTTCCAAGGACCTCCTCACGGAATCCAAGTAGAACGTGACAAATTAAACAAATACGGACGTGGTCTTTTAGGTTGTACAATCAAACCAAAATTAGGTCTTTCAGCTAAAAACTACGGTCGTGCTGTTTACGAATGTTTACGTGGTGGTTTAGACTTTACAAAAGATGATGAAAACGTTACATCTCAAGCATTCATGCGTTGGAGAGACCGTTTCATTTTCGTTGCTGAAGCTATCTACAAATCTCAAGCTGAAACAGGAGAAATTAAAGGTCACTATTTAAATGTAACAGCTGGAACTTCTGAAGAAATGCTAAAACGTGCTGAAGTAGCTAAAGAATTAGGAGTGCCTATTATTATGCATGACTATTTAACTGGTGGTCTTACTGCTAACACTTCATTAGCTCATTACTGTCGTGACAACGGATTATTACTTCACATTCACAGAGCAATGCACGCTGTAATTGACCGTCAAAGAAACCACGGTATTCACTTCCGTGTTTTAGCTAAAGCTCTTCGTTTATCAGGTGGTGACCACCTTCACTCAGGAACTGTAGTAGGTAAACTTGAAGGAGAACGCGAAGTTACTTTAGGTTTCGTTGATTTAATGCGCGACGAATATATCGAAAAAGATAGAAGTCGTGGTATTTACTTTACACAGGA                                          '
p169
sg6
S'NCAAAGGTCGTTGTTACGACATCGAACCAGTTGCAGGTGAAGAAAACCAATATATTGCTTATGTTGCTTACCCTATCGACTTATTCGAAGAAGGTTCTGTAACTAACTTATTTACATCTATTGTAGGTAACGTTTTTGGTTTCAAAGCTCTTCGTGCACTTCGTTTAGAAGATTTACGTATTTCTTGTGCCTACTCTAAAACTTTCCAAGGACCTCCTCACGGAATCCAAGTAGAACGTGACAAATTAAACAAATACGGACGTGGTCTTTTAGGTTGTACAATCAAACCAAAATTAGGTCTTTCAGCTAAAAACTACGGTCGTGCTGTTTACGAATGTTTACGTGGTGGTTTAGACTTTACAAAAGATGATGAAAACGTTACATCTCAAGCATTCATGCGTTGGAGAGACCGTTTCATTTTCGTTGCTGAAGCTATCTACAAATCTCAAGCTGAAACAGGAGAAATTAAAGGTCACTATTTAAATGTAACAGCTGGAACTTCTGAAGAAATGCTAAAACGTGCTGAAGTAGCTAAAGAATTAGGAGTGCCTATTATTATGCATGACTATTTAACTGGTGGTCTTACTGCTAACACTTCATTAGCTCATTACTGTCGTGACAACGGATTATTACTTCACATTCACAGAGCAATGCACGCTGTAATTGACCGTCAAAGAAACCACGGTATTCACTTCCGTGTTTTAGCTAAAGCTCTTCGTTTATCAGGTGGTGACCACCTTCACTCAGGAACTGTAGTAGGTAAACTTGAAGGAGAACGCGAAGTTACTTTAGGTTTCGTTGATTTAATGCGCGACGAATATATCGAAAAAGATAGAAGTCGTGGTATTTACTTTACACAGGA'
p170
sg8
S'frwdrev'
p171
sg10
I01
sg11
g12
sg13
I01
sg14
(lp172
(dp173
g4
g12
sg6
g12
sg8
S'file'
p174
sg10
I00
sg11
g12
sg13
I00
sg14
(lp175
sg19
I00
sg20
I15
sg21
S'orange_TEN2206_7-7L1-remiasii_rbcL_F.ab1'
p176
sa(dp177
g4
g12
sg6
g12
sg8
S'file'
p178
sg10
I00
sg11
g12
sg13
I00
sg14
(lp179
sg19
I01
sg20
I14
sg21
S'orange_TEN2206_7-7L1-remiasii_rbcL_R.ab1'
p180
sasg19
I00
sg20
I49
sg21
S'orange_TEN2206_7-7L1-remiasii_rbcL_'
p181
sa(dp182
g4
S'                       GATATCGAACCAGTTGCTGGTGAAGAAAACCAATACATCGCTTACGTTGCTTATCCTATTGACCTTTTTGAAGAAGGTTCTGTAACTAACTTATTTACA TC TATTGTAGGTAACG TTTTTGGTTTCAAAGCTCTTCGTGCTTTACGTCTTGAAGATTTACGTATTTCTTGTGCATACGC TAAAA CAT TCCAAGGACCT CCT CACGGGATCCAA GTAGAACGTGACAAATTAAACAAATATGGTCGGTGGTCTTTTAG GT  TGTACAATTAAAC CTAAATTAGGTTTATCA GCTAAAAACTATGGTCGTGCAGTTTACGAATGTTTACG TGGTGGGTTAGATTTCACAAAAGATGATGAAAATGTTAC AAGCCAAGCTTTCATGCGTTGGAGAGACCGTT TTATTTTTGTAGCAGAAGCTCTTTAC AAATCTCAAGCTGAAACAGGTAAATTTTGCCTA GCTAGTCTGTAAAGAC TAGTAA AAAACATTGGATGAATTGCAAGGACGCTAAAGCTTTTTTTAAATCATTTTATAAATCATTTTATAAATCATTTTATAAATCATAGCTATGCCNACTTGCAGCGAAGCTTGCTGAAAGATTTNTTGTAGGCANAGAACGTTCAACGACTAGAGAGTGAGCTGATCTGGGCAATAATCTCTCCACGAGCCTCCAACTACCCTTTTTTTTATCAAAACAGCTGTGCTGAAAAGAAATAGGTAGAAGACATAGTCTGAGCTTTAAGGAAACTTAAAGAAATCTAGGATAAAGAACCTAGATGATAACATAATGGAAATTAAAGGACATTA TTTAAACG TTACTGCTGGAACGTCTGNAAGAAATGCNTAAAAAGAGCTG AAGTAGCTAANGA TTAGGGGTACC TATT ATTATGCATGACTATCTAACAGGTGGTCTTACTGGCTAACACTTCATTAGCTCACTACTGTCGTGACAATGGTC TATTA TTACACATT CACAG A GCAAT GC ACGC GGTTATTGACCGTCAAAGAAACCACGGGATTCACTTCCGTGTATTAGCAAAAGCTCTTCGTTTATCTGGTGGGGACCATCTTCANTCAGGAACTGTTGTAGGAAAACTAGAAGGTGAACGTGAAGTTACTTT                                                                                 '
p183
sg6
S'GATATCGAACCAGTTGCTGGTGAAGAAAACCAATACATCGCTTACGTTGCTTATCCTATTGACCTTTTTGAAGAAGGTTCTGTAACTAACTTATTTACATCTATTGTAGGTAACGTTTTTGGTTTCAAAGCTCTTCGTGCTTTACGTCTTGAAGATTTACGTATTTCTTGTGCATACGCTAAAACATTCCAAGGACCTCCTCACGGGATCCAAGTAGAACGTGACAAATTAAACAAATATGGTCGGTGGTCTTTTAGGTTGTACAATTAAACCTAAATTAGGTTTATCAGCTAAAAACTATGGTCGTGCAGTTTACGAATGTTTACGTGGTGGGTTAGATTTCACAAAAGATGATGAAAATGTTACAAGCCAAGCTTTCATGCGTTGGAGAGACCGTTTTATTTTTGTAGCAGAAGCTCTTTACAAATCTCAAGCTGAAACAGGTAAATTTTGCCTAGCTAGTCTGTAAAGACTAGTAAAAAACATTGGATGAATTGCAAGGACGCTAAAGCTTTTTTTAAATCATTTTATAAATCATTTTATAAATCATTTTATAAATCATAGCTATGCCNACTTGCAGCGAAGCTTGCTGAAAGATTTNTTGTAGGCANAGAACGTTCAACGACTAGAGAGTGAGCTGATCTGGGCAATAATCTCTCCACGAGCCTCCAACTACCCTTTTTTTTATCAAAACAGCTGTGCTGAAAAGAAATAGGTAGAAGACATAGTCTGAGCTTTAAGGAAACTTAAAGAAATCTAGGATAAAGAACCTAGATGATAACATAATGGAAATTAAAGGACATTATTTAAACGTTACTGCTGGAACGTCTGNAAGAAATGCNTAAAAAGAGCTGAAGTAGCTAANGATTAGGGGTACCTATTATTATGCATGACTATCTAACAGGTGGTCTTACTGGCTAACACTTCATTAGCTCACTACTGTCGTGACAATGGTCTATTATTACACATTCACAGAGCAATGCACGCGGTTATTGACCGTCAAAGAAACCACGGGATTCACTTCCGTGTATTAGCAAAAGCTCTTCGTTTATCTGGTGGGGACCATCTTCANTCAGGAACTGTTGTAGGAAAACTAGAAGGTGAACGTGAAGTTACTTT'
p184
sg8
S'frwdrev'
p185
sg10
I01
sg11
g12
sg13
I01
sg14
(lp186
(dp187
g4
g12
sg6
g12
sg8
S'file'
p188
sg10
I00
sg11
g12
sg13
I00
sg14
(lp189
sg19
I00
sg20
I13
sg21
S'petal_BUG1901_AB3-11T1-remiasii_rbcL_F.ab1'
p190
sa(dp191
g4
g12
sg6
g12
sg8
S'file'
p192
sg10
I00
sg11
g12
sg13
I00
sg14
(lp193
sg19
I01
sg20
I12
sg21
S'petal_BUG1901_AB3-11T1-remiasii_rbcL_R.ab1'
p194
sasg19
I00
sg20
I50
sg21
S'petal_BUG1901_AB3-11T1-remiasii_rbcL_'
p195
sa(dp196
g4
S'                    AATGTGGTGCTGCAGTAGCTGCTGAGTCTTC TAC AGGTACTG TGGACAACAGTA  T G GACAGATGG CTCTTACAAGTCTTGA CCGTTACAAAGGTCGT TGTTACGACATCGAACCAGTTCCAGGTGAAGAAAATCAATATATTGCTTATGTTGCTTACCCTCTTGATCTTTTTGAAGAAGGTTCAGTAACAAACTTGTTTACTTCTATTGTAGGTAACGTTTTTGGTTTCAAAGCTCTTCGTGCACTACGTTTAGAAGATCTTCGTATTCCACCAGCATATGTAAAAACTTTCTCAGGTCCTCCTCACGGGATTCAAGTAGAACGTGATAAATTAAACAAATATGGTCGTGGTCTTCTTGGGTGTACAATTAAACCTAAATTAGGTCTTTCAGCTAAAAACTATGGTAGAGCTGTTTACGAGTGTCTACGTGGTGGTCTAGATTTCACGAAAGATGATGAAAACGTTAACTCACAACCATTCATGCGTTGGAGAGACCGTTTCCTTTTTGTTGCAGAAGCGATTTACAAATCACAATCAGAAACAGGTGAAGTTAAAGGGCATTATTTAAATGTTACAGCAGCTACATGTGAAGAAATGATGAAACGTGCGCAATTTGCTAAAGATCTTGGTATGCCAATTATTATGCACGATTATATTACAGGTGGTTTTACAGCTAACACATCATTAGCTTTA TACTGTCGT GATAATGGTCTATTNTTNCATATTCACCGTGCTATGCACG  C T GT TAT TGACCGTCAAAGAAACCAT  G  GTATTCACTTCCGTGTATTAGCTAAAGCT                     '
p197
sg6
S'AATGTGGTGCTGCAGTAGCTGCTGAGTCTTCTACAGGTACTGTGGACAACAGTATGGACAGATGGCTCTTACAAGTCTTGACCGTTACAAAGGTCGTTGTTACGACATCGAACCAGTTCCAGGTGAAGAAAATCAATATATTGCTTATGTTGCTTACCCTCTTGATCTTTTTGAAGAAGGTTCAGTAACAAACTTGTTTACTTCTATTGTAGGTAACGTTTTTGGTTTCAAAGCTCTTCGTGCACTACGTTTAGAAGATCTTCGTATTCCACCAGCATATGTAAAAACTTTCTCAGGTCCTCCTCACGGGATTCAAGTAGAACGTGATAAATTAAACAAATATGGTCGTGGTCTTCTTGGGTGTACAATTAAACCTAAATTAGGTCTTTCAGCTAAAAACTATGGTAGAGCTGTTTACGAGTGTCTACGTGGTGGTCTAGATTTCACGAAAGATGATGAAAACGTTAACTCACAACCATTCATGCGTTGGAGAGACCGTTTCCTTTTTGTTGCAGAAGCGATTTACAAATCACAATCAGAAACAGGTGAAGTTAAAGGGCATTATTTAAATGTTACAGCAGCTACATGTGAAGAAATGATGAAACGTGCGCAATTTGCTAAAGATCTTGGTATGCCAATTATTATGCACGATTATATTACAGGTGGTTTTACAGCTAACACATCATTAGCTTTATACTGTCGTGATAATGGTCTATTNTTNCATATTCACCGTGCTATGCACGCTGTTATTGACCGTCAAAGAAACCATGGTATTCACTTCCGTGTATTAGCTAAAGCT'
p198
sg8
S'frwdrev'
p199
sg10
I01
sg11
g12
sg13
I01
sg14
(lp200
(dp201
g4
g12
sg6
g12
sg8
S'file'
p202
sg10
I00
sg11
g12
sg13
I00
sg14
(lp203
sg19
I00
sg20
I11
sg21
S'small_BUG1902_7-27L5-rbcL_bc1_F.ab1'
p204
sa(dp205
g4
g12
sg6
g12
sg8
S'file'
p206
sg10
I00
sg11
g12
sg13
I00
sg14
(lp207
sg19
I01
sg20
I10
sg21
S'small_BUG1902_7-27L5-rbcL_bc1_R.ab1'
p208
sasg19
I00
sg20
I51
sg21
S'small_BUG1902_7-27L5-rbcL_bc1_'
p209
sa(dp210
g4
g12
sg6
g12
sg8
S'frwdrev'
p211
sg10
I00
sg11
g12
sg13
I00
sg14
(lp212
(dp213
g4
g12
sg6
g12
sg8
S'file'
p214
sg10
I00
sg11
g12
sg13
I00
sg14
(lp215
sg19
I00
sg20
I9
sg21
S'small_PAN1918_7-12L6-chloroITS2F.ab1'
p216
sa(dp217
g4
g12
sg6
g12
sg8
S'file'
p218
sg10
I00
sg11
g12
sg13
I00
sg14
(lp219
sg19
I00
sg20
I8
sg21
S'small_PAN1918_7-12L6-ITS4seqR.ab1'
p220
sasg19
I00
sg20
I56
sg21
S'small_PAN1918_7-12L6_ITS2'
p221
sa(dp222
g4
S'                      AATGTGGTGCTGCAGTAGCTGCTGAGTCATCTACAGGTACTTGGACAACAGTATGGACCGATGGTCTTACAAGTCTTGACCGTTACAAAGGTCGTTGTTACGACATCGAACCAGTTCCAGGTGAAGAAAATCAATATATTGCATATGTTGCTTACCCTCTTGATCTTTTTGAAGAAGGTTCAGTAACTAACTTATTTACTTCTATTGTAGGTAACGTTTTTGGTTTCAAAGCTCTTCGTGCACTACGTTTAGAAGATCTTCGTATTCCACCAGCATACGTAAAAACTTTCTCAGGTCCTCCTCATGGTATCCAAGTAGAACGTGACAAATTAAACAAATATGGTCGTGGTCTTCTTGGGTGTACAATTAAACCTAAATTAGGTCTTTCAGCTAAAAACTACGGTAGAGCTGTTTACGAGTGTCTACGTGGTGGTCTAGATTTCACGAAAGATGATGAAAACGTTAACTCACAACCATTCATGCGTTGGAGAGACCGTTTCCTTTTTGTTGCAGAAGCAATTTACAAATCACAATCAGAAACAGGTGAAGTTAAAGGACATTATTTAAATGTTACAGCAGCTACATGTGAAGAAATGATGAAACGTGCACAATTTGCTAAAGATCTTGGTATGCCAATTATTATGCACGATTACATTACAGGTGGTTTTACAGCTAACACATCATTAGCTTTATACTGTCGTGATAATGGTCTATTATTACACATTCACCGTGCTATGCACGCTGTTATTGACCGT  CAAAAGAAACC ATGGTATTCACTTCCGTGTACTAGCTAAAGCTCT                      '
p223
sg6
S'AATGTGGTGCTGCAGTAGCTGCTGAGTCATCTACAGGTACTTGGACAACAGTATGGACCGATGGTCTTACAAGTCTTGACCGTTACAAAGGTCGTTGTTACGACATCGAACCAGTTCCAGGTGAAGAAAATCAATATATTGCATATGTTGCTTACCCTCTTGATCTTTTTGAAGAAGGTTCAGTAACTAACTTATTTACTTCTATTGTAGGTAACGTTTTTGGTTTCAAAGCTCTTCGTGCACTACGTTTAGAAGATCTTCGTATTCCACCAGCATACGTAAAAACTTTCTCAGGTCCTCCTCATGGTATCCAAGTAGAACGTGACAAATTAAACAAATATGGTCGTGGTCTTCTTGGGTGTACAATTAAACCTAAATTAGGTCTTTCAGCTAAAAACTACGGTAGAGCTGTTTACGAGTGTCTACGTGGTGGTCTAGATTTCACGAAAGATGATGAAAACGTTAACTCACAACCATTCATGCGTTGGAGAGACCGTTTCCTTTTTGTTGCAGAAGCAATTTACAAATCACAATCAGAAACAGGTGAAGTTAAAGGACATTATTTAAATGTTACAGCAGCTACATGTGAAGAAATGATGAAACGTGCACAATTTGCTAAAGATCTTGGTATGCCAATTATTATGCACGATTACATTACAGGTGGTTTTACAGCTAACACATCATTAGCTTTATACTGTCGTGATAATGGTCTATTATTACACATTCACCGTGCTATGCACGCTGTTATTGACCGTCAAAAGAAACCATGGTATTCACTTCCGTGTACTAGCTAAAGCTCT'
p224
sg8
S'frwdrev'
p225
sg10
I01
sg11
g12
sg13
I01
sg14
(lp226
(dp227
g4
g12
sg6
g12
sg8
S'file'
p228
sg10
I00
sg11
g12
sg13
I00
sg14
(lp229
sg19
I00
sg20
I7
sg21
S'small_PAN1918_7-12L6-rbcL_bc1_F.ab1'
p230
sa(dp231
g4
g12
sg6
g12
sg8
S'file'
p232
sg10
I00
sg11
g12
sg13
I00
sg14
(lp233
sg19
I01
sg20
I6
sg21
S'small_PAN1918_7-12L6-rbcL_bc1_R.ab1'
p234
sasg19
I00
sg20
I52
sg21
S'small_PAN1918_7-12L6-rbcL_bc1_'
p235
sa(dp236
g4
g12
sg6
g12
sg8
S'frwdrev'
p237
sg10
I00
sg11
g12
sg13
I00
sg14
(lp238
(dp239
g4
g12
sg6
g12
sg8
S'file'
p240
sg10
I00
sg11
g12
sg13
I00
sg14
(lp241
sg19
I00
sg20
I5
sg21
S'sphereClusters_WED2223_8-19L1-rbcL_bc1_F.ab1'
p242
sa(dp243
g4
g12
sg6
g12
sg8
S'file'
p244
sg10
I00
sg11
g12
sg13
I00
sg14
(lp245
sg19
I01
sg20
I4
sg21
S'sphereClusters_WED2223_8-19L1-rbcL_bc1_R.ab1'
p246
sasg19
I00
sg20
I53
sg21
S'sphereClusters_WED2223_8-19L1-rbcL_bc1_'
p247
sa(dp248
g4
g12
sg6
g12
sg8
S'frwdrev'
p249
sg10
I00
sg11
g12
sg13
I00
sg14
(lp250
(dp251
g4
g12
sg6
g12
sg8
S'file'
p252
sg10
I00
sg11
g12
sg13
I00
sg14
(lp253
sg19
I00
sg20
I3
sg21
S'sphereClusters_WED2223_8-19L1-remiasii_rbcL_F.ab1'
p254
sa(dp255
g4
g12
sg6
g12
sg8
S'file'
p256
sg10
I00
sg11
g12
sg13
I00
sg14
(lp257
sg19
I01
sg20
I2
sg21
S'sphereClusters_WED2223_8-19L1-remiasii_rbcL_R.ab1'
p258
sasg19
I00
sg20
I54
sg21
S'sphereClusters_WED2223_8-19L1-remiasii_rbcL_'
p259
sa(dp260
g4
S'                                                   TACNTCNCTTACGTTGCTTATCCTATTGACCTTTTTGAAGAAGGTTCTGNNNCTAACTTANTNTNNCNTCNNTNGNANGNNAANNTTTTGGTTTCAAAGCTCTTCGTGCTTTACGTCTTGAAGATTTACGTATTTCTTGTGCATACGCTAAAACATTCCAAGGACCTCCTCACGGGATCCAAGTAGAACGTGACAAATTAAACAAATATGGTCGTGGTCTTTTAGGTTGTACAATTAAACCAAAATTAGGTTTATCAGCTAAAAACTATGGTCGTGCAGTTTACGAATGTTTACGTGGTGGGTTAGATTTCACAAAAGATGATGAAAATGTTACAAGCCAAGCTTTCATGCGTTGGAGAGACCGTTTTATTTTTGTAGCAGAAGCTCTTTACAAATCTCAAGCTGAAACAGGTAAATTTTGCCTAGCTAGTCTGTAAAGACTAGTAAAAAACATTGGATGAATTGCAAGGACGCTAAAGCTTTTTATAAATCATTTTATAAATCATAGCTATGCCAACTTGCAGCGAAGCTTGCTGAAAGATTTTTTGTAGGCAAGAACGTTCAACGACTAGAGAGTGAGCTGATCTGGGCAATAATCTCTCCACGAGCCTCCAACTACCCTTTTTTTTATCAAAACAGCTGTGCTGTGCTGAAAGGAAATAGGTAGAAGACATAGTCTGAGCTTTAAGGAAACTTAAAGAAATCTAGGATAAAGAACCTAGATGATAACATAATGGGAAATTAAAGGACATTATTTAAACGTTACTGCTGGAACGTCTGAAGAAATGCTAAAAAGAGCTGAAGTAGCTAAAGATTTAGGGGTACCTATTATTATGCATGACTATCTAACAGGTGGTCTTACTGCTAACACTTCATTAGCTCACTACTGTCGTGACAATGGTCTATTATTACACATTCACAGAGCAATGCACGCGGTTATTGACCGTCAAAGAAACCACGGGATTCACTTCCNGTGTATTNAGCAAAAGCTCTTCGTTTATCTGGTGGGGACCNNNNNCNNTCAGGAANNNNNNTAGGAAAACTAGAANGNGAACGTGAAGTTACTTNN                                                                               '
p261
sg6
S'TACNTCNCTTACGTTGCTTATCCTATTGACCTTTTTGAAGAAGGTTCTGNNNCTAACTTANTNTNNCNTCNNTNGNANGNNAANNTTTTGGTTTCAAAGCTCTTCGTGCTTTACGTCTTGAAGATTTACGTATTTCTTGTGCATACGCTAAAACATTCCAAGGACCTCCTCACGGGATCCAAGTAGAACGTGACAAATTAAACAAATATGGTCGTGGTCTTTTAGGTTGTACAATTAAACCAAAATTAGGTTTATCAGCTAAAAACTATGGTCGTGCAGTTTACGAATGTTTACGTGGTGGGTTAGATTTCACAAAAGATGATGAAAATGTTACAAGCCAAGCTTTCATGCGTTGGAGAGACCGTTTTATTTTTGTAGCAGAAGCTCTTTACAAATCTCAAGCTGAAACAGGTAAATTTTGCCTAGCTAGTCTGTAAAGACTAGTAAAAAACATTGGATGAATTGCAAGGACGCTAAAGCTTTTTATAAATCATTTTATAAATCATAGCTATGCCAACTTGCAGCGAAGCTTGCTGAAAGATTTTTTGTAGGCAAGAACGTTCAACGACTAGAGAGTGAGCTGATCTGGGCAATAATCTCTCCACGAGCCTCCAACTACCCTTTTTTTTATCAAAACAGCTGTGCTGTGCTGAAAGGAAATAGGTAGAAGACATAGTCTGAGCTTTAAGGAAACTTAAAGAAATCTAGGATAAAGAACCTAGATGATAACATAATGGGAAATTAAAGGACATTATTTAAACGTTACTGCTGGAACGTCTGAAGAAATGCTAAAAAGAGCTGAAGTAGCTAAAGATTTAGGGGTACCTATTATTATGCATGACTATCTAACAGGTGGTCTTACTGCTAACACTTCATTAGCTCACTACTGTCGTGACAATGGTCTATTATTACACATTCACAGAGCAATGCACGCGGTTATTGACCGTCAAAGAAACCACGGGATTCACTTCCNGTGTATTNAGCAAAAGCTCTTCGTTTATCTGGTGGGGACCNNNNNCNNTCAGGAANNNNNNTAGGAAAACTAGAANGNGAACGTGAAGTTACTTNN'
p262
sg8
S'frwdrev'
p263
sg10
I01
sg11
g12
sg13
I01
sg14
(lp264
(dp265
g4
g12
sg6
g12
sg8
S'file'
p266
sg10
I00
sg11
g12
sg13
I00
sg14
(lp267
sg19
I00
sg20
I1
sg21
S'star_BLU1901_8-17L1-remiasii_rbcL_F.ab1'
p268
sa(dp269
g4
g12
sg6
g12
sg8
S'file'
p270
sg10
I00
sg11
g12
sg13
I00
sg14
(lp271
sg19
I01
sg20
I0
sg21
S'star_BLU1901_8-17L1-remiasii_rbcL_R.ab1'
p272
sasg19
I00
sg20
I55
sg21
S'star_BLU1901_8-17L1-remiasii_rbcL_'
p273
sasS'formatversion'
p274
S'0.9'
p275
sS'consseqsettings'
p276
(dp277
S'consensus_algorithm'
p278
S'Bayesian'
p279
sS'do_qualitytrim'
p280
I01
sS'qualitytrim_winsize'
p281
I10
sS'primermatch_threshold'
p282
F0.8
sS'trim_endgaps'
p283
I00
sS'min_confscore'
p284
I30
sS'forward_primer'
p285
g12
sS'reverse_primer'
p286
g12
sS'qualitytrim_basecnt'
p287
I8
sS'trim_consensus'
p288
I01
sS'trim_primers'
p289
I00
ssS'properties'
p290
(dp291
S'fwd_trace_searchstr'
p292
S'F.ab1'
p293
sS'rev_trace_searchstr'
p294
S'R.ab1'
p295
sS'trace_file_dir'
p296
S'.'
p297
ss.