(dp0
S'items'
p1
(lp2
(dp3
S'fullcons'
p4
S'                        NNTTTAACATATTACACTCCAGATTACGTAGTAAAAGACACAGACATTCTAGCAGCTTTCCGTATGACTCCGCAAGCCGGTGNTTCCTATTGAAGAAGCAGGAGCAGCTGTAGCAGCTGAATCTTCTACTGGTACTTGGACTACTGTATGGACTGACGGTTTAACAAGCCTTGACCGTTACAAAGGTCGTTGTTATGATATCGAACCAGTTGCTGGTGAAGAAAACCAATACATCGCTTACGTTGCTTATCCTATTGACCTTTTTGAAGAAGGTTCTGTAACTAACTTATTTACATCTATTGTAGGTAACGTTTTTGGTTTCAAAGCTCTTCGTGCTTTACGTCTTGAAGATTTACGTATTTCTTGTGCATACGCTAAAACATTCCAAGGACCTCCTCACGGGATCCAAGTAGAACGTGACAAATTAAACAAATATGGTCGTGGTCTTTTAGGTTGTACAATTAAACCTAAATTAGGTTTATCAGCTAAAAACTATGGTCGTGCAGTTTACNAATGTTTACGTGGTGGGTTAGATTTCACAAAAGATGATGAAAATGTTACAAGCCAAGCTTTCATGCGTTGGNN                 '
p5
sS'compactcons'
p6
S'NNTTTAACATATTACACTCCAGATTACGTAGTAAAAGACACAGACATTCTAGCAGCTTTCCGTATGACTCCGCAAGCCGGTGNTTCCTATTGAAGAAGCAGGAGCAGCTGTAGCAGCTGAATCTTCTACTGGTACTTGGACTACTGTATGGACTGACGGTTTAACAAGCCTTGACCGTTACAAAGGTCGTTGTTATGATATCGAACCAGTTGCTGGTGAAGAAAACCAATACATCGCTTACGTTGCTTATCCTATTGACCTTTTTGAAGAAGGTTCTGTAACTAACTTATTTACATCTATTGTAGGTAACGTTTTTGGTTTCAAAGCTCTTCGTGCTTTACGTCTTGAAGATTTACGTATTTCTTGTGCATACGCTAAAACATTCCAAGGACCTCCTCACGGGATCCAAGTAGAACGTGACAAATTAAACAAATATGGTCGTGGTCTTTTAGGTTGTACAATTAAACCTAAATTAGGTTTATCAGCTAAAAACTATGGTCGTGCAGTTTACNAATGTTTACGTGGTGGGTTAGATTTCACAAAAGATGATGAAAATGTTACAAGCCAAGCTTTCATGCGTTGGNN'
p7
sS'itemtype'
p8
S'frwdrev'
p9
sS'useseq'
p10
I01
sS'notes'
p11
S''
p12
sS'hasseq'
p13
I01
sS'children'
p14
(lp15
(dp16
g4
g12
sg6
g12
sg8
S'file'
p17
sg10
I00
sg11
g12
sg13
I00
sg14
(lp18
sS'isreverse'
p19
I00
sS'id'
p20
I3
sS'name'
p21
S'bigThickwall_BLU2203_9-28L1-rbcl_snowF0seq5.ab1'
p22
sa(dp23
g4
g12
sg6
g12
sg8
S'file'
p24
sg10
I00
sg11
g12
sg13
I00
sg14
(lp25
sg19
I01
sg20
I12
sg21
S'../CE_30-869933035/bigThickwall_BLU2203_9-28L1-rbcl_R3set4.ab1'
p26
sasg19
I00
sg20
I13
sg21
S'bigThickwall_BLU2203_9-28L1_rbcL'
p27
sa(dp28
g4
S'                        NNTTTAACATATTACACTCCAGATTACGTAGTAAAAGACACAGACATTCTAGCAGCTTTCCGTATGACTCCGCAAGCCGGTGTTCCTATTGAAGANAGCAGGAGCAGCTGTAGCAGCTGAATCTTCTACTGGTACTTGGACAACTGTATGGACTGACGGTTTAACAAGCCTTGACCGTTACAAAGGTCGTTGTTATGATATCGAACCAGTTGCTGGTGAAGAAAACCAATACATCGCTTACGTTGCTTATCCTATTGACCTTTTTGAAGAAGGTTCTGTAACTAACTTATTTACATCTATTGTAGGTAACGTTTTTGGTTTCAAAGCTCTTCGTGCTTTACGTCTTGAAGATTTACGTATTTCTTGTGCATACGCTAAAACATTCCAAGGACCTCCTCACGGGATCCAAGTAGAACGTGACAAATTAAACAAATATGGTCGTGGTCTTTTAGGTTGTACAATTAAACCTAAATTAGGTTTATCAGCTAAAAACTATGGTCGTGCAGTTTACGAATGTTTACGTGGTGGATTAGATTTCACAAAAGATGATGAAAATGTTACAAGCCAAGCTTTCATGCGTTGGANN             '
p29
sg6
S'NNTTTAACATATTACACTCCAGATTACGTAGTAAAAGACACAGACATTCTAGCAGCTTTCCGTATGACTCCGCAAGCCGGTGTTCCTATTGAAGANAGCAGGAGCAGCTGTAGCAGCTGAATCTTCTACTGGTACTTGGACAACTGTATGGACTGACGGTTTAACAAGCCTTGACCGTTACAAAGGTCGTTGTTATGATATCGAACCAGTTGCTGGTGAAGAAAACCAATACATCGCTTACGTTGCTTATCCTATTGACCTTTTTGAAGAAGGTTCTGTAACTAACTTATTTACATCTATTGTAGGTAACGTTTTTGGTTTCAAAGCTCTTCGTGCTTTACGTCTTGAAGATTTACGTATTTCTTGTGCATACGCTAAAACATTCCAAGGACCTCCTCACGGGATCCAAGTAGAACGTGACAAATTAAACAAATATGGTCGTGGTCTTTTAGGTTGTACAATTAAACCTAAATTAGGTTTATCAGCTAAAAACTATGGTCGTGCAGTTTACGAATGTTTACGTGGTGGATTAGATTTCACAAAAGATGATGAAAATGTTACAAGCCAAGCTTTCATGCGTTGGANN'
p30
sg8
S'frwdrev'
p31
sg10
I01
sg11
g12
sg13
I01
sg14
(lp32
(dp33
g4
g12
sg6
g12
sg8
S'file'
p34
sg10
I00
sg11
g12
sg13
I00
sg14
(lp35
sg19
I01
sg20
I7
sg21
S'../CE_30-869933035/cog_BLU2203_1-11L2-rbcl_R3set4.ab1'
p36
sa(dp37
g4
g12
sg6
g12
sg8
S'file'
p38
sg10
I00
sg11
g12
sg13
I00
sg14
(lp39
sg19
I00
sg20
I2
sg21
S'cog_BLU2203_1-11L2-rbcl_snowF0seq4.ab1'
p40
sasg19
I00
sg20
I11
sg21
S'cog_BLU2203_1-11L2_rbcL'
p41
sa(dp42
g4
S'                        NNTTTAACATATTACACTCCAGATTACGTAGTAAAAGACACAGACATTCTAGCAGCTTTCCGTATGACTCCGCAAGCCGGTGTTCCTATTGAAGAAGCAGGAGCAGCTGTAGCAGCTGAATCTTCTACTGGTACTTGGACAACTGTATGGACTGACGGTTTAACAAGCCTTGACCGTTACAAAGGTCGTTGTTATGATATCGAACCAGTTGCTGGTGAAGAAAACCAATACATCGCTTACGTTGCTTATCCTATTGACCTTTTTGAAGAAGGTTCTGTAACTAACTTATTTACATCTATTGTAGGTAACGTTTTTGGTTTCAAAGCTCTTCGTGCTTTACGTCTTGAAGATTTACNNGTATTTCTTGTGCATACGCTAAAACATTCCAAGGACCTCCTCACGGGATCCAAGTAGAACGTGACAAATTAAACAAATATGGTCGTGGTCTTTTAGGTTGTACAATTAAACCTAAATTAGGTTTATCAGCTAAAAACTATGGTCGTGCAGTTTACGAATGTTTACGTGGTGGATTAGATTTCACAAAAGATGATGAAAATGTTACAAGCCAAGCTTTCATGCGTTGGNN              '
p43
sg6
S'NNTTTAACATATTACACTCCAGATTACGTAGTAAAAGACACAGACATTCTAGCAGCTTTCCGTATGACTCCGCAAGCCGGTGTTCCTATTGAAGAAGCAGGAGCAGCTGTAGCAGCTGAATCTTCTACTGGTACTTGGACAACTGTATGGACTGACGGTTTAACAAGCCTTGACCGTTACAAAGGTCGTTGTTATGATATCGAACCAGTTGCTGGTGAAGAAAACCAATACATCGCTTACGTTGCTTATCCTATTGACCTTTTTGAAGAAGGTTCTGTAACTAACTTATTTACATCTATTGTAGGTAACGTTTTTGGTTTCAAAGCTCTTCGTGCTTTACGTCTTGAAGATTTACNNGTATTTCTTGTGCATACGCTAAAACATTCCAAGGACCTCCTCACGGGATCCAAGTAGAACGTGACAAATTAAACAAATATGGTCGTGGTCTTTTAGGTTGTACAATTAAACCTAAATTAGGTTTATCAGCTAAAAACTATGGTCGTGCAGTTTACGAATGTTTACGTGGTGGATTAGATTTCACAAAAGATGATGAAAATGTTACAAGCCAAGCTTTCATGCGTTGGNN'
p44
sg8
S'frwdrev'
p45
sg10
I01
sg11
g12
sg13
I01
sg14
(lp46
(dp47
g4
g12
sg6
g12
sg8
S'file'
p48
sg10
I00
sg11
g12
sg13
I00
sg14
(lp49
sg19
I01
sg20
I6
sg21
S'../CE_30-869933035/cog_TEM2003_7-27L8-rbcl_R3set4.ab1'
p50
sa(dp51
g4
g12
sg6
g12
sg8
S'file'
p52
sg10
I00
sg11
g12
sg13
I00
sg14
(lp53
sg19
I00
sg20
I1
sg21
S'cog_TEM2003_7-27L8-rbcl_snowF0seq4.ab1'
p54
sasg19
I00
sg20
I9
sg21
S'cog_TEM2003_7-27L8_rbcL'
p55
sa(dp56
g4
S'                        NNTTTAACATATTACACTCCAGATTACGTAGTAAAAGACACAGACATTCTAGCAGCTTTCCGTATGACTCCGCAAGCCGGTGNTTCCTATTGAAGAAGCAGGAGCAGCTGTAGCAGCTGAATCTTCTACTGGTACTTGGACTACTGTATGGACTGACGGTTTAACAAGCCTTGACCGTTACAAAGGTCGTTGTTATGATATCGAACCAGTTGCTGGTGAAGAAAACCAATACATCGCTTACGTTGCTTATCCTATTGACCTTTTTGAAGAAGGTTCTGTAACTAACTTATTTACATCTATTGTAGGTAACGTTTTTGGTTTCAAAGCTCTTCGTGCTTTACGTCTTGAAGATTTACGTATTTCTTGTGCATACGCTAAAACATTCCAAGGACCTCCTCACGGGATCCAAGTAGAACGTGACAAATTAAACAAATATGGTCGTGGTCTTTTAGGTTGTACAATTAAACCTAAATTAGGTTTATCAGCTAAAAACTATGGTCGTGCAGTTTACGAGTGTTTACGTGGTGGGTTAGATTTCACAAAAGATGATGAAAATGTTACAAGCCAAGCTTTCATGCGTTGGNN               '
p57
sg6
S'NNTTTAACATATTACACTCCAGATTACGTAGTAAAAGACACAGACATTCTAGCAGCTTTCCGTATGACTCCGCAAGCCGGTGNTTCCTATTGAAGAAGCAGGAGCAGCTGTAGCAGCTGAATCTTCTACTGGTACTTGGACTACTGTATGGACTGACGGTTTAACAAGCCTTGACCGTTACAAAGGTCGTTGTTATGATATCGAACCAGTTGCTGGTGAAGAAAACCAATACATCGCTTACGTTGCTTATCCTATTGACCTTTTTGAAGAAGGTTCTGTAACTAACTTATTTACATCTATTGTAGGTAACGTTTTTGGTTTCAAAGCTCTTCGTGCTTTACGTCTTGAAGATTTACGTATTTCTTGTGCATACGCTAAAACATTCCAAGGACCTCCTCACGGGATCCAAGTAGAACGTGACAAATTAAACAAATATGGTCGTGGTCTTTTAGGTTGTACAATTAAACCTAAATTAGGTTTATCAGCTAAAAACTATGGTCGTGCAGTTTACGAGTGTTTACGTGGTGGGTTAGATTTCACAAAAGATGATGAAAATGTTACAAGCCAAGCTTTCATGCGTTGGNN'
p58
sg8
S'frwdrev'
p59
sg10
I01
sg11
g12
sg13
I01
sg14
(lp60
(dp61
g4
g12
sg6
g12
sg8
S'file'
p62
sg10
I00
sg11
g12
sg13
I00
sg14
(lp63
sg19
I01
sg20
I4
sg21
S'../CE_30-869933035/thickwall_BUG1903_1-18L2-rbcl_R3set4.ab1'
p64
sa(dp65
g4
g12
sg6
g12
sg8
S'file'
p66
sg10
I00
sg11
g12
sg13
I00
sg14
(lp67
sg19
I00
sg20
I0
sg21
S'thickwall_BUG1903_1-18L2-rbcl_snowF0seq5.ab1'
p68
sasg19
I00
sg20
I10
sg21
S'thickwall_BUG1903_1-18L2_rbcL'
p69
sasS'formatversion'
p70
S'0.9'
p71
sS'consseqsettings'
p72
(dp73
S'consensus_algorithm'
p74
S'Bayesian'
p75
sS'do_qualitytrim'
p76
I01
sS'qualitytrim_winsize'
p77
I10
sS'primermatch_threshold'
p78
F0.8
sS'trim_endgaps'
p79
I00
sS'min_confscore'
p80
I30
sS'forward_primer'
p81
g12
sS'reverse_primer'
p82
g12
sS'qualitytrim_basecnt'
p83
I8
sS'trim_consensus'
p84
I01
sS'trim_primers'
p85
I00
ssS'properties'
p86
(dp87
S'fwd_trace_searchstr'
p88
S'_F'
p89
sS'rev_trace_searchstr'
p90
S'_R'
p91
sS'trace_file_dir'
p92
S'.'
p93
ss.