(dp0
S'items'
p1
(lp2
(dp3
S'fullcons'
p4
S' NNAACCATAAACGATGCCGNNNNNNGATTGGCAGGTGTTCTTTTGATGACCCTGCCAGCACCTTATGAGAAATCAAAGTTTTTGGGTTCCGGGGGGAGTATGGTCGCAAGGCTGAAACTTAAAGGAATTGACGGAAGGGCACCACCAGGCGTGGAGCCTGCGGCTTAATTTGACTCAACACGGGAAAACTTACCAGGTCCAGACACGGGGAGGATTGACAGATTGAGAGCTCTTTCTTGATTCTGTGGGTGGTGGTGCATGGCCGTTCTTAGTTGGTGGGTTGCCTTGTCAGGTTGATTCCGGTAACGAACGAGACCTCAGCCTGCTAAATAGTCACATCTGCCTCTNGCAGCTGGCCGACTTCTTAGAGGGACTATTGTCGTTTAGGCAATGGAAGTATGAGGCAATAACAGGTCTGTGATGCCCTTAGATGTTCTGGGCCNNNNNNGCNNTACANNGANGCGTTCANNNANCNTATCNNNNNCNGAGAGGCCCNN                                                                                                                                           '
p5
sS'compactcons'
p6
S'NNAACCATAAACGATGCCGNNNNNNGATTGGCAGGTGTTCTTTTGATGACCCTGCCAGCACCTTATGAGAAATCAAAGTTTTTGGGTTCCGGGGGGAGTATGGTCGCAAGGCTGAAACTTAAAGGAATTGACGGAAGGGCACCACCAGGCGTGGAGCCTGCGGCTTAATTTGACTCAACACGGGAAAACTTACCAGGTCCAGACACGGGGAGGATTGACAGATTGAGAGCTCTTTCTTGATTCTGTGGGTGGTGGTGCATGGCCGTTCTTAGTTGGTGGGTTGCCTTGTCAGGTTGATTCCGGTAACGAACGAGACCTCAGCCTGCTAAATAGTCACATCTGCCTCTNGCAGCTGGCCGACTTCTTAGAGGGACTATTGTCGTTTAGGCAATGGAAGTATGAGGCAATAACAGGTCTGTGATGCCCTTAGATGTTCTGGGCCNNNNNNGCNNTACANNGANGCGTTCANNNANCNTATCNNNNNCNGAGAGGCCCNN'
p7
sS'itemtype'
p8
S'file'
p9
sS'useseq'
p10
I00
sS'notes'
p11
S''
p12
sS'hasseq'
p13
I01
sS'children'
p14
(lp15
sS'isreverse'
p16
I01
sS'id'
p17
I16
sS'name'
p18
S'4-27L10-18s_mid_BR_R_R.ab1'
p19
sa(dp20
g4
S'               ANGATGNCGACTAGGGATTGGCAGGTGTTCTTTTGATGACCCTGCCAGCACNTTATGAGAAATCAAAGTTTTTGGGTTCCGGGGGGAGTATGGTCGCAAGGCTGAAACTTAAAGGAATTGACGGAAGGGCACCACCAGGCGTGGAGCNTGCGGCTTAATTTGACTCAACACGGGAAAACTTANCAGGTCCAGACACGGGGAGGATTGACAGATTGAGAGCTCTTTCTTGATTCTGTGGGTGGTGGTGCATGGCCGTTCNTAGTTGGTGGGTTGCNN                                                                                                                                                                                                                                                                                                                                                         '
p21
sg6
S'ANGATGNCGACTAGGGATTGGCAGGTGTTCTTTTGATGACCCTGCCAGCACNTTATGAGAAATCAAAGTTTTTGGGTTCCGGGGGGAGTATGGTCGCAAGGCTGAAACTTAAAGGAATTGACGGAAGGGCACCACCAGGCGTGGAGCNTGCGGCTTAATTTGACTCAACACGGGAAAACTTANCAGGTCCAGACACGGGGAGGATTGACAGATTGAGAGCTCTTTCTTGATTCTGTGGGTGGTGGTGCATGGCCGTTCNTAGTTGGTGGGTTGCNN'
p22
sg8
S'file'
p23
sg10
I00
sg11
g12
sg13
I01
sg14
(lp24
sg16
I01
sg17
I4
sg18
S'5-18T2-18s_mid_BR_R.ab1'
p25
sa(dp26
g4
g12
sg6
g12
sg8
S'file'
p27
sg10
I00
sg11
g12
sg13
I00
sg14
(lp28
sg16
I01
sg17
I5
sg18
S'7-13L1-18s_mid_BR_R.ab1'
p29
sa(dp30
g4
g12
sg6
g12
sg8
S'file'
p31
sg10
I00
sg11
g12
sg13
I00
sg14
(lp32
sg16
I01
sg17
I0
sg18
S'7-13L3-18s_mid_BR_R.ab1'
p33
sa(dp34
g4
g12
sg6
g12
sg8
S'file'
p35
sg10
I00
sg11
g12
sg13
I00
sg14
(lp36
sg16
I01
sg17
I8
sg18
S'7-26L2-18s_mid_BR_R.ab1'
p37
sa(dp38
g4
g12
sg6
g12
sg8
S'file'
p39
sg10
I00
sg11
g12
sg13
I00
sg14
(lp40
sg16
I01
sg17
I10
sg18
S'7-27L5-18s_mid_BR_R.ab1'
p41
sa(dp42
g4
g12
sg6
g12
sg8
S'file'
p43
sg10
I00
sg11
g12
sg13
I00
sg14
(lp44
sg16
I01
sg17
I7
sg18
S'7-27L7-18s_mid_BR_R.ab1'
p45
sa(dp46
g4
S'                                AGGTGAANTTCTTGGANTTATGAAAGACGAACTTCTGCGAAAGCATTTGCCAAGGATGTTTTCATTAATCAAGAACGAAAGTTGGGGGCTCGAAGACGATTAGATACCGTCGTAGTCTCAA CCATA AACGATGCCGACTAGGGATTGGCGGGTGTTTCGTTGATGACCCCGCCAGCACCTTATGAGAAATCAAAGTCTTTGGGTTCCGGGGGGAGTATGGTCGCAAGGCTGAAACTTAAAGGAATTGACGGAAGGGCACCACCAGGCGTGGAGCCTGCGGCTTAATTTGACTCAACACGGGAAAACTTACCAGGTCCAGACACGGGAAGGATTGACAGATTGAGAGCTCTTTCTTGATTCTGTGGGTGGTGGTGCATGGCCGTTCTTAGTTGGTGGGTTGCCTTGTCAGGTTGATTCCGGTAACGAACGAGACCTCAGCCTGCTAAATAGTCACAGTTGCCTCTGGCAGCTGGCTGACTTCTTAGAGGGACTATTGTCGTTTAGGCAATGGAAGTATGAGGCAATAACAGGTCTGTGATGCCCTTAGATGTTCTGGGCCGCACGCGCGCTACACTGATGCATTCAACAAGCCTATCCTTGGCCGAGAGGCCCGGGTAATC  TTTGAAACTGCATCGTGATG GGGATAGATTATTGCAATTATTAGTCTT CAACGAGG AATGCCTAGTAAG CGCGAGTCATCAGCTC                                                   '
p47
sg6
S'AGGTGAANTTCTTGGANTTATGAAAGACGAACTTCTGCGAAAGCATTTGCCAAGGATGTTTTCATTAATCAAGAACGAAAGTTGGGGGCTCGAAGACGATTAGATACCGTCGTAGTCTCAACCATAAACGATGCCGACTAGGGATTGGCGGGTGTTTCGTTGATGACCCCGCCAGCACCTTATGAGAAATCAAAGTCTTTGGGTTCCGGGGGGAGTATGGTCGCAAGGCTGAAACTTAAAGGAATTGACGGAAGGGCACCACCAGGCGTGGAGCCTGCGGCTTAATTTGACTCAACACGGGAAAACTTACCAGGTCCAGACACGGGAAGGATTGACAGATTGAGAGCTCTTTCTTGATTCTGTGGGTGGTGGTGCATGGCCGTTCTTAGTTGGTGGGTTGCCTTGTCAGGTTGATTCCGGTAACGAACGAGACCTCAGCCTGCTAAATAGTCACAGTTGCCTCTGGCAGCTGGCTGACTTCTTAGAGGGACTATTGTCGTTTAGGCAATGGAAGTATGAGGCAATAACAGGTCTGTGATGCCCTTAGATGTTCTGGGCCGCACGCGCGCTACACTGATGCATTCAACAAGCCTATCCTTGGCCGAGAGGCCCGGGTAATCTTTGAAACTGCATCGTGATGGGGATAGATTATTGCAATTATTAGTCTTCAACGAGGAATGCCTAGTAAGCGCGAGTCATCAGCTC'
p48
sg8
S'frwdrev'
p49
sg10
I01
sg11
g12
sg13
I01
sg14
(lp50
(dp51
g4
g12
sg6
g12
sg8
S'file'
p52
sg10
I00
sg11
g12
sg13
I00
sg14
(lp53
sg16
I00
sg17
I19
sg18
S'../CE_30-766753846/bigSphere_WED2206_7-26L2-chloro18SMidF.ab1'
p54
sa(dp55
g4
g12
sg6
g12
sg8
S'file'
p56
sg10
I00
sg11
g12
sg13
I00
sg14
(lp57
sg16
I01
sg17
I2
sg18
S'sanguina_WED2206_7-26L2-18s_mid_BR_R.ab1'
p58
sasg16
I00
sg17
I20
sg18
S'bigSphere_WED2206_7-26L2_18SB'
p59
sa(dp60
g4
g12
sg6
g12
sg8
S'file'
p61
sg10
I00
sg11
g12
sg13
I00
sg14
(lp62
sg16
I00
sg17
I3
sg18
S'sanguina_WED2206_7-26L2-18s_mid_BR_F.ab1'
p63
sa(dp64
g4
S'                           CGA CTAGGGATTGGCA  GGTGGTTCT T  TTGATGACCCTGCCAGCACCTTATGAGAAATCAAAGTTTTTGG GT TCCGG GGTGGAGTATGGTCGCAAGTGCTGAAACT TAAAG GAATGTGACGGAAGGGCNCCNNCAGGCGTGNAGCCTGCGGCT TNAATTTGACTCAACACGGGAAAACTTACCAGGTCCAGACACGGGGAGGATTGACANGATTGAGAGCTCTTTCTTGATTCTGTGGGTGGTGGTGCATGGCCGTTCTTAGTTGGTGGGTTGCCTTGTCAGGTTGATTCCGGTAACGAACGAGACCTCAGCCTGCTAAATAGTCACATCTGCCTCTCGCAGCTGGCCGACTTCTTAGAGGGACTATTGTCGTTTAGGCAATGGAAGTATGAGGCAATAACAGGTCTGTGATGCCCTTAGATGTTCTGGGCCGCACGCGCGCTACACTGATGCGTTCAACGAGCCTATCCTTGGCCGAGAGGCCCGGGTAATC   TTCGAAACC GCATCGTGATGGGGANAGATTATTG  CAATT ATTAGTCTTCAAA ACGAGGANTGCCTAGTAAGCGCGAGTCATCAGCTCGCGTTGATTACGTCCCTGCCCTTTGTACACACCGCCCGTCGCTCCTACCGATTGAGTG                      '
p65
sg6
S'CGACTAGGGATTGGCAGGTGGTTCTTTTGATGACCCTGCCAGCACCTTATGAGAAATCAAAGTTTTTGGGTTCCGGGGTGGAGTATGGTCGCAAGTGCTGAAACTTAAAGGAATGTGACGGAAGGGCNCCNNCAGGCGTGNAGCCTGCGGCTTNAATTTGACTCAACACGGGAAAACTTACCAGGTCCAGACACGGGGAGGATTGACANGATTGAGAGCTCTTTCTTGATTCTGTGGGTGGTGGTGCATGGCCGTTCTTAGTTGGTGGGTTGCCTTGTCAGGTTGATTCCGGTAACGAACGAGACCTCAGCCTGCTAAATAGTCACATCTGCCTCTCGCAGCTGGCCGACTTCTTAGAGGGACTATTGTCGTTTAGGCAATGGAAGTATGAGGCAATAACAGGTCTGTGATGCCCTTAGATGTTCTGGGCCGCACGCGCGCTACACTGATGCGTTCAACGAGCCTATCCTTGGCCGAGAGGCCCGGGTAATCTTCGAAACCGCATCGTGATGGGGANAGATTATTGCAATTATTAGTCTTCAAAACGAGGANTGCCTAGTAAGCGCGAGTCATCAGCTCGCGTTGATTACGTCCCTGCCCTTTGTACACACCGCCCGTCGCTCCTACCGATTGAGTG'
p66
sg8
S'frwdrev'
p67
sg10
I01
sg11
g12
sg13
I01
sg14
(lp68
(dp69
g4
S'                                                                                                                                                                                                TTGANANCTCTTTCTTGATTCTGTGGGTGGTGGTGCATGGCCGTTCTTAGTTGGTGGGTTGCCTTGTCAGGTTGATTCCGGTAACGAACGAGACCTCAGCCTGCTAAATAGTCACATCTGCCTCTCGCAGCTGGCCGACTTCTTAGAGGGACTATTGTCGTTTAGGCAATGGAAGTATGAGGCAATAACAGGTCTGTGATGCCCTTAGATGTTCTGGGCCGCACGCGCGCTACACTGATGCGTTCAACGAGCCTATCCTTGGCCGAGAGGCCCGGGTAATCTTCGAAACCGCATCGTGATGGGGATAGATTATTGCAATTATTAGTCTTCAACGAGGAATGCCTAGTAAGCGCGAGTCATCAGCTCGCGTTGATTACGTCCCTGCCCTTTGTACNCACCGCCCGTCGCTCCTACCGATTGAGTGNN                    '
p70
sg6
S'TTGANANCTCTTTCTTGATTCTGTGGGTGGTGGTGCATGGCCGTTCTTAGTTGGTGGGTTGCCTTGTCAGGTTGATTCCGGTAACGAACGAGACCTCAGCCTGCTAAATAGTCACATCTGCCTCTCGCAGCTGGCCGACTTCTTAGAGGGACTATTGTCGTTTAGGCAATGGAAGTATGAGGCAATAACAGGTCTGTGATGCCCTTAGATGTTCTGGGCCGCACGCGCGCTACACTGATGCGTTCAACGAGCCTATCCTTGGCCGAGAGGCCCGGGTAATCTTCGAAACCGCATCGTGATGGGGATAGATTATTGCAATTATTAGTCTTCAACGAGGAATGCCTAGTAAGCGCGAGTCATCAGCTCGCGTTGATTACGTCCCTGCCCTTTGTACNCACCGCCCGTCGCTCCTACCGATTGAGTGNN'
p71
sg8
S'file'
p72
sg10
I00
sg11
g12
sg13
I01
sg14
(lp73
sg16
I00
sg17
I15
sg18
S'7-7L3-18s_mid_BR_F.ab1'
p74
sa(dp75
g4
g12
sg6
g12
sg8
S'file'
p76
sg10
I00
sg11
g12
sg13
I00
sg14
(lp77
sg16
I01
sg17
I14
sg18
S'7-7L3-18s_mid_BR_R.ab1'
p78
sasg16
I00
sg17
I21
sg18
S'squareBrevi_TEN2207_7-7L3_18SB'
p79
sasS'formatversion'
p80
S'0.9'
p81
sS'consseqsettings'
p82
(dp83
S'consensus_algorithm'
p84
S'Bayesian'
p85
sS'do_qualitytrim'
p86
I01
sS'qualitytrim_winsize'
p87
I10
sS'primermatch_threshold'
p88
F0.8
sS'trim_endgaps'
p89
I00
sS'min_confscore'
p90
I30
sS'forward_primer'
p91
g12
sS'reverse_primer'
p92
g12
sS'qualitytrim_basecnt'
p93
I8
sS'trim_consensus'
p94
I01
sS'trim_primers'
p95
I00
ssS'properties'
p96
(dp97
S'fwd_trace_searchstr'
p98
S'_F'
p99
sS'rev_trace_searchstr'
p100
S'_R'
p101
sS'trace_file_dir'
p102
S'.'
p103
ss.