(dp0
S'items'
p1
(lp2
(dp3
S'fullcons'
p4
S'                                  NNAGGTGAAATTCTTGGANTTATGAAAGACGAACTTCTGCGAAAGCATTTGCCAAGGATGTTTTCATTAATCAAGAACGAAAGTTGGGGGCTCGAAGACGATTAGATACCGTCGTAGTCTCAACCATAAACGATGCCGACTAGGGATTGGCAGGTGTTCTTTTGATGACCCTGCCAGCACCTTATGAGAAATCAAAGTTTTTGGGTTCCGGGGGGAGTATGGTCGCAAGGCTGAAACTTAAAGGAATTGACGGAAGGGCACCACCAGGCGTGGAGCCTGCGGCTTAATTTGACTCAACACGGGAAAACTTACCAGGTCCAGACACGGGGAGGATTGACAGATTGAGAGCTCTTTCTTGATTCTGTGGGTGGTGGTGCATGGCCGTTCTTAGTTGGTGGGTTGCCTTGTCAGGTTGATTCCGGTAACGAACGAGACCTCAGCCTGCTAAATAGTCACGTCTGCCTCTCGCAGACGGCCGACTTCTTAGAGGGACTATTGTCNTTTAGGCAATGGAAGTATGAGGCAATAACAGGTCTGTGATGCCCTTANATGTTCTGGGCCGCACGCGCGCTACACTGATGCGTTCAACGAGCCTATCCTTGGCCGANAGGCCCGGGTAATCTTCGAAACCGCATCGTGATGGGGNNAGATTATTGCAATTATTANTCTTCAACGAGGANNGCCTAGTAAGCGCGAGTCATCANCTCGCGTTGNNT           '
p5
sS'compactcons'
p6
S'NNAGGTGAAATTCTTGGANTTATGAAAGACGAACTTCTGCGAAAGCATTTGCCAAGGATGTTTTCATTAATCAAGAACGAAAGTTGGGGGCTCGAAGACGATTAGATACCGTCGTAGTCTCAACCATAAACGATGCCGACTAGGGATTGGCAGGTGTTCTTTTGATGACCCTGCCAGCACCTTATGAGAAATCAAAGTTTTTGGGTTCCGGGGGGAGTATGGTCGCAAGGCTGAAACTTAAAGGAATTGACGGAAGGGCACCACCAGGCGTGGAGCCTGCGGCTTAATTTGACTCAACACGGGAAAACTTACCAGGTCCAGACACGGGGAGGATTGACAGATTGAGAGCTCTTTCTTGATTCTGTGGGTGGTGGTGCATGGCCGTTCTTAGTTGGTGGGTTGCCTTGTCAGGTTGATTCCGGTAACGAACGAGACCTCAGCCTGCTAAATAGTCACGTCTGCCTCTCGCAGACGGCCGACTTCTTAGAGGGACTATTGTCNTTTAGGCAATGGAAGTATGAGGCAATAACAGGTCTGTGATGCCCTTANATGTTCTGGGCCGCACGCGCGCTACACTGATGCGTTCAACGAGCCTATCCTTGGCCGANAGGCCCGGGTAATCTTCGAAACCGCATCGTGATGGGGNNAGATTATTGCAATTATTANTCTTCAACGAGGANNGCCTAGTAAGCGCGAGTCATCANCTCGCGTTGNNT'
p7
sS'itemtype'
p8
S'file'
p9
sS'useseq'
p10
I01
sS'notes'
p11
S''
p12
sS'hasseq'
p13
I01
sS'children'
p14
(lp15
sS'isreverse'
p16
I00
sS'id'
p17
I13
sS'name'
p18
S'cog_PAN1918_5-25T3-chloro18SMidF.ab1'
p19
sa(dp20
g4
S'                                    NTGACCGTTACAAAGNTCGTTGTTATGATATCGAACCAGTTGCTGGTGAAGAAAACCAATACATCGCTTACGTTGCTTACCCTATTGACCTTTTTGAAGAAGGTTCTGTAACTAACTTATTTACATCTATTGTAGGTAACGTTTTTGGTTTCAAAGCTCTTCGTGCTTTACGTCTTGAAGATTTACGTATTTCTTGTGCATACGCTAAAACATTCCAAGGACCTCCTCACGGGATCCAAGTAGAACGTGACAAATTAAACAAATATGGTCGTGGTCTTTTAGGTTGTACAATTAAACCTAAATTAGGTTTATCTGCTAAAAACTATGGTCGTGCAGTTTACGAATGTTTACGTGGTGGGTTAGATTTCACAAAAGATGATGAAAATGTTACAAGCCAAGCATTCATGCGTTGGAGAGACCGTTTCATTTTTGTAGCAGAAGCTCTTTACAAATCGCAAGCTGAAACAGGTGAAATTAAAGGACATTATTTAAACGTTACTGCTGGAACGTCAGAAGAAATGCTAAAAAGAGCTGAAGTAGCTAAAGATTTAGGGGTACCTATTATTATGCATGACTATCTAACAGGTGGTCTTACTGCTAACACTTCATTAGCTCACTACTGTCGTGACAATGGTCTATTATTACACATTCACAGAGCAATGCACGCGGTTATTGACCGTCAAAGAAACCACGGGATTCACTTCCGTGTATTAGCAAAAGCTCTTCGTTTATCTGGTGGGGACCATCTTCACTCAGGAACTGTTGTAGGAAAACTAGAAGGTGAACGTGAAGTTAC TTTAGGTTTCGTTGATTTAATGAGAGACGAATATATTGAAAAAGATCGTAGCCGTGGTANTTACNTCNCT                                              '
p21
sg6
S'NTGACCGTTACAAAGNTCGTTGTTATGATATCGAACCAGTTGCTGGTGAAGAAAACCAATACATCGCTTACGTTGCTTACCCTATTGACCTTTTTGAAGAAGGTTCTGTAACTAACTTATTTACATCTATTGTAGGTAACGTTTTTGGTTTCAAAGCTCTTCGTGCTTTACGTCTTGAAGATTTACGTATTTCTTGTGCATACGCTAAAACATTCCAAGGACCTCCTCACGGGATCCAAGTAGAACGTGACAAATTAAACAAATATGGTCGTGGTCTTTTAGGTTGTACAATTAAACCTAAATTAGGTTTATCTGCTAAAAACTATGGTCGTGCAGTTTACGAATGTTTACGTGGTGGGTTAGATTTCACAAAAGATGATGAAAATGTTACAAGCCAAGCATTCATGCGTTGGAGAGACCGTTTCATTTTTGTAGCAGAAGCTCTTTACAAATCGCAAGCTGAAACAGGTGAAATTAAAGGACATTATTTAAACGTTACTGCTGGAACGTCAGAAGAAATGCTAAAAAGAGCTGAAGTAGCTAAAGATTTAGGGGTACCTATTATTATGCATGACTATCTAACAGGTGGTCTTACTGCTAACACTTCATTAGCTCACTACTGTCGTGACAATGGTCTATTATTACACATTCACAGAGCAATGCACGCGGTTATTGACCGTCAAAGAAACCACGGGATTCACTTCCGTGTATTAGCAAAAGCTCTTCGTTTATCTGGTGGGGACCATCTTCACTCAGGAACTGTTGTAGGAAAACTAGAAGGTGAACGTGAAGTTACTTTAGGTTTCGTTGATTTAATGAGAGACGAATATATTGAAAAAGATCGTAGCCGTGGTANTTACNTCNCT'
p22
sg8
S'frwdrev'
p23
sg10
I01
sg11
g12
sg13
I01
sg14
(lp24
(dp25
g4
g12
sg6
g12
sg8
S'file'
p26
sg10
I00
sg11
g12
sg13
I00
sg14
(lp27
sg16
I00
sg17
I12
sg18
S'poppy_DON1901_5-11L1-rbcL_remiasii_F.ab1'
p28
sa(dp29
g4
g12
sg6
g12
sg8
S'file'
p30
sg10
I00
sg11
g12
sg13
I00
sg14
(lp31
sg16
I01
sg17
I11
sg18
S'poppy_DON1901_5-11L1-rbcL_remiasii_R.ab1'
p32
sasg16
I00
sg17
I19
sg18
S'poppy_DON1901_5-11L1_rbcL'
p33
sa(dp34
g4
S'                          NNTGACCGTTACAAAGGTCGTTGTTATGATATCGAACCAGTTGCTGGTGAAGAAAACCAATACATCGCTTACGTTGCTTACCCTATTGACCTTTTTGAAGAAGGTTCTGTAACTAACTTATTTACATCTATTGTAGGTAACGTTTTTGGTTTCAAAGCTCTTCGTGCTTTACGTCTTGAAGATTTACGTATTTCTTGTGCATACGCTAAAACATTCCAAGGACCTCCTCACGGGATCCAAGTAGAACGTGACAAATTAAACAAATATGGTCGTGGTCTTTTAGGTTGTACAATTAAACCTAAATTAGGTTTATCTGCTAAAAACTATGGTCGTGCAGTTTACGAATGTTTACGTGGTGGGTTAGATTTCACAAAAGATGATGAAAATGTTACAAGCCAAGCATTCATGCGTTGGAGAGACCGTTTCATTTTTGTAGCAGAAGCTCTTTACAAATCGCAAGCTGAAACAGGTGAAATTAAAGGACATTATTTAAACGTTACTGCTGGAACGTCAGAAGAAATGCTAAAAAGAGCTGAAGTAGCTAAAGATTTAGGGGTACCTATTATTATGCATGACTATCTAACAGGTGGTCTTACTGCTAACACTTCATTAGCTCACTACTGTCGTGACAATGGTCTATTATTACACATTCACAGAGCAATGCACGCGGTTATTGACCGTCAAAGAAACCACGGGATTCACTTCCGTGTATTAGCAAAAGCTCTTCGTTTATCTGGTGGGGACCATCTTCACTCAGGAACTGTTGTAGGAAAACTAGAAGGTGAACGTGAAGTTACTTTAGGTTTCGTTGATTTAATGAGAGACGAATATATTGAAAAAGATCGTAGCCGTGGTANTTACTTCACTCAAGANTGNTG                                  '
p35
sg6
S'NNTGACCGTTACAAAGGTCGTTGTTATGATATCGAACCAGTTGCTGGTGAAGAAAACCAATACATCGCTTACGTTGCTTACCCTATTGACCTTTTTGAAGAAGGTTCTGTAACTAACTTATTTACATCTATTGTAGGTAACGTTTTTGGTTTCAAAGCTCTTCGTGCTTTACGTCTTGAAGATTTACGTATTTCTTGTGCATACGCTAAAACATTCCAAGGACCTCCTCACGGGATCCAAGTAGAACGTGACAAATTAAACAAATATGGTCGTGGTCTTTTAGGTTGTACAATTAAACCTAAATTAGGTTTATCTGCTAAAAACTATGGTCGTGCAGTTTACGAATGTTTACGTGGTGGGTTAGATTTCACAAAAGATGATGAAAATGTTACAAGCCAAGCATTCATGCGTTGGAGAGACCGTTTCATTTTTGTAGCAGAAGCTCTTTACAAATCGCAAGCTGAAACAGGTGAAATTAAAGGACATTATTTAAACGTTACTGCTGGAACGTCAGAAGAAATGCTAAAAAGAGCTGAAGTAGCTAAAGATTTAGGGGTACCTATTATTATGCATGACTATCTAACAGGTGGTCTTACTGCTAACACTTCATTAGCTCACTACTGTCGTGACAATGGTCTATTATTACACATTCACAGAGCAATGCACGCGGTTATTGACCGTCAAAGAAACCACGGGATTCACTTCCGTGTATTAGCAAAAGCTCTTCGTTTATCTGGTGGGGACCATCTTCACTCAGGAACTGTTGTAGGAAAACTAGAAGGTGAACGTGAAGTTACTTTAGGTTTCGTTGATTTAATGAGAGACGAATATATTGAAAAAGATCGTAGCCGTGGTANTTACTTCACTCAAGANTGNTG'
p36
sg8
S'frwdrev'
p37
sg10
I01
sg11
g12
sg13
I01
sg14
(lp38
(dp39
g4
g12
sg6
g12
sg8
S'file'
p40
sg10
I00
sg11
g12
sg13
I00
sg14
(lp41
sg16
I00
sg17
I10
sg18
S'poppy_PAN1804_5-11L2-rbcL_remiasii_F.ab1'
p42
sa(dp43
g4
g12
sg6
g12
sg8
S'file'
p44
sg10
I00
sg11
g12
sg13
I00
sg14
(lp45
sg16
I01
sg17
I9
sg18
S'poppy_PAN1804_5-11L2-rbcL_remiasii_R.ab1'
p46
sasg16
I00
sg17
I18
sg18
S'poppy_PAN1804_5-11L2_rbcL'
p47
sa(dp48
g4
S'                             NNAGGTGAAATTCTTGGATTTATGAAAGACGAACTTCTGCGAAAGCATTTGCCAAGGATGTTTTCATTAATCAAGAACGAAAGTTGGGGGCTCGAAGACGATTAGATACCGTCGTAGTCTCAACCATAAACGATGCCGACTAGGGATTGGCAGGTGTTCTTTTGATGACCCTGCCAGCACCTTATGAGAAATCAAAGTTTTTGGGTTCCGGGGGGAGTATGGTCGCAAGGCTGAAACTTAAAGGAATTGACGGAAGGGCACCACCAGGCGTGGAGCCTGCGGCTTAATTTGACTCAACACGGGAAAACTTACCAGGTCCAGACACGGGGAGGATTGACAGATTGAGAGCTCTTTCTTGATTCTGTGGGTGGTGGTGCATGGCCGTTCTTAGTTGGTGGGTTGCCTTGTCAGGTTGATTCCGGTAACGAACGAGACCTCAGCCTGCTAAATAGTCACGTCTGCCTCTCGCAGACGGCCGACTTCTTAGAGGGACTATTGTCGTTTAGGCAATGGAAGTATGAGGCAATAACAGGTCTGTGATGCCCTTAGATGTTCTGGGCCGCACGCGCGCTACACTGATGCGTTCAACGAGCCTATCCTTGGCCGAGAGGCCCGGGTAATCNN                                                                                                         '
p49
sg6
S'NNAGGTGAAATTCTTGGATTTATGAAAGACGAACTTCTGCGAAAGCATTTGCCAAGGATGTTTTCATTAATCAAGAACGAAAGTTGGGGGCTCGAAGACGATTAGATACCGTCGTAGTCTCAACCATAAACGATGCCGACTAGGGATTGGCAGGTGTTCTTTTGATGACCCTGCCAGCACCTTATGAGAAATCAAAGTTTTTGGGTTCCGGGGGGAGTATGGTCGCAAGGCTGAAACTTAAAGGAATTGACGGAAGGGCACCACCAGGCGTGGAGCCTGCGGCTTAATTTGACTCAACACGGGAAAACTTACCAGGTCCAGACACGGGGAGGATTGACAGATTGAGAGCTCTTTCTTGATTCTGTGGGTGGTGGTGCATGGCCGTTCTTAGTTGGTGGGTTGCCTTGTCAGGTTGATTCCGGTAACGAACGAGACCTCAGCCTGCTAAATAGTCACGTCTGCCTCTCGCAGACGGCCGACTTCTTAGAGGGACTATTGTCGTTTAGGCAATGGAAGTATGAGGCAATAACAGGTCTGTGATGCCCTTAGATGTTCTGGGCCGCACGCGCGCTACACTGATGCGTTCAACGAGCCTATCCTTGGCCGAGAGGCCCGGGTAATCNN'
p50
sg8
S'file'
p51
sg10
I01
sg11
g12
sg13
I01
sg14
(lp52
sg16
I00
sg17
I8
sg18
S'sac_GAR1930_7-12L4-chloro18SMidF.ab1'
p53
sa(dp54
g4
S'                                                                                           AAAAAGNTNGTAGTNGNATTTCGGGTGGGTTCGGTCGGTCCGCNTNTGGTGTGCACTGATTGAGNNTTCCTTTCTGCCGGGGACGGGTTCNTGGGCCTCACGGTTTGGGACTCGGAGTNGGCGAGGTTACTTNGAGTAAATTAGAGTGTTCAAAGCAAGCNTACGCTCTGAATACATTAGCATGGAATAACGCGATAGGACTCTGGCCTATCTTGTTGGTCTGTAGGACTGGAGTAATGATTAAGAGGGACAGTCGGGGGCATTCGTATTTCATTGTCAGAGGTGAAATTCTTGGATTTATGAAAGACGAACTTCTGCGAAAGCATTTGCCAAGGATGTTTTCATTAATCAAGAACGAAAGTTGGGGGCTCGAAGACGATTAGATACCGTCGTAGTCTCAACCATAAACGATGCCGACTAGGGATTGGCGGGTGTTTCGTTGATGACCCCGCCAGCACCTTATGAGAAATCAAAGTCTTTGGGTTCCGGGGGGAGTATGGTCGCAAGGCTGAAACTTAAAGGAATTGACGGAAGGGCACCACCAGGCGTGGAGCCTGCGGCTTAATTTGACTCAACACGGGAAAACTTACCAGGTCCAGACACGGGAAGGATTGACAGATTGAGAGCTCTTTCTTGATTCTGTGGGTGGTGGTGCATGGCCGTTCTTAGTTGGTGGGTTGCCTTGTCAGGTTGATTCCGGTAACGAACGAGACCTCAGCCTGCTAAATAGTCACAGTTGCCTCTGGCAGCTGGCTGACTTCTTAGAGGGACTATTGTCGTTTAGGCAATGGAAGTATGAGGCAATAACAGGTCTGTGATGCCCTTAGATGTTCTGGGCCGCACGCGCGCTACACTGATGCATTCAACAAGCCTATCCTTGGCCGAGAGGCCCGGGTAATCTTTGAAACTGCATCGTGATGGGGATAGATTATTGCAATTATTAGTCTTCAACGAGGAATGCCTAGTAAGCGCGAGTCATCAGCTCGC                     '
p55
sg6
S'AAAAAGNTNGTAGTNGNATTTCGGGTGGGTTCGGTCGGTCCGCNTNTGGTGTGCACTGATTGAGNNTTCCTTTCTGCCGGGGACGGGTTCNTGGGCCTCACGGTTTGGGACTCGGAGTNGGCGAGGTTACTTNGAGTAAATTAGAGTGTTCAAAGCAAGCNTACGCTCTGAATACATTAGCATGGAATAACGCGATAGGACTCTGGCCTATCTTGTTGGTCTGTAGGACTGGAGTAATGATTAAGAGGGACAGTCGGGGGCATTCGTATTTCATTGTCAGAGGTGAAATTCTTGGATTTATGAAAGACGAACTTCTGCGAAAGCATTTGCCAAGGATGTTTTCATTAATCAAGAACGAAAGTTGGGGGCTCGAAGACGATTAGATACCGTCGTAGTCTCAACCATAAACGATGCCGACTAGGGATTGGCGGGTGTTTCGTTGATGACCCCGCCAGCACCTTATGAGAAATCAAAGTCTTTGGGTTCCGGGGGGAGTATGGTCGCAAGGCTGAAACTTAAAGGAATTGACGGAAGGGCACCACCAGGCGTGGAGCCTGCGGCTTAATTTGACTCAACACGGGAAAACTTACCAGGTCCAGACACGGGAAGGATTGACAGATTGAGAGCTCTTTCTTGATTCTGTGGGTGGTGGTGCATGGCCGTTCTTAGTTGGTGGGTTGCCTTGTCAGGTTGATTCCGGTAACGAACGAGACCTCAGCCTGCTAAATAGTCACAGTTGCCTCTGGCAGCTGGCTGACTTCTTAGAGGGACTATTGTCGTTTAGGCAATGGAAGTATGAGGCAATAACAGGTCTGTGATGCCCTTAGATGTTCTGGGCCGCACGCGCGCTACACTGATGCATTCAACAAGCCTATCCTTGGCCGAGAGGCCCGGGTAATCTTTGAAACTGCATCGTGATGGGGATAGATTATTGCAATTATTAGTCTTCAACGAGGAATGCCTAGTAAGCGCGAGTCATCAGCTCGC'
p56
sg8
S'frwdrev'
p57
sg10
I01
sg11
g12
sg13
I01
sg14
(lp58
(dp59
g4
g12
sg6
g12
sg8
S'file'
p60
sg10
I00
sg11
g12
sg13
I00
sg14
(lp61
sg16
I00
sg17
I7
sg18
S'smallSphere_PAN1915_7-12L6-chloro18SMidF.ab1'
p62
sa(dp63
g4
g12
sg6
g12
sg8
S'file'
p64
sg10
I00
sg11
g12
sg13
I00
sg14
(lp65
sg16
I01
sg17
I6
sg18
S'smallSphere_PAN1915_7-12L6-snow18SseqR.ab1'
p66
sasg16
I00
sg17
I17
sg18
S'smallSphere_PAN1915_7-12L6_18SB'
p67
sa(dp68
g4
S'                                                                                                              NAACGGGCTCTTGGGCTTTACTGTCTGGGACTCGGAGTCGGCGAGGTTACTTTGAGTAAATTAGAGTGTTCAAAGCAAGCTTACGCTCTGAATACATTAGCATGGAATAACACGATAGGANTCTGGCCTATCTTGTTNGTCTGTAGGACTGGAGTAATGATTAAGAGGGACAGTCGGGGGCATTCGTATTTCATTGTCAGAGGTGAAATTCTTGGATTTATGAAAGACGAACTTCTGCGAAAGCATTTGCCAAGGATGTTTTCATTAATCAAGAACGAAAGTTGGGGGCTCGAAGACGATTAGATACCGTCGTAGTCTCAACCATAAACGATGCCGACTAGGGATTGGCAGGTGTTCTTTTGATGACCCTGCCAGCACCTTATGAGAAATCAAAGTTTTTGGGTTCCGGGGGGAGTATGGTCGCAAGGCTGAAACTTAAAGGAATTGACGGAAGGGCACCACCAGGCGTGGAGCCTGCGGCTTAATTTGACTCAACACGGGAAAACTTACCAGGTCCAGACACGGGGAGGATTGACAGATTGAGAGCTCTTTCTTGATTCTGTGGGTGGTGGTGCATGGCCGTTCTTAGTTGGTGGGTTGCCTTGTCAGGTTGATTCCGGTAACGAACGAGACCTCAGCCTGCTAAATAGTCACGTCTGCCTCTCGCAGACGGCCGACTTCTTAGAGGGACTATTGTCGTTTAGGCAATGGAAGTATGAGGCAATAACAGGTCTGTGATGCCCTTAGATGTTCTGGGCCGCACGCGCGCTACACTGATGCGTTCAACGAGCCTATCCTTGGCCGAGAGGCCCGGGTAATCTTCGAAACCGCATCGTGATGGGGATAGATTATTGCAATTATTAGTCTTCAACGAGGAATGCCTAGTAAGCGCGAGTCATCAGCTCNN                     '
p69
sg6
S'NAACGGGCTCTTGGGCTTTACTGTCTGGGACTCGGAGTCGGCGAGGTTACTTTGAGTAAATTAGAGTGTTCAAAGCAAGCTTACGCTCTGAATACATTAGCATGGAATAACACGATAGGANTCTGGCCTATCTTGTTNGTCTGTAGGACTGGAGTAATGATTAAGAGGGACAGTCGGGGGCATTCGTATTTCATTGTCAGAGGTGAAATTCTTGGATTTATGAAAGACGAACTTCTGCGAAAGCATTTGCCAAGGATGTTTTCATTAATCAAGAACGAAAGTTGGGGGCTCGAAGACGATTAGATACCGTCGTAGTCTCAACCATAAACGATGCCGACTAGGGATTGGCAGGTGTTCTTTTGATGACCCTGCCAGCACCTTATGAGAAATCAAAGTTTTTGGGTTCCGGGGGGAGTATGGTCGCAAGGCTGAAACTTAAAGGAATTGACGGAAGGGCACCACCAGGCGTGGAGCCTGCGGCTTAATTTGACTCAACACGGGAAAACTTACCAGGTCCAGACACGGGGAGGATTGACAGATTGAGAGCTCTTTCTTGATTCTGTGGGTGGTGGTGCATGGCCGTTCTTAGTTGGTGGGTTGCCTTGTCAGGTTGATTCCGGTAACGAACGAGACCTCAGCCTGCTAAATAGTCACGTCTGCCTCTCGCAGACGGCCGACTTCTTAGAGGGACTATTGTCGTTTAGGCAATGGAAGTATGAGGCAATAACAGGTCTGTGATGCCCTTAGATGTTCTGGGCCGCACGCGCGCTACACTGATGCGTTCAACGAGCCTATCCTTGGCCGAGAGGCCCGGGTAATCTTCGAAACCGCATCGTGATGGGGATAGATTATTGCAATTATTAGTCTTCAACGAGGAATGCCTAGTAAGCGCGAGTCATCAGCTCNN'
p70
sg8
S'frwdrev'
p71
sg10
I01
sg11
g12
sg13
I01
sg14
(lp72
(dp73
g4
g12
sg6
g12
sg8
S'file'
p74
sg10
I00
sg11
g12
sg13
I00
sg14
(lp75
sg16
I00
sg17
I5
sg18
S'star_BUG1903_7-22L1-chloro18SMidF.ab1'
p76
sa(dp77
g4
g12
sg6
g12
sg8
S'file'
p78
sg10
I00
sg11
g12
sg13
I00
sg14
(lp79
sg16
I01
sg17
I4
sg18
S'star_BUG1903_7-22L1-snow18SseqR.ab1'
p80
sasg16
I00
sg17
I16
sg18
S'star_BUG1903_7-22L1_18SB'
p81
sa(dp82
g4
S'                                                                                              AAAAAGNTNGTAGTTGGATTTCGGGTGGGTTGTAGTGGTCCGGTTCGCTGTGTACTGCTACGNNNTNCCTTTCTGCCGGNNAACAGGCTCTTGGGCTTCACTGTCTGGGACNTGGAGTCGGCGAGGTTACTTTGAGTAAATTAGAGTGTTCAAAGCAAGCTTACGCTCTGAATACATTAGCATGGAATAACACGATAGGACTCTGGCCTATCTTGTTGGTCTGTAGGACTGGAGTAATGATTAAGAGGGACAGTCGGGGGCATTCGTATTTCATTGTCAGAGGTGAAATTCTTGGATTTATGAAAGACGAACTTCTGCGAAAGCATTTGCCAAGGATGTTTTCATTAATCAAGAACGAAAGTTGGGGGCTCGAAGACGATTAGATACCGTCGTAGTCTCAACCATAAACGATGCCGACTAGGGATTGGCAGGTGTTCTTTTGATGACCCTGCCAGCACCTTATGAGAAATCAAAGTTTTTGGGTTCCGGGGGGAGTATGGTCGCAAGGCTGAAACTTAAAGGAATTGACGGAAGGGCACCACCAGGCGTGGAGCCTGCGGCTTAATTTGACTCAACACGGGAAAACTTACCAGGTCCAGACACGGGGAGGATTGACAGATTGAGAGCTCTTTCTTGATTCTGTGGGTGGTGGTGCATGGCCGTTCTTAGTTGGTGGGTTGCCTTGTCAGGTTGATTCCGGTAACGAACGAGACCTCAGCCTGCTAAATAGTCACGTCTGCCTCTCGCAGACGGCCGACTTCTTAGAGGGACTATTGTCGTTTAGGCAATGGAAGTATGAGGCAATAACAGGTCTGTGATGCCCTTAGATGTTCTGGGCCGCACGCGCGCTACACTGATGCGTTCAACGAGCCTATCCTTGGCCGAGAGGCCCGGGTAATCTTCGAAACCGCATCGTGATGGGGATAGATTATTGCAATTATTAGTCTTCAACGAGGAATGCCTAGTAAGCGCGAGTCATCAGCTCGCGN                  '
p83
sg6
S'AAAAAGNTNGTAGTTGGATTTCGGGTGGGTTGTAGTGGTCCGGTTCGCTGTGTACTGCTACGNNNTNCCTTTCTGCCGGNNAACAGGCTCTTGGGCTTCACTGTCTGGGACNTGGAGTCGGCGAGGTTACTTTGAGTAAATTAGAGTGTTCAAAGCAAGCTTACGCTCTGAATACATTAGCATGGAATAACACGATAGGACTCTGGCCTATCTTGTTGGTCTGTAGGACTGGAGTAATGATTAAGAGGGACAGTCGGGGGCATTCGTATTTCATTGTCAGAGGTGAAATTCTTGGATTTATGAAAGACGAACTTCTGCGAAAGCATTTGCCAAGGATGTTTTCATTAATCAAGAACGAAAGTTGGGGGCTCGAAGACGATTAGATACCGTCGTAGTCTCAACCATAAACGATGCCGACTAGGGATTGGCAGGTGTTCTTTTGATGACCCTGCCAGCACCTTATGAGAAATCAAAGTTTTTGGGTTCCGGGGGGAGTATGGTCGCAAGGCTGAAACTTAAAGGAATTGACGGAAGGGCACCACCAGGCGTGGAGCCTGCGGCTTAATTTGACTCAACACGGGAAAACTTACCAGGTCCAGACACGGGGAGGATTGACAGATTGAGAGCTCTTTCTTGATTCTGTGGGTGGTGGTGCATGGCCGTTCTTAGTTGGTGGGTTGCCTTGTCAGGTTGATTCCGGTAACGAACGAGACCTCAGCCTGCTAAATAGTCACGTCTGCCTCTCGCAGACGGCCGACTTCTTAGAGGGACTATTGTCGTTTAGGCAATGGAAGTATGAGGCAATAACAGGTCTGTGATGCCCTTAGATGTTCTGGGCCGCACGCGCGCTACACTGATGCGTTCAACGAGCCTATCCTTGGCCGAGAGGCCCGGGTAATCTTCGAAACCGCATCGTGATGGGGATAGATTATTGCAATTATTAGTCTTCAACGAGGAATGCCTAGTAAGCGCGAGTCATCAGCTCGCGN'
p84
sg8
S'frwdrev'
p85
sg10
I01
sg11
g12
sg13
I01
sg14
(lp86
(dp87
g4
g12
sg6
g12
sg8
S'file'
p88
sg10
I00
sg11
g12
sg13
I00
sg14
(lp89
sg16
I00
sg17
I3
sg18
S'thickwall_BLU1902_5-13T1-chloro18SMidF.ab1'
p90
sa(dp91
g4
g12
sg6
g12
sg8
S'file'
p92
sg10
I00
sg11
g12
sg13
I00
sg14
(lp93
sg16
I01
sg17
I2
sg18
S'thickwall_BLU1902_5-13T1-snow18SseqR.ab1'
p94
sasg16
I00
sg17
I15
sg18
S'thickwall_BLU1902_5-13T1_18SB'
p95
sa(dp96
g4
S'                                                                           GTAGTTGGATTTCGGGTGGGTTGTAGTGGTCCGGTTCGCTGTGTACTGCTACGNNNTNCCTTTCTGCCGGAAACAGGCTCTTGGGCTTNACTGTCTGGGACNTGGAGTCGGCGAGGTTACTTNGAGTAAATTAGAGTGTTCAAAGCAAGCTTACGCTCTGAATACATTAGCATGGAATAACACGATAGGACTCTGGCCTATCTTGTTGGTCTGTAGGACTGGAGTAATGATTAAGAGGGACAGTCGGGGGCATTCGTATTTCATTGTCAGAGGTGAAATTCTTGGATTTATGAAAGACGAACTTCTGCGAAAGCATTTGCCAAGGATGTTTTCATTAATCAAGAACGAAAGTTGGGGGCTCGAAGACGATTAGATACCGTCGTAGTCTCAACCATAAACGATGCCGACTAGGGATTGGCAGGTGTTCTTTTGATGACCCTGCCAGCACCTTATGAGAAATCAAAGTTTTTGGGTTCCGGGGGGAGTATGGTCGCAAGGCTGAAACTTAAAGGAATTGACGGAAGGGCACCACCAGGCGTGGAGCCTGCGGCTTAATTTGACTCAACACGGGAAAACTTACCAGGTCCAGACACGGGGAGGATTGACAGATTGAGAGCTCTTTCTTGATTCTGTGGGTGGTGGTGCATGGCCGTTCTTAGTTGGTGGGTTGCCTTGTCAGGTTGATTCCGGTAACGAACGAGACCTCAGCCTGCTAAATAGTCACGTCTGCCTCTCGCAGACGGCCGACTTCTTAGAGGGACTATTGTCGTTTAGGCAATGGAAGTATGAGGCAATAACAGGTCTGTGATGCCNCTTAGATGTTCTGGGCCGCACGCGCGCTACACTGATGCGTTCAACGAGCCTATCCTTGGCCGAGAGNGCCCGGGTAATCTTCGAAACCGCATCGTGATGGGGATAGATTATTGCAATTATTAGTCTTCAACGAGGAATGCCTAGTAAGCGCGAGTCATCAGCTCGN                    '
p97
sg6
S'GTAGTTGGATTTCGGGTGGGTTGTAGTGGTCCGGTTCGCTGTGTACTGCTACGNNNTNCCTTTCTGCCGGAAACAGGCTCTTGGGCTTNACTGTCTGGGACNTGGAGTCGGCGAGGTTACTTNGAGTAAATTAGAGTGTTCAAAGCAAGCTTACGCTCTGAATACATTAGCATGGAATAACACGATAGGACTCTGGCCTATCTTGTTGGTCTGTAGGACTGGAGTAATGATTAAGAGGGACAGTCGGGGGCATTCGTATTTCATTGTCAGAGGTGAAATTCTTGGATTTATGAAAGACGAACTTCTGCGAAAGCATTTGCCAAGGATGTTTTCATTAATCAAGAACGAAAGTTGGGGGCTCGAAGACGATTAGATACCGTCGTAGTCTCAACCATAAACGATGCCGACTAGGGATTGGCAGGTGTTCTTTTGATGACCCTGCCAGCACCTTATGAGAAATCAAAGTTTTTGGGTTCCGGGGGGAGTATGGTCGCAAGGCTGAAACTTAAAGGAATTGACGGAAGGGCACCACCAGGCGTGGAGCCTGCGGCTTAATTTGACTCAACACGGGAAAACTTACCAGGTCCAGACACGGGGAGGATTGACAGATTGAGAGCTCTTTCTTGATTCTGTGGGTGGTGGTGCATGGCCGTTCTTAGTTGGTGGGTTGCCTTGTCAGGTTGATTCCGGTAACGAACGAGACCTCAGCCTGCTAAATAGTCACGTCTGCCTCTCGCAGACGGCCGACTTCTTAGAGGGACTATTGTCGTTTAGGCAATGGAAGTATGAGGCAATAACAGGTCTGTGATGCCNCTTAGATGTTCTGGGCCGCACGCGCGCTACACTGATGCGTTCAACGAGCCTATCCTTGGCCGAGAGNGCCCGGGTAATCTTCGAAACCGCATCGTGATGGGGATAGATTATTGCAATTATTAGTCTTCAACGAGGAATGCCTAGTAAGCGCGAGTCATCAGCTCGN'
p98
sg8
S'frwdrev'
p99
sg10
I01
sg11
g12
sg13
I01
sg14
(lp100
(dp101
g4
g12
sg6
g12
sg8
S'file'
p102
sg10
I00
sg11
g12
sg13
I00
sg14
(lp103
sg16
I00
sg17
I1
sg18
S'thickwall_DOG1906_7-12L7-chloro18SMidF.ab1'
p104
sa(dp105
g4
g12
sg6
g12
sg8
S'file'
p106
sg10
I00
sg11
g12
sg13
I00
sg14
(lp107
sg16
I01
sg17
I0
sg18
S'thickwall_DOG1906_7-12L7-snow18SseqR.ab1'
p108
sasg16
I00
sg17
I14
sg18
S'thickwall_DOG1906_7-12L7_18SB'
p109
sasS'formatversion'
p110
S'0.9'
p111
sS'consseqsettings'
p112
(dp113
S'consensus_algorithm'
p114
S'Bayesian'
p115
sS'do_qualitytrim'
p116
I01
sS'qualitytrim_winsize'
p117
I10
sS'primermatch_threshold'
p118
F0.8
sS'trim_endgaps'
p119
I00
sS'min_confscore'
p120
I30
sS'forward_primer'
p121
g12
sS'reverse_primer'
p122
g12
sS'qualitytrim_basecnt'
p123
I8
sS'trim_consensus'
p124
I01
sS'trim_primers'
p125
I00
ssS'properties'
p126
(dp127
S'fwd_trace_searchstr'
p128
S'_F'
p129
sS'rev_trace_searchstr'
p130
S'_R'
p131
sS'trace_file_dir'
p132
S'.'
p133
ss.