(dp0
S'items'
p1
(lp2
(dp3
S'fullcons'
p4
S'                         ANNGTG ATTGCAGAATTCCGTGAACCATCGAATTTTTGAACGCATATTGCGGTCAAGGCCTCGGCTAAGACCATGTCTGCCTCAGCGTCGGGTTAATTGTCCCATTTAACACCTGCNCTTAAACCGCATCTGTTATCCACATGGGGATCAATCGCAGTCTGGGTCTTGGTAAAACAAGTACCAGTCTGCCCAAGTATTTATTAGGTGCTTCCTTGCATGAGCGCATTTGTTTATTCACTTGCGTTCAATACAAGCCGCACTCGAGTATTCATCTTGTATGTTTAATCGAATCTGCTGGTTTGGGCATCGAACTCTGTTGCGTCTGCCTCACGGCAGTCACCTCAGATCTCCCCTATTAAAATTGGAAACCCAACACTTCTCGACCTGAGCTCAGGCAAGATTACCCGCTGAACTTAAGCATATCAATAAGCGGAGGAAAAGAAACCAACC AGGATTCCCCTAGTAACGGCGAGCGAACCGGGAAAAGCCCAACTTGAAAATCTCCCTTTTGGAGAATTGTAGTCTACAGAAGTGCCCTCTGCGGCCAGGGGAGCTCAAGTCCGCTGGAAGGCGGCGTCAAAGAGGGTGAGAACCCCGTCAGCTCTTTCTGTGCTTCATCACGAGGTGCTTTCCACGAGTCGGGTTGTTTGGGAATGCAGCCCAAAANTGGAGGTN                                         '
p5
sS'compactcons'
p6
S'ANNGTGATTGCAGAATTCCGTGAACCATCGAATTTTTGAACGCATATTGCGGTCAAGGCCTCGGCTAAGACCATGTCTGCCTCAGCGTCGGGTTAATTGTCCCATTTAACACCTGCNCTTAAACCGCATCTGTTATCCACATGGGGATCAATCGCAGTCTGGGTCTTGGTAAAACAAGTACCAGTCTGCCCAAGTATTTATTAGGTGCTTCCTTGCATGAGCGCATTTGTTTATTCACTTGCGTTCAATACAAGCCGCACTCGAGTATTCATCTTGTATGTTTAATCGAATCTGCTGGTTTGGGCATCGAACTCTGTTGCGTCTGCCTCACGGCAGTCACCTCAGATCTCCCCTATTAAAATTGGAAACCCAACACTTCTCGACCTGAGCTCAGGCAAGATTACCCGCTGAACTTAAGCATATCAATAAGCGGAGGAAAAGAAACCAACCAGGATTCCCCTAGTAACGGCGAGCGAACCGGGAAAAGCCCAACTTGAAAATCTCCCTTTTGGAGAATTGTAGTCTACAGAAGTGCCCTCTGCGGCCAGGGGAGCTCAAGTCCGCTGGAAGGCGGCGTCAAAGAGGGTGAGAACCCCGTCAGCTCTTTCTGTGCTTCATCACGAGGTGCTTTCCACGAGTCGGGTTGTTTGGGAATGCAGCCCAAAANTGGAGGTN'
p7
sS'itemtype'
p8
S'frwdrev'
p9
sS'useseq'
p10
I01
sS'notes'
p11
S''
p12
sS'hasseq'
p13
I01
sS'children'
p14
(lp15
(dp16
g4
g12
sg6
g12
sg8
S'file'
p17
sg10
I00
sg11
g12
sg13
I00
sg14
(lp18
sS'isreverse'
p19
I00
sS'id'
p20
I18
sS'name'
p21
S'bigOrangeBrevi_TEM2206_7-7L2-chloroITS2F.ab1'
p22
sa(dp23
g4
g12
sg6
g12
sg8
S'file'
p24
sg10
I00
sg11
g12
sg13
I00
sg14
(lp25
sg19
I01
sg20
I3
sg21
S'bigOrangeBrevi_TEM2206_7-7L2-chloroITS2R.ab1'
p26
sasg19
I00
sg20
I27
sg21
S'bigOrangeBrevi_TEM2206_7-7L2_ITS2'
p27
sa(dp28
g4
S'                        NGTGNATTGCAGAATTCCGTGAACCATCGAATTTTTGAACGCATATTGCGCTCAAGGCTTCGGCCAAGAGCATGTCTGCCTCAGCGTCGGGTTCTCCATCATTGACTCCTCCCTCCTCACAGAGAGAGTAGCCATGGAAACTCGCAGTCCGATCCTCTGTTCTTAACCGAACGTTGGTGAGGTCTGCCAAAGTGAAAGTAGCGCTCCGAGCATCACCCATTCGTCTGTCAGCAATGGCGGGCGAGTGGGTATGTAGCCGCACTCGAGTAGNTGCGAATTCGCATGTTCACATGTGTTTTTCCTACCCGACTATCCTACACTTGCCCGGCTTCTCTCTGATCCTCATCGGTCTTCTTCACGGAACGCCTTTGATTTCAGNTAGGAAGAACCAGCCTATATATACCTCCCAACATGGAACCCTTCACTTCTCGACCTGAGCTCAGGCAAGATTACCCGCTGAACTTAAGCATATCAATAAGCGGAGGAAAAGAAACCAACCAGGATTCCCCTAGTAACGGCGAGCGAACCGGGATCAGCCCAACTTGAAAATCTCCCTCTTGGAGAATTGTAGTCTACAGAAGTGCCCTCTGTGGTCATGCGAACTCAAGTCCGCTGGAAAGCGGCGTCAGAGAGGGTGAGAACCCCGTCGGTTCGCATTTGACCGCACCACGAGGTGCTTTCCACGAGTCGGGTTGTTTGGGAATGCAGCCCAAAANTGGAGGTAAATCNNTTC                                 '
p29
sg6
S'NGTGNATTGCAGAATTCCGTGAACCATCGAATTTTTGAACGCATATTGCGCTCAAGGCTTCGGCCAAGAGCATGTCTGCCTCAGCGTCGGGTTCTCCATCATTGACTCCTCCCTCCTCACAGAGAGAGTAGCCATGGAAACTCGCAGTCCGATCCTCTGTTCTTAACCGAACGTTGGTGAGGTCTGCCAAAGTGAAAGTAGCGCTCCGAGCATCACCCATTCGTCTGTCAGCAATGGCGGGCGAGTGGGTATGTAGCCGCACTCGAGTAGNTGCGAATTCGCATGTTCACATGTGTTTTTCCTACCCGACTATCCTACACTTGCCCGGCTTCTCTCTGATCCTCATCGGTCTTCTTCACGGAACGCCTTTGATTTCAGNTAGGAAGAACCAGCCTATATATACCTCCCAACATGGAACCCTTCACTTCTCGACCTGAGCTCAGGCAAGATTACCCGCTGAACTTAAGCATATCAATAAGCGGAGGAAAAGAAACCAACCAGGATTCCCCTAGTAACGGCGAGCGAACCGGGATCAGCCCAACTTGAAAATCTCCCTCTTGGAGAATTGTAGTCTACAGAAGTGCCCTCTGTGGTCATGCGAACTCAAGTCCGCTGGAAAGCGGCGTCAGAGAGGGTGAGAACCCCGTCGGTTCGCATTTGACCGCACCACGAGGTGCTTTCCACGAGTCGGGTTGTTTGGGAATGCAGCCCAAAANTGGAGGTAAATCNNTTC'
p30
sg8
S'frwdrev'
p31
sg10
I01
sg11
g12
sg13
I01
sg14
(lp32
(dp33
g4
g12
sg6
g12
sg8
S'file'
p34
sg10
I00
sg11
g12
sg13
I00
sg14
(lp35
sg19
I00
sg20
I24
sg21
S'callous_DOG1906_7-12L7-chloroITS2F.ab1'
p36
sa(dp37
g4
g12
sg6
g12
sg8
S'file'
p38
sg10
I00
sg11
g12
sg13
I00
sg14
(lp39
sg19
I01
sg20
I9
sg21
S'callous_DOG1906_7-12L7-chloroITS2R.ab1'
p40
sasg19
I00
sg20
I28
sg21
S'callous_DOG1906_7-12L7_ITS2'
p41
sa(dp42
g4
S'                                       NNGTTGTTATGACNTCGAACCAGTTGCTGGTGAAGAAAACCAATACATTGCTTACGTTGCTTACCCTATCGACTTATTTGAAGAAGGTTCTGTAACTAACTTATTCACGTCAATTGTTGGTAACGTTTTTGGTTTCAAAGCTCTTCGTGCTCTTCGTCTTGAAGATTTACGTATTTCTTGTGCTTATGCTAAAACATTCCAAGGACCTCCTCACGGTATCCAAGTAGAACGTGACAAATTAAACAAATACGGACGTGGTCTTTTAGGCTGTACAATCAAACCTAAATTAGGTCTTTCAGCTAAAAACTATGGTCGTGCTGTTTACGAATGTTTACGTGGTGGTTTAGACTTTACAAAAGACGATGAAAACGTAACATCTCAAGCTTTCATGCGTTGGAGAGACCGTTTTATCTTCGTTGCTGAAGCTCTTTACAAATCTCAAGCTGAAACTGGCGAAATTAAAGGTCACTACCTTAACGTAACTGCTGGTACATCAGAAGAAATGCTAAAACGTGCTGAAGTAGCTAAAGATTTAGGGGTACCAATCATCATGCATGACTACTTAACTGGTGGTTTAACTGCAAACACTTCATTAGCTCACTACTGTCGTGACAACGGTCTATTACTACACATTCACAGAGCTATGCACGCGGTTATTGACCGTCAAAGAAACCACGGTATCCATTTCCGTGTTTTAGCTAAAGCTCTTCGTCTGTCAGGTGGTGACCACCTTCACTCAGGAACAGTTGTAGGTAAACTAGAAGGGGAACGTGAAGTTACTCTTGGTTTCGTTGATTTAATGCGTGACGAATACATCGAAAAAGACCGTAGCCGTGGTATTTANTTCACACAANAN                                     '
p43
sg6
S'NNGTTGTTATGACNTCGAACCAGTTGCTGGTGAAGAAAACCAATACATTGCTTACGTTGCTTACCCTATCGACTTATTTGAAGAAGGTTCTGTAACTAACTTATTCACGTCAATTGTTGGTAACGTTTTTGGTTTCAAAGCTCTTCGTGCTCTTCGTCTTGAAGATTTACGTATTTCTTGTGCTTATGCTAAAACATTCCAAGGACCTCCTCACGGTATCCAAGTAGAACGTGACAAATTAAACAAATACGGACGTGGTCTTTTAGGCTGTACAATCAAACCTAAATTAGGTCTTTCAGCTAAAAACTATGGTCGTGCTGTTTACGAATGTTTACGTGGTGGTTTAGACTTTACAAAAGACGATGAAAACGTAACATCTCAAGCTTTCATGCGTTGGAGAGACCGTTTTATCTTCGTTGCTGAAGCTCTTTACAAATCTCAAGCTGAAACTGGCGAAATTAAAGGTCACTACCTTAACGTAACTGCTGGTACATCAGAAGAAATGCTAAAACGTGCTGAAGTAGCTAAAGATTTAGGGGTACCAATCATCATGCATGACTACTTAACTGGTGGTTTAACTGCAAACACTTCATTAGCTCACTACTGTCGTGACAACGGTCTATTACTACACATTCACAGAGCTATGCACGCGGTTATTGACCGTCAAAGAAACCACGGTATCCATTTCCGTGTTTTAGCTAAAGCTCTTCGTCTGTCAGGTGGTGACCACCTTCACTCAGGAACAGTTGTAGGTAAACTAGAAGGGGAACGTGAAGTTACTCTTGGTTTCGTTGATTTAATGCGTGACGAATACATCGAAAAAGACCGTAGCCGTGGTATTTANTTCACACAANAN'
p44
sg8
S'frwdrev'
p45
sg10
I01
sg11
g12
sg13
I01
sg14
(lp46
(dp47
g4
g12
sg6
g12
sg8
S'file'
p48
sg10
I00
sg11
g12
sg13
I00
sg14
(lp49
sg19
I00
sg20
I19
sg21
S'chlain_P6618_7-13L3-remiasii_rbcL_F.ab1'
p50
sa(dp51
g4
g12
sg6
g12
sg8
S'file'
p52
sg10
I00
sg11
g12
sg13
I00
sg14
(lp53
sg19
I01
sg20
I4
sg21
S'chlain_P6618_7-13L3-remiasii_rbcL_R.ab1'
p54
sasg19
I00
sg20
I29
sg21
S'chlain_P6618_7-13L3-remiasii_rbcL'
p55
sa(dp56
g4
S'               GANNCGTAGTGNGAATTGCAGAATTCCGTGAACCATCGAATTTTTGAACGCATATTGCGCTCAAGGCTTCGGCCAAGAGCATGTCTGCCTCAGCGTCGGGTTCTCCATCATCGACTCTCTCCTTCTNTCGAAGAGGAGAGTCGTGGAAACTCGCAGTCCGATCCTCCGTTCTTCATTGAGCGTTGGTGAGGTCTGCCAAAGTGAAAGTAGCGCTCCGAGCATTGCCCATCTACACGTCAGCAATGGCGTGTGGTTGGGTATGTAGCCGCACTCGAGTAGTTGTGATCTCACATGTGTTAACTCACGTGTGTTTTTCCCTTACCCGACTATCCTACGCCTTGCTCGTCATCTCTTTGACGTCTTCATGACAACATCNGAGACGAAACCAGCCTATACAAGTATACCTCCCAACATGGAACCCTTCACTTCTCGACCTGAGCTCAGGCAAGATTACCCGCTGAACTTAAGCATATCAATAAGCGGAGGAAAAGAAACCAACCAGGATTCCCCTAGTAACGGCGAGCGAACCGGGATCAGCCCAACTTGAAAATCTCCCTCTTGGAGAATTGTAGTCTACAGAAGTGCCCTCTGTGGCCGTGGGAGCTCAAGTTCGCTGGAAGGCGACGTCAAAGAGGGTGAGAACCCCGTCGGCTCCCATCTGGCCGCACCACGAGGTGCTTTCCACGAGTCGGGTTGTTTGGGAATGCAGCCCAAAATTGGAGGTAAATCCCTTCTAAGGNTAAATAACGGNGANAGA                        '
p57
sg6
S'GANNCGTAGTGNGAATTGCAGAATTCCGTGAACCATCGAATTTTTGAACGCATATTGCGCTCAAGGCTTCGGCCAAGAGCATGTCTGCCTCAGCGTCGGGTTCTCCATCATCGACTCTCTCCTTCTNTCGAAGAGGAGAGTCGTGGAAACTCGCAGTCCGATCCTCCGTTCTTCATTGAGCGTTGGTGAGGTCTGCCAAAGTGAAAGTAGCGCTCCGAGCATTGCCCATCTACACGTCAGCAATGGCGTGTGGTTGGGTATGTAGCCGCACTCGAGTAGTTGTGATCTCACATGTGTTAACTCACGTGTGTTTTTCCCTTACCCGACTATCCTACGCCTTGCTCGTCATCTCTTTGACGTCTTCATGACAACATCNGAGACGAAACCAGCCTATACAAGTATACCTCCCAACATGGAACCCTTCACTTCTCGACCTGAGCTCAGGCAAGATTACCCGCTGAACTTAAGCATATCAATAAGCGGAGGAAAAGAAACCAACCAGGATTCCCCTAGTAACGGCGAGCGAACCGGGATCAGCCCAACTTGAAAATCTCCCTCTTGGAGAATTGTAGTCTACAGAAGTGCCCTCTGTGGCCGTGGGAGCTCAAGTTCGCTGGAAGGCGACGTCAAAGAGGGTGAGAACCCCGTCGGCTCCCATCTGGCCGCACCACGAGGTGCTTTCCACGAGTCGGGTTGTTTGGGAATGCAGCCCAAAATTGGAGGTAAATCCCTTCTAAGGNTAAATAACGGNGANAGA'
p58
sg8
S'frwdrev'
p59
sg10
I01
sg11
g12
sg13
I01
sg14
(lp60
(dp61
g4
g12
sg6
g12
sg8
S'file'
p62
sg10
I00
sg11
g12
sg13
I00
sg14
(lp63
sg19
I00
sg20
I21
sg21
S'cog_GAR1930_7-12L1-chloroITS2F.ab1'
p64
sa(dp65
g4
g12
sg6
g12
sg8
S'file'
p66
sg10
I00
sg11
g12
sg13
I00
sg14
(lp67
sg19
I01
sg20
I6
sg21
S'cog_GAR1930_7-12L1-chloroITS2R.ab1'
p68
sasg19
I00
sg20
I30
sg21
S'cog_GAR1930_7-12L1_ITS2'
p69
sa(dp70
g4
S'                          NNTCCGTGAACNNTCGAATTTTTGAACGCATATTGCGCTCAAGGCTTCGGCCAAGAGCATGCCTGCCTCAGCGTCGGGTTCTCCATCATCTACTCTTCTCTTTTAAACGAGAGGAGAGTCGTGGAAACTCGCAGTCCGATCCTCCGTCCTTCATTGGGCGTTGGTGAGGTCTGCCAAAGTGAAAGTAGC GCNTCNGAGCATTGCCCNTCCATCCGTCAGCAATGNCGGGTGGGTGG GTATGTAGCCGCAC TCGAGTAGTTGTGAATTC GCATGCTCACGCNTGTGTTTTTCCTACCCGATTATCNCTACACTTGCCCGGCTTCGTT TT GATTCTGAGGGCCTTGTGTTTACACAACTCCTTCGGTCTCATCCACGAAGTACNCAAGCCCTATATAAGTATACCTCCCAACATGGAACCCTTCACTTCTCGACCTGAGCTCAGACAAGATNACCCGCTGAACTTAAGCATATCAATAAGCGGAGGAAAAGAAACCAACCAGGATTCCCCTAGTAACGGCGAGCGAACCGGGATCAGCCCAACTTGAAAATCTCCCTCTTGGAGAATTGTAGTCTACAGAAGTGCCCTCTGTGGTCGTGGGAGCTCAAGTCCGCTGGAAGGCGGCGTCAAAGAGGGTGAGAACCCCGTCGGCTCCCATCTGACCGCACCACGAGGTGCTTTCCACGAGTCGGGTTGTTTGGGAATGCAGCCCAAAATTGGAGGTAAATCCCTTCTAAGG                                        '
p71
sg6
S'NNTCCGTGAACNNTCGAATTTTTGAACGCATATTGCGCTCAAGGCTTCGGCCAAGAGCATGCCTGCCTCAGCGTCGGGTTCTCCATCATCTACTCTTCTCTTTTAAACGAGAGGAGAGTCGTGGAAACTCGCAGTCCGATCCTCCGTCCTTCATTGGGCGTTGGTGAGGTCTGCCAAAGTGAAAGTAGCGCNTCNGAGCATTGCCCNTCCATCCGTCAGCAATGNCGGGTGGGTGGGTATGTAGCCGCACTCGAGTAGTTGTGAATTCGCATGCTCACGCNTGTGTTTTTCCTACCCGATTATCNCTACACTTGCCCGGCTTCGTTTTGATTCTGAGGGCCTTGTGTTTACACAACTCCTTCGGTCTCATCCACGAAGTACNCAAGCCCTATATAAGTATACCTCCCAACATGGAACCCTTCACTTCTCGACCTGAGCTCAGACAAGATNACCCGCTGAACTTAAGCATATCAATAAGCGGAGGAAAAGAAACCAACCAGGATTCCCCTAGTAACGGCGAGCGAACCGGGATCAGCCCAACTTGAAAATCTCCCTCTTGGAGAATTGTAGTCTACAGAAGTGCCCTCTGTGGTCGTGGGAGCTCAAGTCCGCTGGAAGGCGGCGTCAAAGAGGGTGAGAACCCCGTCGGCTCCCATCTGACCGCACCACGAGGTGCTTTCCACGAGTCGGGTTGTTTGGGAATGCAGCCCAAAATTGGAGGTAAATCCCTTCTAAGG'
p72
sg8
S'frwdrev'
p73
sg10
I01
sg11
g12
sg13
I01
sg14
(lp74
(dp75
g4
g12
sg6
g12
sg8
S'file'
p76
sg10
I00
sg11
g12
sg13
I00
sg14
(lp77
sg19
I00
sg20
I14
sg21
S'cog_P6618_6-29L1-chloroITS2F.ab1'
p78
sa(dp79
g4
g12
sg6
g12
sg8
S'file'
p80
sg10
I00
sg11
g12
sg13
I00
sg14
(lp81
sg19
I01
sg20
I16
sg21
S'cog_P6618_6-29L1-chloroITS2R.ab1'
p82
sasg19
I00
sg20
I31
sg21
S'cog_P6618_6-29L1_ITS2'
p83
sa(dp84
g4
S'     TGCGAATGGCTCATTAAATCAGTTATAGTTTATTTGATGATACTTACTACTCGGATAACCGTAGTAATTCTAGAGCTAATACGTGCGCACATCCCGACTTCTGGAAGGGACGTATTTATTAGATAAAAGGCCAGCCGAGCTTGCTCGACTTGAGGTGAATCATGATAACTCCACGAATCGCACGGCCTCGCGCCGGCGATGTTTCTTTCAAATTTCTGCCCTATCAACTTTCGATGGTAGGATAGAGGCCTACCATGGTGGTAACGGGTGACGGAGGATTAGGGTTCGATTCCGGAGAGGGAGCCTGAGAAATGGCTACCACATCCAAGGAAGGCAGCAGGCGCGCAAATTACCCAATCCCGACACGGGGAGGTAGTGACAATAAATAACAATACCGGGCATTTTATGTCTGGTAATTGGAATGAGCACAATCTAAATCCCTTAACGAGGATCCATTGGAGGGCAAGTCTGGTGCCAGCAGCCGCGGTAATTCCAGCTCCAATAGCGTATATTTAAGTTGTTGCAGTTAAAAAGCTCGTAGTTGGATTTCGGATGGGTAGCAATGGTCCGGTTCGCTGTGTACTGTTGCTGCCTATCTTTCTGCCGGAAATGGGATCTTAGGCTTTACTGTCTGAGACCTAGAGTCGGCGAGGTTACTTTGAGTAAATTAGAGTGTTCAAAGCAAGCTTACGCTCTGAATACATTAGCATGGAATAACACAATAGGACTTCGGCCTATCTTGTTGGTCTGTAGGACTGAAGTAATGATTAAGAGGGACAGTCGGGGGCATTCGTATTTCATTGTCAGAGGTGAAATTCTTGGATTTATGAAAGACGAACTTCTGCGAAAGCATTTGCCAAGGATGTTTTCATTAATCAAGAACGAAAGTTGGGGGCTCGAAGACGATTAGATACCGTCGTAGTCTCAACCATAAACGATGCCGACTA                                                                                                                                                  '
p85
sg6
S'TGCGAATGGCTCATTAAATCAGTTATAGTTTATTTGATGATACTTACTACTCGGATAACCGTAGTAATTCTAGAGCTAATACGTGCGCACATCCCGACTTCTGGAAGGGACGTATTTATTAGATAAAAGGCCAGCCGAGCTTGCTCGACTTGAGGTGAATCATGATAACTCCACGAATCGCACGGCCTCGCGCCGGCGATGTTTCTTTCAAATTTCTGCCCTATCAACTTTCGATGGTAGGATAGAGGCCTACCATGGTGGTAACGGGTGACGGAGGATTAGGGTTCGATTCCGGAGAGGGAGCCTGAGAAATGGCTACCACATCCAAGGAAGGCAGCAGGCGCGCAAATTACCCAATCCCGACACGGGGAGGTAGTGACAATAAATAACAATACCGGGCATTTTATGTCTGGTAATTGGAATGAGCACAATCTAAATCCCTTAACGAGGATCCATTGGAGGGCAAGTCTGGTGCCAGCAGCCGCGGTAATTCCAGCTCCAATAGCGTATATTTAAGTTGTTGCAGTTAAAAAGCTCGTAGTTGGATTTCGGATGGGTAGCAATGGTCCGGTTCGCTGTGTACTGTTGCTGCCTATCTTTCTGCCGGAAATGGGATCTTAGGCTTTACTGTCTGAGACCTAGAGTCGGCGAGGTTACTTTGAGTAAATTAGAGTGTTCAAAGCAAGCTTACGCTCTGAATACATTAGCATGGAATAACACAATAGGACTTCGGCCTATCTTGTTGGTCTGTAGGACTGAAGTAATGATTAAGAGGGACAGTCGGGGGCATTCGTATTTCATTGTCAGAGGTGAAATTCTTGGATTTATGAAAGACGAACTTCTGCGAAAGCATTTGCCAAGGATGTTTTCATTAATCAAGAACGAAAGTTGGGGGCTCGAAGACGATTAGATACCGTCGTAGTCTCAACCATAAACGATGCCGACTA'
p86
sg8
S'frwdrev'
p87
sg10
I01
sg11
g12
sg13
I01
sg14
(lp88
(dp89
g4
g12
sg6
g12
sg8
S'file'
p90
sg10
I00
sg11
g12
sg13
I00
sg14
(lp91
sg19
I00
sg20
I22
sg21
S'football_PAN1918_5-25L2-chloro18SF.ab1'
p92
sa(dp93
g4
g12
sg6
g12
sg8
S'file'
p94
sg10
I00
sg11
g12
sg13
I00
sg14
(lp95
sg19
I01
sg20
I7
sg21
S'football_PAN1918_5-25L2-chloro18SmidR.ab1'
p96
sasg19
I00
sg20
I39
sg21
S'football_PAN1918_5-25L2_18S1'
p97
sa(dp98
g4
S'                                 NAGGNGAAATTCTTGGATTTATGAAAGACGAACTTCTGCGAAAGCATTTGCCAAGGATGTTTTCATTAATCAAGAACGAAAGTTGGGGGCTCGAAGACGATTAGATACCGTCGTAGTCTCAACCATAAACGATGCCGACTAGGGATTGGCAGGTGTTCTTTTGATGACCCTGCCAGCACCTTATGAGAAATCAAAGTTTTTGGGTTCCGGGGGGAGTATGGTCGCAAGGCTGAAACTTAAAGGAATTGACGGAAGGGCACCACCAGGCGTGGAGCCTGCGGCTTAATTTGACTCAACACGGGAAAACTTACCAGGTCCAGACACGGGGAGGATTGACAGATTGAGAGCTCTTTCTTGATTCTGTGGGTGGTGGTGCATGGCCGTTCTTAGTTGGTGGGTTGCCTTGTCAGGTTGATTCCGGTAACGAACGAGACCTCAGCCTGCTAAATAGTCACATCTGCCTCTCGCAGCTGGCCGACTTCTTAGAGGGACTATTGTCGTTTAGGCAATGGAAGTATGAGGCAATAACAGGTCTGTGATGCCCTTAGATGTTCTGGGCCGCACGCGCGCTACACTGATGCGTTCAACGAGCCTATCCTTGGCCGAGAGGCCCGGGTAATCTTCGAAACCGCATCGTGATGGGGATAGATTATTGCAATTATTAGTCTTCNACGANGAATGNCTAGTAAGCGCGAGTCATCAGCTCGCGTTGATTACGTCCCTGCCCTTTGTACACACCGCCCGTCGCTCCTACCGATTGAGTGTGCTGGTGAAGTGTTCGGATTGGCCATAGTCTGTGGCAAC                                            '
p99
sg6
S'NAGGNGAAATTCTTGGATTTATGAAAGACGAACTTCTGCGAAAGCATTTGCCAAGGATGTTTTCATTAATCAAGAACGAAAGTTGGGGGCTCGAAGACGATTAGATACCGTCGTAGTCTCAACCATAAACGATGCCGACTAGGGATTGGCAGGTGTTCTTTTGATGACCCTGCCAGCACCTTATGAGAAATCAAAGTTTTTGGGTTCCGGGGGGAGTATGGTCGCAAGGCTGAAACTTAAAGGAATTGACGGAAGGGCACCACCAGGCGTGGAGCCTGCGGCTTAATTTGACTCAACACGGGAAAACTTACCAGGTCCAGACACGGGGAGGATTGACAGATTGAGAGCTCTTTCTTGATTCTGTGGGTGGTGGTGCATGGCCGTTCTTAGTTGGTGGGTTGCCTTGTCAGGTTGATTCCGGTAACGAACGAGACCTCAGCCTGCTAAATAGTCACATCTGCCTCTCGCAGCTGGCCGACTTCTTAGAGGGACTATTGTCGTTTAGGCAATGGAAGTATGAGGCAATAACAGGTCTGTGATGCCCTTAGATGTTCTGGGCCGCACGCGCGCTACACTGATGCGTTCAACGAGCCTATCCTTGGCCGAGAGGCCCGGGTAATCTTCGAAACCGCATCGTGATGGGGATAGATTATTGCAATTATTAGTCTTCNACGANGAATGNCTAGTAAGCGCGAGTCATCAGCTCGCGTTGATTACGTCCCTGCCCTTTGTACACACCGCCCGTCGCTCCTACCGATTGAGTGTGCTGGTGAAGTGTTCGGATTGGCCATAGTCTGTGGCAAC'
p100
sg8
S'file'
p101
sg10
I01
sg11
g12
sg13
I01
sg14
(lp102
sg19
I00
sg20
I10
sg21
S'football_PAN1918_5-25L2-chloro18SmidF.ab1'
p103
sa(dp104
g4
S'     AACGCAGCGAAATGCGATACGTAGTGTGAATTGCAGAATTCCGTGAACCATCGAATTTTTGAACGCATATTGCGGTCAAGGCCTCGGCTAAGACCATGTCTGCCTCAGCGTCGGGTTAATTGTCCCATTTAACACTTGCTTAAAACACAAGTGTTATCCACATGGGGATCAATCGCAGTCTGGGTCTTGGCAACAAGTACCAGTCTGCCCAAGTATTTATTAGGTGCTTCCTTGCATGGGTGCATTTGTTTATTCACTTGCATTCAACACAAGCCGCACTCGAGTATTCATCTTGTATGTTTAATCGAATCTGCTGGTTTGGGCAAAGAACTCTGCTGTGCGCAAGCGCTTCAGATCTCCCCTATTAAAATTGGAAACCCAACACTTCTCGACCTGAGCTCAGGCAAGATTACCCGCTGAACTTAAGCATATCAATAAGCGGAGGAAAAGAAACCAACCAGGATTCCCCTAGTAACGGCGAGCGAACCGGGAAAAGCCCAACTTGAAAATCTCCCTTTTGGAGAATTGTAGTCTACAGAAGTGCCCTCTGCGGCCAGGGGAGCTCAAGTCCGCTGGAAGGCGGCGTCAAAGAGGGTGAGAACCCCGTCAGCTCTTTCTGTGCTTCATCACGAGGTGCTTTCCACGAGTCGGGTTGTTTGGGAATGCAGCCCAAAATTGGAGGTAAATCCCTTCTAAGGCTAAATAATGGCGAGAGA            '
p105
sg6
S'AACGCAGCGAAATGCGATACGTAGTGTGAATTGCAGAATTCCGTGAACCATCGAATTTTTGAACGCATATTGCGGTCAAGGCCTCGGCTAAGACCATGTCTGCCTCAGCGTCGGGTTAATTGTCCCATTTAACACTTGCTTAAAACACAAGTGTTATCCACATGGGGATCAATCGCAGTCTGGGTCTTGGCAACAAGTACCAGTCTGCCCAAGTATTTATTAGGTGCTTCCTTGCATGGGTGCATTTGTTTATTCACTTGCATTCAACACAAGCCGCACTCGAGTATTCATCTTGTATGTTTAATCGAATCTGCTGGTTTGGGCAAAGAACTCTGCTGTGCGCAAGCGCTTCAGATCTCCCCTATTAAAATTGGAAACCCAACACTTCTCGACCTGAGCTCAGGCAAGATTACCCGCTGAACTTAAGCATATCAATAAGCGGAGGAAAAGAAACCAACCAGGATTCCCCTAGTAACGGCGAGCGAACCGGGAAAAGCCCAACTTGAAAATCTCCCTTTTGGAGAATTGTAGTCTACAGAAGTGCCCTCTGCGGCCAGGGGAGCTCAAGTCCGCTGGAAGGCGGCGTCAAAGAGGGTGAGAACCCCGTCAGCTCTTTCTGTGCTTCATCACGAGGTGCTTTCCACGAGTCGGGTTGTTTGGGAATGCAGCCCAAAATTGGAGGTAAATCCCTTCTAAGGCTAAATAATGGCGAGAGA'
p106
sg8
S'frwdrev'
p107
sg10
I01
sg11
g12
sg13
I01
sg14
(lp108
(dp109
g4
g12
sg6
g12
sg8
S'file'
p110
sg10
I00
sg11
g12
sg13
I00
sg14
(lp111
sg19
I00
sg20
I25
sg21
S'orangeBrevi_TEM2206_7-7L1-chloroITS2F.ab1'
p112
sa(dp113
g4
g12
sg6
g12
sg8
S'file'
p114
sg10
I00
sg11
g12
sg13
I00
sg14
(lp115
sg19
I01
sg20
I1
sg21
S'orangeBrevi_TEM2206_7-7L1-chloroITS2R.ab1'
p116
sasg19
I00
sg20
I33
sg21
S'orangeBrevi_TEM2206_7-7L1_ITS2'
p117
sa(dp118
g4
S'                                     CAGTTGCTGGTGAAGAAAACCAATACATCGCTTACGTTGCTTATCCTATTGACCTTTTTGAAGAAGGTTCTGTAACTAACTTATTTACATCTATTGTAGGTAACGTTTTTGGTTTCAAAGCTCTTCGTGCTTTACGTCTTGAAGATTTACGTATTTCTTGTGCATACGCTAAAACATTCCAAGGACCTCCTCACGGGATCCAAGTAGAACGTGACAAATTAAACAAATATGGTCGTGGTCTTTTAGGTTGTACAATTAAACCTAAATTAGGTTTATCAGCTAAAAACTATGGTCGTGCAGTTTACGAATGTTTACGTGGTGGGTTAGATTTCACAAAAGATGATGAAAATGTTACAAGCCAAGCTTTCATGCGTTGGAGAGACCGTTTTATTTTTGTAGCAGAAGCTCTTTACAAATCTCAAGCTGAAACAGGTAAATTTTGCCTAGCTAGTCTGTAAAGACNTAGTAAAAAACATTGGATGAATTGCAAGGACGCTAAAGCTTTTTTTAAATCATTTTATAAATCATTTTATAAATCATTTTATAAATCATAGCTATGCCAACTTGCAGCGAAGCTTGCTGAAAGATTTTTTGTAGGCAAGAACGTTCAACGACTAGAGAGTGAGCTGATCTGGGCAATAATCTCTCCACGAGCCTCCAACTACCCTTTTTTTTATCAAAACAGCTGTGCTGAAAAAGAAATAGGTAGAAGACATAGTCTGAGCTTTAAGGAAACTTAAAGAAATCTAGGATAAAGAACCTAGATGATAACATAATGGAAATTAAAGGACATTATTTAAACGTTACTGCTGGAACGTCTGAAGAAATGCTAAAAAGAGCTGAAGTAGCTAAAGATTTAGGGGTACCTATTATTATGCATGACTATCTAACAGGTGGTCTTACTGCTAACACTTCATNTAGCTCACTACTGTCGTGACAATGGTCTATTATTACACATTCACAGAGCAATGCACGCGGTTATTGACCGTCAAAGAAACCACGGGATTCACTTCCGTGTATTAGCAAAAGCTCTTCGTTTATCTGGTGGGGACCATCTTCACTCAGGAACTGTTGTAGGAAAACTAGAAGGTGAACGTGAAGTTACTTTAGGTTTCGTTGATTTAATGAGAGACGAATATATNGAAAAAGACCGTAGCCGNNGTATTTACTCACTCA                  '
p119
sg6
S'CAGTTGCTGGTGAAGAAAACCAATACATCGCTTACGTTGCTTATCCTATTGACCTTTTTGAAGAAGGTTCTGTAACTAACTTATTTACATCTATTGTAGGTAACGTTTTTGGTTTCAAAGCTCTTCGTGCTTTACGTCTTGAAGATTTACGTATTTCTTGTGCATACGCTAAAACATTCCAAGGACCTCCTCACGGGATCCAAGTAGAACGTGACAAATTAAACAAATATGGTCGTGGTCTTTTAGGTTGTACAATTAAACCTAAATTAGGTTTATCAGCTAAAAACTATGGTCGTGCAGTTTACGAATGTTTACGTGGTGGGTTAGATTTCACAAAAGATGATGAAAATGTTACAAGCCAAGCTTTCATGCGTTGGAGAGACCGTTTTATTTTTGTAGCAGAAGCTCTTTACAAATCTCAAGCTGAAACAGGTAAATTTTGCCTAGCTAGTCTGTAAAGACNTAGTAAAAAACATTGGATGAATTGCAAGGACGCTAAAGCTTTTTTTAAATCATTTTATAAATCATTTTATAAATCATTTTATAAATCATAGCTATGCCAACTTGCAGCGAAGCTTGCTGAAAGATTTTTTGTAGGCAAGAACGTTCAACGACTAGAGAGTGAGCTGATCTGGGCAATAATCTCTCCACGAGCCTCCAACTACCCTTTTTTTTATCAAAACAGCTGTGCTGAAAAAGAAATAGGTAGAAGACATAGTCTGAGCTTTAAGGAAACTTAAAGAAATCTAGGATAAAGAACCTAGATGATAACATAATGGAAATTAAAGGACATTATTTAAACGTTACTGCTGGAACGTCTGAAGAAATGCTAAAAAGAGCTGAAGTAGCTAAAGATTTAGGGGTACCTATTATTATGCATGACTATCTAACAGGTGGTCTTACTGCTAACACTTCATNTAGCTCACTACTGTCGTGACAATGGTCTATTATTACACATTCACAGAGCAATGCACGCGGTTATTGACCGTCAAAGAAACCACGGGATTCACTTCCGTGTATTAGCAAAAGCTCTTCGTTTATCTGGTGGGGACCATCTTCACTCAGGAACTGTTGTAGGAAAACTAGAAGGTGAACGTGAAGTTACTTTAGGTTTCGTTGATTTAATGAGAGACGAATATATNGAAAAAGACCGTAGCCGNNGTATTTACTCACTCA'
p120
sg8
S'frwdrev'
p121
sg10
I01
sg11
g12
sg13
I01
sg14
(lp122
(dp123
g4
g12
sg6
g12
sg8
S'file'
p124
sg10
I00
sg11
g12
sg13
I00
sg14
(lp125
sg19
I00
sg20
I15
sg21
S'petal_BUG1902_3-12T1-remiasii_rbcL_F.ab1'
p126
sa(dp127
g4
g12
sg6
g12
sg8
S'file'
p128
sg10
I00
sg11
g12
sg13
I00
sg14
(lp129
sg19
I01
sg20
I0
sg21
S'petal_BUG1902_3-12T1-remiasii_rbcL_R.ab1'
p130
sasg19
I00
sg20
I34
sg21
S'petal_BUG1902_3-12T1_rbcL'
p131
sa(dp132
g4
S'                               GTTTGCTGGTGAAGAAAACCAATACATCGCTTACGTTGCTTATCCTATTGACCTTTTTGAAGAAGGTTCTGTAA CNTA ACNTT ATTTACATCTA TTGTAGGTAACGTTTTTGGTTTCAAAGCT C  TTCGTGCTTTACGTCTTGAAGATTTACGTATTTCTTGTGCATACGCTAAAACATTCNCAAGGACCTCCTCACGGGATCCAAGTAGAACGTGACAAATTAAACAAATATGGTCGTGGTCTTTTAGGTTGTACAATTAAACCTAAATTAGGTTTATCAGCTAAAAACNTATGGTCGTGCAGTTTACGAATGTTTACGTGGTGGGTTAGATTTCACAAAAGATGATGAAAATGTTACAAGCCAAGCTTTCATGCGTTGGAGAGACCGTTTTATTTTTGTAGCAGAAGCTCTTTACAAATCTCAAGCTGAAACAGGTAAATT TTGCCTAGCTAGTCTGTAAAGACNTAGTAAAAAACATTGGATGAATTGCAAGGACGCTAAAGCTTTTTTTAAATCATTTTATAAATCATTTTATAAATCATTTTATAAATCATAGCTATGCCAACTTGCA GCGAAGCTTGCTGAAAGATTTTTTGTAGGCA AGAACGTTCAACGACTAGAGAGTGAGCTGATCTGGGCANATAATCTCTCCACGAGCCTCCAACTACCCTTTTTTTTATCAAAACAGCTGTGCTGA ANAAGAAATAGGTAGANAGACATAGTCTGAGCTTTAAGGAAACTTAAAGAAATCTAGGATAAAGAACCTAGNATGATAACATAATGGAAATTAAAGGACATTATTTAAACGTTACTGCTGGAACGTCTGAAGAAATGCTAAAAAGAGCTGAAGTAGCTAAA GATTTAGGGGTACCTATTATTATGCATGACTATCTAACAGGTGGTCTTACTGCTAACACTTCATTAGCTCACTACTGTCGTGACAATGGTCTATTATTACACATTCACAGAGCAATGCACGCGGTTATTGACCGTCAAAGAAACCACGGGATTCACTTCCGTGTATTAGCAAAAGCTCTTCGTTTATCTGGTGGGGACCATCTTCNACTCAGGAACTGTTGTAGGAAAACTAGAAGGTGAACGTGAAGTTACTTTAGGTTTCGTTGATTTAATGAGAGACGAATATATNGAAAAAGACCGTAGCCGTGGTA                         '
p133
sg6
S'GTTTGCTGGTGAAGAAAACCAATACATCGCTTACGTTGCTTATCCTATTGACCTTTTTGAAGAAGGTTCTGTAACNTAACNTTATTTACATCTATTGTAGGTAACGTTTTTGGTTTCAAAGCTCTTCGTGCTTTACGTCTTGAAGATTTACGTATTTCTTGTGCATACGCTAAAACATTCNCAAGGACCTCCTCACGGGATCCAAGTAGAACGTGACAAATTAAACAAATATGGTCGTGGTCTTTTAGGTTGTACAATTAAACCTAAATTAGGTTTATCAGCTAAAAACNTATGGTCGTGCAGTTTACGAATGTTTACGTGGTGGGTTAGATTTCACAAAAGATGATGAAAATGTTACAAGCCAAGCTTTCATGCGTTGGAGAGACCGTTTTATTTTTGTAGCAGAAGCTCTTTACAAATCTCAAGCTGAAACAGGTAAATTTTGCCTAGCTAGTCTGTAAAGACNTAGTAAAAAACATTGGATGAATTGCAAGGACGCTAAAGCTTTTTTTAAATCATTTTATAAATCATTTTATAAATCATTTTATAAATCATAGCTATGCCAACTTGCAGCGAAGCTTGCTGAAAGATTTTTTGTAGGCAAGAACGTTCAACGACTAGAGAGTGAGCTGATCTGGGCANATAATCTCTCCACGAGCCTCCAACTACCCTTTTTTTTATCAAAACAGCTGTGCTGAANAAGAAATAGGTAGANAGACATAGTCTGAGCTTTAAGGAAACTTAAAGAAATCTAGGATAAAGAACCTAGNATGATAACATAATGGAAATTAAAGGACATTATTTAAACGTTACTGCTGGAACGTCTGAAGAAATGCTAAAAAGAGCTGAAGTAGCTAAAGATTTAGGGGTACCTATTATTATGCATGACTATCTAACAGGTGGTCTTACTGCTAACACTTCATTAGCTCACTACTGTCGTGACAATGGTCTATTATTACACATTCACAGAGCAATGCACGCGGTTATTGACCGTCAAAGAAACCACGGGATTCACTTCCGTGTATTAGCAAAAGCTCTTCGTTTATCTGGTGGGGACCATCTTCNACTCAGGAACTGTTGTAGGAAAACTAGAAGGTGAACGTGAAGTTACTTTAGGTTTCGTTGATTTAATGAGAGACGAATATATNGAAAAAGACCGTAGCCGTGGTA'
p134
sg8
S'frwdrev'
p135
sg10
I01
sg11
g12
sg13
I01
sg14
(lp136
(dp137
g4
g12
sg6
g12
sg8
S'file'
p138
sg10
I00
sg11
g12
sg13
I00
sg14
(lp139
sg19
I00
sg20
I17
sg21
S'petal_BUG1902_3-18T1-remiasii_rbcL_F.ab1'
p140
sa(dp141
g4
g12
sg6
g12
sg8
S'file'
p142
sg10
I00
sg11
g12
sg13
I00
sg14
(lp143
sg19
I01
sg20
I2
sg21
S'petal_BUG1902_3-18T1-remiasii_rbcL_R.ab1'
p144
sasg19
I00
sg20
I35
sg21
S'petal_BUG1902_3-18T1_rbcL'
p145
sa(dp146
g4
S'                            NNGTGAACCTGCGGAAGGATCATTGAATCTATCAATACCCACNCCGTGAACCAAAATGTCTGACCTCTAACCTNTGCTTGCAGAGGTGGGGNGTTTGGCTCAGCCTTTATTGGCTGTTCCTAACGGGTCTAGGCTAGGCTTCGGCCAAGTTCGGACCGGTCTCCCAAACCTATCAACACCTAATCAATCATATAAAGTAAACTTTCAGCCGGCTTTGCCGCTGAATCATAACCAAGACAACTCTCAACAACGGATATCTTGGCTCTTGCAACGATGAAGAACGCAGCGAAATGCGATACGTAGTGTGAATTGCAGAAAACCGTGAACCATCGAATCTTTGAACGCATATTGCGCTGGAGGCTTCGGCCAACAGCATGTCTGCCTCAGCGTCGGGTTAATTCTCGCCCATCATCTTCCCTGTGTTGATGATTTGGGCGGATCTGGCTTTCTCAGCTCTCACGAGCTGGGTTTGCTGAAGTACAGAGGTTAATGCATGGACCCGTTAAGGGCTGCAGCTGGTTAGGCAGTGATGCTATCGATTAGCTGTTGGTCTNGGAACTGCGTTTGNCCCTNCACAANNAAA                 '
p147
sg6
S'NNGTGAACCTGCGGAAGGATCATTGAATCTATCAATACCCACNCCGTGAACCAAAATGTCTGACCTCTAACCTNTGCTTGCAGAGGTGGGGNGTTTGGCTCAGCCTTTATTGGCTGTTCCTAACGGGTCTAGGCTAGGCTTCGGCCAAGTTCGGACCGGTCTCCCAAACCTATCAACACCTAATCAATCATATAAAGTAAACTTTCAGCCGGCTTTGCCGCTGAATCATAACCAAGACAACTCTCAACAACGGATATCTTGGCTCTTGCAACGATGAAGAACGCAGCGAAATGCGATACGTAGTGTGAATTGCAGAAAACCGTGAACCATCGAATCTTTGAACGCATATTGCGCTGGAGGCTTCGGCCAACAGCATGTCTGCCTCAGCGTCGGGTTAATTCTCGCCCATCATCTTCCCTGTGTTGATGATTTGGGCGGATCTGGCTTTCTCAGCTCTCACGAGCTGGGTTTGCTGAAGTACAGAGGTTAATGCATGGACCCGTTAAGGGCTGCAGCTGGTTAGGCAGTGATGCTATCGATTAGCTGTTGGTCTNGGAACTGCGTTTGNCCCTNCACAANNAAA'
p148
sg8
S'file'
p149
sg10
I01
sg11
g12
sg13
I01
sg14
(lp150
sg19
I01
sg20
I13
sg21
S'sphere_BUG1901_7-12L8-ITS4seqR.ab1'
p151
sa(dp152
g4
S'              NCAAGGTTTCCGTAGGTGAACCTGCGGAAGGATCATTGAATCTATCAATACCCACACCGTGAACCAAGATGTCTGACCTCTAACCTCTGCTTGCAGAGGTGGGGCGTTTGGCCCAGCCTTCATTGGCTGTTCCGAACGGGTCTAGGCTAGGCTTCGGCCAAGTTCGGACCGGTCTCCCAAACCTATCAACACNNNNTCAATCATATAAAGTAAACTTTCAGCCGGCTTTGCCGCTGAATCATAACCAAGACAACTCTCAACAACGGATATCTTGGCTCTTGCAACGATGAAGAACGCAGCGAAATGCGATACGTAGTGTGAATTGCAGAAAACCGTGAACCATCGAATCTTTGAACGCATATTGCGCTGGAGGCTTCGGCCAACAGCATGTCTGCCTCAGCGTCGGGTTAATTCTCGCCCATCATCTTCCCTGTGTTGATGATCTGGGCGGATCTGGCTTTCTCAGCTCTCACGAGCTGGGTTTGCTGAAGTACAGAGGTTAATGCATGGACCCGTTAAGGGCTGCAGCTGGTTAGGCAGTGATGCTATCGATTAGCTGTTGGTCTGGGAACTGCGTTTGACCCTCCACAAGGAAACTTAATTATTTCCTCGACCTGAGCTCAGGCAAGATTACCCGCTGAACTTAAGCATATCAATAAGCGGAAGGAA'
p153
sg6
S'NCAAGGTTTCCGTAGGTGAACCTGCGGAAGGATCATTGAATCTATCAATACCCACACCGTGAACCAAGATGTCTGACCTCTAACCTCTGCTTGCAGAGGTGGGGCGTTTGGCCCAGCCTTCATTGGCTGTTCCGAACGGGTCTAGGCTAGGCTTCGGCCAAGTTCGGACCGGTCTCCCAAACCTATCAACACNNNNTCAATCATATAAAGTAAACTTTCAGCCGGCTTTGCCGCTGAATCATAACCAAGACAACTCTCAACAACGGATATCTTGGCTCTTGCAACGATGAAGAACGCAGCGAAATGCGATACGTAGTGTGAATTGCAGAAAACCGTGAACCATCGAATCTTTGAACGCATATTGCGCTGGAGGCTTCGGCCAACAGCATGTCTGCCTCAGCGTCGGGTTAATTCTCGCCCATCATCTTCCCTGTGTTGATGATCTGGGCGGATCTGGCTTTCTCAGCTCTCACGAGCTGGGTTTGCTGAAGTACAGAGGTTAATGCATGGACCCGTTAAGGGCTGCAGCTGGTTAGGCAGTGATGCTATCGATTAGCTGTTGGTCTGGGAACTGCGTTTGACCCTCCACAAGGAAACTTAATTATTTCCTCGACCTGAGCTCAGGCAAGATTACCCGCTGAACTTAAGCATATCAATAAGCGGAAGGAA'
p154
sg8
S'frwdrev'
p155
sg10
I01
sg11
g12
sg13
I01
sg14
(lp156
(dp157
g4
g12
sg6
g12
sg8
S'file'
p158
sg10
I00
sg11
g12
sg13
I00
sg14
(lp159
sg19
I00
sg20
I26
sg21
S'sphere_PAN1915_7-12L6-chloroITS2F.ab1'
p160
sa(dp161
g4
g12
sg6
g12
sg8
S'file'
p162
sg10
I00
sg11
g12
sg13
I00
sg14
(lp163
sg19
I01
sg20
I11
sg21
S'sphere_PAN1915_7-12L6-ITS4seqR.ab1'
p164
sasg19
I00
sg20
I38
sg21
S'sphere_PAN1915_7-12L6_ITS2'
p165
sa(dp166
g4
S'                          TTATAGTTTATTTGATGATACTTACTACTCGGATAACCGTAGTAATTCTAGAGCTAATACGTGCGCACATCCCGACTTCTGGAAGGGACGTATTTATTAGATAAAAGGCCAGCCGAGCTTGCTCGACTTGAGGTGAATCATGATAACTCCACGAATCGCATGGCCTCGTGCCGGCGATGTTTCTTTCAAATTTCTGCCCTATCAACTTTCGATGGTAGGATAGAGGCCTACCATGGTGGTAACGGGTGACGGAGGATTAGGGTTCGATTCCGGAGAGGGAGCCTGAGAAATGGCTACCACATCCAAGGAAGGCAGCAGGCGCGCAAATTACCCAATCCCGACACGGGGAGGTAGTGACAATAAATAACAATACCGGGCATTTTATGTCTGGTAATTGGAATGAGCACAATCTAAATCCCTTAACGAGGATCCATTGGAGGGCAAGTCTGGTGCCAGCAGCCGCGGTAATTCCAGCTCCAATAGCGTATATTTAAGTTGTTGCAGTTAAAAAGCTCGTAGTTGGATTTCGGATGGGTAGCAATGGTCCGGTTCGCTGTGTACTGTTGCTGCCTATCTTTCTGCCGGAAATGGGATCTTAGGCTTTACTGTCTGAGACCTAGAGTCGGCGAGGTTACTTTGAGTAAATTAGAGTGTTCAAAGCAAGCTTACGCTCTGAATACATTAGCATGGAATAACACAATAGGACTTCGGCCTATCTTGTTGGTCTGTAGGACTGAAGTAATGATTAAGAGGGACAGTCGGGGGCATTCGTATTTCATTGTCAGAGGTGAAATTCTTGGATTTATGAAAGACGAACTTCTGCGAAAGCATTTGCCAAGGATGTTTTCATTAATCAAGAACGAAAGTTGGGGGCTC                                                                                                                                                                                                    '
p167
sg6
S'TTATAGTTTATTTGATGATACTTACTACTCGGATAACCGTAGTAATTCTAGAGCTAATACGTGCGCACATCCCGACTTCTGGAAGGGACGTATTTATTAGATAAAAGGCCAGCCGAGCTTGCTCGACTTGAGGTGAATCATGATAACTCCACGAATCGCATGGCCTCGTGCCGGCGATGTTTCTTTCAAATTTCTGCCCTATCAACTTTCGATGGTAGGATAGAGGCCTACCATGGTGGTAACGGGTGACGGAGGATTAGGGTTCGATTCCGGAGAGGGAGCCTGAGAAATGGCTACCACATCCAAGGAAGGCAGCAGGCGCGCAAATTACCCAATCCCGACACGGGGAGGTAGTGACAATAAATAACAATACCGGGCATTTTATGTCTGGTAATTGGAATGAGCACAATCTAAATCCCTTAACGAGGATCCATTGGAGGGCAAGTCTGGTGCCAGCAGCCGCGGTAATTCCAGCTCCAATAGCGTATATTTAAGTTGTTGCAGTTAAAAAGCTCGTAGTTGGATTTCGGATGGGTAGCAATGGTCCGGTTCGCTGTGTACTGTTGCTGCCTATCTTTCTGCCGGAAATGGGATCTTAGGCTTTACTGTCTGAGACCTAGAGTCGGCGAGGTTACTTTGAGTAAATTAGAGTGTTCAAAGCAAGCTTACGCTCTGAATACATTAGCATGGAATAACACAATAGGACTTCGGCCTATCTTGTTGGTCTGTAGGACTGAAGTAATGATTAAGAGGGACAGTCGGGGGCATTCGTATTTCATTGTCAGAGGTGAAATTCTTGGATTTATGAAAGACGAACTTCTGCGAAAGCATTTGCCAAGGATGTTTTCATTAATCAAGAACGAAAGTTGGGGGCTC'
p168
sg8
S'frwdrev'
p169
sg10
I01
sg11
g12
sg13
I01
sg14
(lp170
(dp171
g4
g12
sg6
g12
sg8
S'file'
p172
sg10
I00
sg11
g12
sg13
I00
sg14
(lp173
sg19
I00
sg20
I23
sg21
S'spikyChlain_ECH2201_6-21L1-chloro18SF.ab1'
p174
sa(dp175
g4
g12
sg6
g12
sg8
S'file'
p176
sg10
I00
sg11
g12
sg13
I00
sg14
(lp177
sg19
I01
sg20
I8
sg21
S'spikyChlain_ECH2201_6-21L1-chloro18SmidR.ab1'
p178
sasg19
I00
sg20
I40
sg21
S'spikyChlain_ECH2201_6-21L1_18S1'
p179
sa(dp180
g4
S'                               NAGGNGAAATTCTTGGATTTATGAAAGACGAACTTCTGCGAAAGCATTTGCCAAGGATGTTTTCATTAATCAAGAACGAAAGTTGGGGGCTCGAAGACGATTAGATACCGTCGTAGTCTCAACCATAAACGATGCCGACTAGGGATTGGCAGGTGTTCTTTTGATGACCCTGCCAGCACCTTATGAGAAATCAAAGTTTTTGGGTTCCGGGGGGAGTATGGTCGCAAGGCTGAAACTTAAAGGAATTGACGGAAGGGCACCACCAGGCGTGGAGCCTGCGGCTTAATTTGACTCAACACGGGAAAACTTACCAGGTCCAGACACGGGGAGGATTGACAGATTGAGAGCTCTTTCTTGATTCTGTGGGTGGTGGTGCATGGCCGTTCTTAGTTGGTGGGTTGCCTTGTCAGGTTGATTCCGGTAACGAACGAGACCTCAGCCTGCTAAATAGTCACATCTGCCTCTCGCAGCTGGCCGACTTCTTANAGGGACTATTGTCGTTTAGGCAATGGAAGTATGAGGCAATAACAGGTCTGTGATGCCCTTANATGTTCTGGGCCGCACGCGCGCTACACTGATGCGTTCAACGAGCCTATCCTTGGNCGAGAGGNCCGGGTAATCTTCGAAACCGCATCGTGATGGGGATAGATTATTGCAATTATTAGTCTTCNACGANGAANGNCTAGTAAGCGCGAGTCATCAGCTCGCGTTGATTACGTCCCTGCCCNTTGTACACNCCGCCCGTCGCTCCTACCGANTGANTG                                                                                      '
p181
sg6
S'NAGGNGAAATTCTTGGATTTATGAAAGACGAACTTCTGCGAAAGCATTTGCCAAGGATGTTTTCATTAATCAAGAACGAAAGTTGGGGGCTCGAAGACGATTAGATACCGTCGTAGTCTCAACCATAAACGATGCCGACTAGGGATTGGCAGGTGTTCTTTTGATGACCCTGCCAGCACCTTATGAGAAATCAAAGTTTTTGGGTTCCGGGGGGAGTATGGTCGCAAGGCTGAAACTTAAAGGAATTGACGGAAGGGCACCACCAGGCGTGGAGCCTGCGGCTTAATTTGACTCAACACGGGAAAACTTACCAGGTCCAGACACGGGGAGGATTGACAGATTGAGAGCTCTTTCTTGATTCTGTGGGTGGTGGTGCATGGCCGTTCTTAGTTGGTGGGTTGCCTTGTCAGGTTGATTCCGGTAACGAACGAGACCTCAGCCTGCTAAATAGTCACATCTGCCTCTCGCAGCTGGCCGACTTCTTANAGGGACTATTGTCGTTTAGGCAATGGAAGTATGAGGCAATAACAGGTCTGTGATGCCCTTANATGTTCTGGGCCGCACGCGCGCTACACTGATGCGTTCAACGAGCCTATCCTTGGNCGAGAGGNCCGGGTAATCTTCGAAACCGCATCGTGATGGGGATAGATTATTGCAATTATTAGTCTTCNACGANGAANGNCTAGTAAGCGCGAGTCATCAGCTCGCGTTGATTACGTCCCTGCCCNTTGTACACNCCGCCCGTCGCTCCTACCGANTGANTG'
p182
sg8
S'file'
p183
sg10
I01
sg11
g12
sg13
I01
sg14
(lp184
sg19
I00
sg20
I12
sg21
S'spikyChlain_ECH2201_6-21L1-chloro18SmidF.ab1'
p185
sa(dp186
g4
S'             AAGAACGCAGCGAAATGCGATACGTAGTGTGAATTGCAGAATTCCGTGAACCATCGAATTTTTGAACGCATATTGCACTCAAGGCCTCGGCTAAGAGTATGCCTGCCTCAGCGTCGGGTTAATCGTCCCATTCTCTCTCGCATTCATGTGAGCCTGATGGGGATCAATCGCAGTCTGGGTCTGGAGAGTTTACTCGAAAGATTCAGTCTGCCCAAGTATTTATTAGGTGCTTCCTTGCATGGGTGCAATTGTTTACTCACTTGCATCCAACACAAGCCGCACTCGAGTATTCATCTTGTATGTCTCTCGACTTCGACGGTTTGGGCAAAGAACTCTGGACAGGTTTACTCGTGTCCAGATCTCCCCTATTCAATAATTGGAAACCCAACACTTCTCGACCTGAGCTCAGACAAGAACACCCGCTGAACTTAAGCATATCAATAAGCGGAGGAAAAGAAACCAACCAGGATTCCCCTAGTAACGGCGAGCGAACCGGGAAAAGCCCAACTTGAAAATCTCCCTTTTGGAGAATTGTAGTCTACAGAAGTGCCCTCTGCGGCCAGGGGAGCTCAAGTCCGCTGGAAGGCGGCGTCAAAGAGGGTGAGAACCCCGTCAGCTCTTTCTGTGCTTCATCACGAGGTGCTTTCCACGAGTCGGGTTGTTTGGGAATGCAGCCCAAAATTGGAGGTAAATCCCTTCTAAGGCTAAATAATGGCGANAGANCGATAGCGANN         '
p187
sg6
S'AAGAACGCAGCGAAATGCGATACGTAGTGTGAATTGCAGAATTCCGTGAACCATCGAATTTTTGAACGCATATTGCACTCAAGGCCTCGGCTAAGAGTATGCCTGCCTCAGCGTCGGGTTAATCGTCCCATTCTCTCTCGCATTCATGTGAGCCTGATGGGGATCAATCGCAGTCTGGGTCTGGAGAGTTTACTCGAAAGATTCAGTCTGCCCAAGTATTTATTAGGTGCTTCCTTGCATGGGTGCAATTGTTTACTCACTTGCATCCAACACAAGCCGCACTCGAGTATTCATCTTGTATGTCTCTCGACTTCGACGGTTTGGGCAAAGAACTCTGGACAGGTTTACTCGTGTCCAGATCTCCCCTATTCAATAATTGGAAACCCAACACTTCTCGACCTGAGCTCAGACAAGAACACCCGCTGAACTTAAGCATATCAATAAGCGGAGGAAAAGAAACCAACCAGGATTCCCCTAGTAACGGCGAGCGAACCGGGAAAAGCCCAACTTGAAAATCTCCCTTTTGGAGAATTGTAGTCTACAGAAGTGCCCTCTGCGGCCAGGGGAGCTCAAGTCCGCTGGAAGGCGGCGTCAAAGAGGGTGAGAACCCCGTCAGCTCTTTCTGTGCTTCATCACGAGGTGCTTTCCACGAGTCGGGTTGTTTGGGAATGCAGCCCAAAATTGGAGGTAAATCCCTTCTAAGGCTAAATAATGGCGANAGANCGATAGCGANN'
p188
sg8
S'frwdrev'
p189
sg10
I01
sg11
g12
sg13
I01
sg14
(lp190
(dp191
g4
g12
sg6
g12
sg8
S'file'
p192
sg10
I00
sg11
g12
sg13
I00
sg14
(lp193
sg19
I00
sg20
I20
sg21
S'squareBrevi_TEM2207_7-7L3-chloroITS2F.ab1'
p194
sa(dp195
g4
g12
sg6
g12
sg8
S'file'
p196
sg10
I00
sg11
g12
sg13
I00
sg14
(lp197
sg19
I01
sg20
I5
sg21
S'squareBrevi_TEM2207_7-7L3-chloroITS2R.ab1'
p198
sasg19
I00
sg20
I37
sg21
S'squareBrevi_TEM2207_7-7L3_ITS2'
p199
sasS'formatversion'
p200
S'0.9'
p201
sS'consseqsettings'
p202
(dp203
S'consensus_algorithm'
p204
S'Bayesian'
p205
sS'do_qualitytrim'
p206
I01
sS'qualitytrim_winsize'
p207
I10
sS'primermatch_threshold'
p208
F0.8
sS'trim_endgaps'
p209
I00
sS'min_confscore'
p210
I30
sS'forward_primer'
p211
g12
sS'reverse_primer'
p212
g12
sS'qualitytrim_basecnt'
p213
I8
sS'trim_consensus'
p214
I01
sS'trim_primers'
p215
I00
ssS'properties'
p216
(dp217
S'fwd_trace_searchstr'
p218
S'F.'
p219
sS'rev_trace_searchstr'
p220
S'R.'
p221
sS'trace_file_dir'
p222
S'.'
p223
ss.