(dp0
S'items'
p1
(lp2
(dp3
S'fullcons'
p4
S''
p5
sS'compactcons'
p6
g5
sS'itemtype'
p7
S'file'
p8
sS'useseq'
p9
I00
sS'notes'
p10
g5
sS'hasseq'
p11
I00
sS'children'
p12
(lp13
sS'isreverse'
p14
I00
sS'id'
p15
I0
sS'name'
p16
S'BC1-chlorITSF.ab1'
p17
sa(dp18
g4
g5
sg6
g5
sg7
S'file'
p19
sg9
I00
sg10
g5
sg11
I00
sg12
(lp20
sg14
I00
sg15
I1
sg16
S'BC1-eukseqF.ab1'
p21
sa(dp22
g4
g5
sg6
g5
sg7
S'file'
p23
sg9
I00
sg10
g5
sg11
I00
sg12
(lp24
sg14
I00
sg15
I2
sg16
S'BC1-eukseqR.ab1'
p25
sa(dp26
g4
g5
sg6
g5
sg7
S'file'
p27
sg9
I00
sg10
g5
sg11
I00
sg12
(lp28
sg14
I00
sg15
I3
sg16
S'BC1-ITS4seqR1.ab1'
p29
sa(dp30
g4
S'TCGCTCTTNNNNNNNTNNNNNTTAATTTGACTCAACNCGGGAAAACTTACCAGGTCCAGACACGGGAAGGATTGACAGATTGAGAGCTCTTTCTTGATTCTGTGGGTGGTGGTGCATGGCCGTTCTTAGTTGGTGGGTTGCCTTGTCAGGTTGATTCCGGTAACGAACGAGACCTCAGCCTGCTAAATAGTCACAGTTGCCTCTGGCAGCTGGCTGACTTCTTAGAGGGACTATTGTCGTTTAGGCAATGGAAGTATGAGGCAATAACAGGTCTGTGATGCCCTTAGATGTTCTGGGCCGCACGCGCGCTACACTGATGCATTCAACAAGCCTATCCTTGGCCGAGAGGCCCGGGTAATCTTTGAAACTGCATCGTGATGGGGATAGATTATTGCAATTATTAGTCTTCAACGAGGAATGCCTAGTAAGCGCGAGTCATCAGCTCGCGTTGATTACGTCCCTGCCCTTTGTACACACCGCCCGNN                   '
p31
sg6
S'TCGCTCTTNNNNNNNTNNNNNTTAATTTGACTCAACNCGGGAAAACTTACCAGGTCCAGACACGGGAAGGATTGACAGATTGAGAGCTCTTTCTTGATTCTGTGGGTGGTGGTGCATGGCCGTTCTTAGTTGGTGGGTTGCCTTGTCAGGTTGATTCCGGTAACGAACGAGACCTCAGCCTGCTAAATAGTCACAGTTGCCTCTGGCAGCTGGCTGACTTCTTAGAGGGACTATTGTCGTTTAGGCAATGGAAGTATGAGGCAATAACAGGTCTGTGATGCCCTTAGATGTTCTGGGCCGCACGCGCGCTACACTGATGCATTCAACAAGCCTATCCTTGGCCGAGAGGCCCGGGTAATCTTTGAAACTGCATCGTGATGGGGATAGATTATTGCAATTATTAGTCTTCAACGAGGAATGCCTAGTAAGCGCGAGTCATCAGCTCGCGTTGATTACGTCCCTGCCCTTTGTACACACCGCCCGNN'
p32
sg7
S'frwdrev'
p33
sg9
I01
sg10
g5
sg11
I01
sg12
(lp34
(dp35
g4
g5
sg6
g5
sg7
S'file'
p36
sg9
I00
sg10
g5
sg11
I00
sg12
(lp37
sg14
I00
sg15
I5
sg16
S'bigSpiky_CAT20TR3_6-22L2-eukseqF.ab1'
p38
sa(dp39
g4
g5
sg6
g5
sg7
S'file'
p40
sg9
I00
sg10
g5
sg11
I00
sg12
(lp41
sg14
I01
sg15
I6
sg16
S'bigSpiky_CAT20TR3_6-22L2-eukseqR.ab1'
p42
sasg14
I00
sg15
I14
sg16
S'bigSpiky_CAT20TR3_6-22L2_18Seuk'
p43
sa(dp44
g4
S'              NNACAAGGTTTCCGTAGGTGAACCTGCGGAAGGATCATTGAATCTATCAATACCCACACCGTGAACCAAAATGTCTGACCTCTAACCTCTGCTTGCAGAGGTGGGGCGTTTGGCTCAGCCTTTATTGGCTGTTCCTAACGGGTCTAGGCTAGGCTTCGGCCAAGTTCGGACCGGTCTCCCAAACCTATCAACACCTAATCAATCATATAAAGTAAACTTTCAGCCGGCTTTGCCGCTGAATCATAACCAAGACAACTCTCAACAACGGATATCTTGGCTCTTGCAACGATGAAGAACGCAGCGAAATGCGATACGTAGTGTGAATTGCAGAAAACCGTGAACCATCGAATCTTTGAACGCATATTGCGCTGGAGGCTTCGGCCAACAGCATGTCTGCCTCAGCGTCGGGTTAATTCTCGCCCATCATCTTCCCTGTGTTGATGATTTGGGCGGATCTGGCTTTCTCAGCTCTCACGAGCTGGGTTTGCTGAAGTACAGAGGTTAATGCATGGACCCGTTAAGGGCTGCAGCTGGTTAGGCAGTGATGCTATCGATTAGCTGTTGGTCTGGGAACTGCGTTTGACCCTCCACAAGGAAACTTAATTATTTCCTCGACCTGAGCTCAGGCAAGATTACCCGCTGAACTTAAGCATATCAATANN         '
p45
sg6
S'NNACAAGGTTTCCGTAGGTGAACCTGCGGAAGGATCATTGAATCTATCAATACCCACACCGTGAACCAAAATGTCTGACCTCTAACCTCTGCTTGCAGAGGTGGGGCGTTTGGCTCAGCCTTTATTGGCTGTTCCTAACGGGTCTAGGCTAGGCTTCGGCCAAGTTCGGACCGGTCTCCCAAACCTATCAACACCTAATCAATCATATAAAGTAAACTTTCAGCCGGCTTTGCCGCTGAATCATAACCAAGACAACTCTCAACAACGGATATCTTGGCTCTTGCAACGATGAAGAACGCAGCGAAATGCGATACGTAGTGTGAATTGCAGAAAACCGTGAACCATCGAATCTTTGAACGCATATTGCGCTGGAGGCTTCGGCCAACAGCATGTCTGCCTCAGCGTCGGGTTAATTCTCGCCCATCATCTTCCCTGTGTTGATGATTTGGGCGGATCTGGCTTTCTCAGCTCTCACGAGCTGGGTTTGCTGAAGTACAGAGGTTAATGCATGGACCCGTTAAGGGCTGCAGCTGGTTAGGCAGTGATGCTATCGATTAGCTGTTGGTCTGGGAACTGCGTTTGACCCTCCACAAGGAAACTTAATTATTTCCTCGACCTGAGCTCAGGCAAGATTACCCGCTGAACTTAAGCATATCAATANN'
p46
sg7
S'frwdrev'
p47
sg9
I01
sg10
g5
sg11
I01
sg12
(lp48
(dp49
g4
g5
sg6
g5
sg7
S'file'
p50
sg9
I00
sg10
g5
sg11
I00
sg12
(lp51
sg14
I00
sg15
I4
sg16
S'bigSpiky_CAT20TR3_6-22L2-chlorITSF.ab1'
p52
sa(dp53
g4
g5
sg6
g5
sg7
S'file'
p54
sg9
I00
sg10
g5
sg11
I00
sg12
(lp55
sg14
I01
sg15
I7
sg16
S'bigSpiky_CAT20TR3_6-22L2-ITS4seqR1.ab1'
p56
sasg14
I00
sg15
I13
sg16
S'bigSpiky_CAT20TR3_6-22L2_ITS2'
p57
sa(dp58
g4
g5
sg6
g5
sg7
S'file'
p59
sg9
I00
sg10
g5
sg11
I00
sg12
(lp60
sg14
I00
sg15
I8
sg16
S'cog_GAR1912_20210305C1-chlor18SF.ab1'
p61
sa(dp62
g4
S'                              AGGNGAAATTCTTGGATTTATGAAAGACGAACTTCTGCGAAAGCATTTGCCAAGGATGTTTTCATTAATCAAGAACGAAAGTTGGGGGCTCGAAGACGATTAGATACCGTCGTAGTCTCAACCATAAACGATGCCGACTAGGGATTGGCAGGTGTTCTTTTGATGACCCTGCCAGCACCTTATGAGAAATCAAAGTTTTTGGGTTCCGGGGGGAGTATGGTCGCAAGGCTGAAACTTAAAGGAATTGACGGAAGGGCACCACCAGGCGTGGAGCCTGCGGCTTAATTTGACTCAACACGGGAAAACTTACCAGGTCCAGACACGGGGAGGATTGACAGATTGAGAGCTCTTTCTTGATTCTGTGGGTGGTGGTGCATGGCCGTTCTTAGTTGGTGGGTTGCCTTGTCAGGTTGATTCCGGTAACGAACGAGACCTCAGCCTGCTAAATAGTCACGTCTGCCTCTCGCAGACGGCCGACTTCTTAGAGGGACTATTGTCGTTTAGGCAATGGAAGTATGAGGCAATAACAGGTCTGTGATGCCCTTAGATGTTCTGGGCCGCACGCGCGCTACACTGATGCGTTCAACGAGCCTATCCTTGGCCGAGAGGCCCGGGTAATCTTCGAAACCGCATCGTGATGGGGATAGATTATTGCAATTATTAGTCTTCAACGAGGAATGCCTAGTAAGCGCGAGTCATCAGCTCGCGTTGATTACGTCCCTGCCCTTTGTACACACCGCCCGTCGCTCCTACCGATTGAGTGTGCTGGTGAATTCTTTGGAGCGGCGCTTACTGATGGCAACATTGGTTGGTACTGCNAANATGAATGAACCCTCCC                                                                                                                                                                                       '
p63
sg6
S'AGGNGAAATTCTTGGATTTATGAAAGACGAACTTCTGCGAAAGCATTTGCCAAGGATGTTTTCATTAATCAAGAACGAAAGTTGGGGGCTCGAAGACGATTAGATACCGTCGTAGTCTCAACCATAAACGATGCCGACTAGGGATTGGCAGGTGTTCTTTTGATGACCCTGCCAGCACCTTATGAGAAATCAAAGTTTTTGGGTTCCGGGGGGAGTATGGTCGCAAGGCTGAAACTTAAAGGAATTGACGGAAGGGCACCACCAGGCGTGGAGCCTGCGGCTTAATTTGACTCAACACGGGAAAACTTACCAGGTCCAGACACGGGGAGGATTGACAGATTGAGAGCTCTTTCTTGATTCTGTGGGTGGTGGTGCATGGCCGTTCTTAGTTGGTGGGTTGCCTTGTCAGGTTGATTCCGGTAACGAACGAGACCTCAGCCTGCTAAATAGTCACGTCTGCCTCTCGCAGACGGCCGACTTCTTAGAGGGACTATTGTCGTTTAGGCAATGGAAGTATGAGGCAATAACAGGTCTGTGATGCCCTTAGATGTTCTGGGCCGCACGCGCGCTACACTGATGCGTTCAACGAGCCTATCCTTGGCCGAGAGGCCCGGGTAATCTTCGAAACCGCATCGTGATGGGGATAGATTATTGCAATTATTAGTCTTCAACGAGGAATGCCTAGTAAGCGCGAGTCATCAGCTCGCGTTGATTACGTCCCTGCCCTTTGTACACACCGCCCGTCGCTCCTACCGATTGAGTGTGCTGGTGAATTCTTTGGAGCGGCGCTTACTGATGGCAACATTGGTTGGTACTGCNAANATGAATGAACCCTCCC'
p64
sg7
S'file'
p65
sg9
I00
sg10
g5
sg11
I01
sg12
(lp66
sg14
I00
sg15
I9
sg16
S'cog_GAR1912_20210305C1-chlormid18SF.ab1'
p67
sa(dp68
g4
g5
sg6
g5
sg7
S'file'
p69
sg9
I00
sg10
g5
sg11
I00
sg12
(lp70
sg14
I00
sg15
I10
sg16
S'honeycomb_BDW1906B_7-5L3-chlorITSF.ab1'
p71
sasS'formatversion'
p72
S'0.9'
p73
sS'consseqsettings'
p74
(dp75
S'consensus_algorithm'
p76
S'Bayesian'
p77
sS'do_qualitytrim'
p78
I01
sS'qualitytrim_winsize'
p79
I10
sS'primermatch_threshold'
p80
F0.8
sS'trim_endgaps'
p81
I00
sS'min_confscore'
p82
I30
sS'forward_primer'
p83
g5
sS'reverse_primer'
p84
g5
sS'qualitytrim_basecnt'
p85
I8
sS'trim_consensus'
p86
I01
sS'trim_primers'
p87
I00
ssS'properties'
p88
(dp89
S'fwd_trace_searchstr'
p90
S'_F'
p91
sS'rev_trace_searchstr'
p92
S'_R'
p93
sS'trace_file_dir'
p94
S'.'
p95
ss.