(dp0
S'items'
p1
(lp2
(dp3
S'fullcons'
p4
S''
p5
sS'compactcons'
p6
g5
sS'itemtype'
p7
S'file'
p8
sS'useseq'
p9
I00
sS'notes'
p10
g5
sS'hasseq'
p11
I00
sS'children'
p12
(lp13
sS'isreverse'
p14
I01
sS'id'
p15
I7
sS'name'
p16
S'bigsphere_CAT20TR8_7-22L3-rbcl_R3set4.ab1'
p17
sa(dp18
g4
g5
sg6
g5
sg7
S'file'
p19
sg9
I00
sg10
g5
sg11
I00
sg12
(lp20
sg14
I01
sg15
I5
sg16
S'bigThickwall_BLU2203_9-28L1-rbcl_R3set4.ab1'
p21
sa(dp22
g4
g5
sg6
g5
sg7
S'file'
p23
sg9
I00
sg10
g5
sg11
I00
sg12
(lp24
sg14
I01
sg15
I4
sg16
S'cog_BLU2203_1-11L2-rbcl_R3set4.ab1'
p25
sa(dp26
g4
g5
sg6
g5
sg7
S'file'
p27
sg9
I00
sg10
g5
sg11
I00
sg12
(lp28
sg14
I01
sg15
I3
sg16
S'cog_TEM2003_7-27L8-rbcl_R3set4.ab1'
p29
sa(dp30
g4
g5
sg6
g5
sg7
S'file'
p31
sg9
I00
sg10
g5
sg11
I00
sg12
(lp32
sg14
I01
sg15
I2
sg16
S'martian_DOG1906_1-10L1-rbcl_R3set4.ab1'
p33
sa(dp34
g4
g5
sg6
g5
sg7
S'file'
p35
sg9
I00
sg10
g5
sg11
I00
sg12
(lp36
sg14
I01
sg15
I1
sg16
S'thickwall_BLU2203_1-11L1-rbcl_R3set4.ab1'
p37
sa(dp38
g4
g5
sg6
g5
sg7
S'file'
p39
sg9
I00
sg10
g5
sg11
I00
sg12
(lp40
sg14
I01
sg15
I0
sg16
S'thickwall_BUG1903_1-18L2-rbcl_R3set4.ab1'
p41
sasS'formatversion'
p42
S'0.9'
p43
sS'consseqsettings'
p44
(dp45
S'consensus_algorithm'
p46
S'Bayesian'
p47
sS'do_qualitytrim'
p48
I01
sS'qualitytrim_winsize'
p49
I10
sS'primermatch_threshold'
p50
F0.8
sS'trim_endgaps'
p51
I00
sS'min_confscore'
p52
I30
sS'forward_primer'
p53
g5
sS'reverse_primer'
p54
g5
sS'qualitytrim_basecnt'
p55
I8
sS'trim_consensus'
p56
I01
sS'trim_primers'
p57
I00
ssS'properties'
p58
(dp59
S'fwd_trace_searchstr'
p60
S'_asdf'
p61
sS'rev_trace_searchstr'
p62
S'R3set4.ab1'
p63
sS'trace_file_dir'
p64
S'.'
p65
ss.