(dp0
S'items'
p1
(lp2
(dp3
S'fullcons'
p4
S'                             GGTACCTACTACTCGGATAACCGTAGTAATTCTAGAGCTAATACGTGCGTAAATCCCGACTTCTGG AAGGGACGTATTTATTAGATAAAAGGCCAGCCGGACTCTGTCCGACCTGCGGTGAATCATGATAACTTCACGAATCGTATGGCCTTGTGCCGACGATGTTTCATTCAAATTTCTGCCCTATCAACTTTCGATGGTAGGATAGAGGCCTACCATGGTGGTAACGGGTGACGGAGGATTAGGGTTCGATTCCGGAGAGGGAGCCTGAGAGATGGCTACCACATCCAAGGAAGGCAGCAGGCGCGCAAATTACCCAATCCCGACACGGGGAGGTAGTGACAATAAATAACAATACCGGGCATTTAATGTCTGGTAATTGGAATGAGTACAATCTAAATCCCTTAACGAGGATCCATTGGAGGGCAAGTCTGGTGCCAGCAGCCGCGGTAATTCCAGCTCCAATAGCGTATATTTAAGTTGTTGCAGTTAAAAAGCTCGTAGTTGGATTTCGGGTGGGTTCGGTCGGTCCGCCTCTGGTGTGCACTGATTGAGCCTTCCTTTCTGCCGGGGACGGGTTCCTGGGCCTCACGGTTTGGGACTCGGAGTCGGCGAGGTTACTTTGAGTAAATTAGAGTGTTCAAAGCAAGCCTACGCTCTGAATACATTAGCATGGAATAACGCGATAGGACTCTGGCCTATCTTGTTGGTCTGTAGGACTGGAGTAATGATTAAGAGGGACAGTCGGGGGCATTCGTATTTCATTGTCAGAGGTGAAATTCTTGGATTTATGAAAGACGAACTTCTGCGAAAGCA TTGCCAAGGATGTTTTCATTAATCAAGAACGAAAGTTGGGGGCTCGAA  '
p5
sS'compactcons'
p6
S'GGTACCTACTACTCGGATAACCGTAGTAATTCTAGAGCTAATACGTGCGTAAATCCCGACTTCTGGAAGGGACGTATTTATTAGATAAAAGGCCAGCCGGACTCTGTCCGACCTGCGGTGAATCATGATAACTTCACGAATCGTATGGCCTTGTGCCGACGATGTTTCATTCAAATTTCTGCCCTATCAACTTTCGATGGTAGGATAGAGGCCTACCATGGTGGTAACGGGTGACGGAGGATTAGGGTTCGATTCCGGAGAGGGAGCCTGAGAGATGGCTACCACATCCAAGGAAGGCAGCAGGCGCGCAAATTACCCAATCCCGACACGGGGAGGTAGTGACAATAAATAACAATACCGGGCATTTAATGTCTGGTAATTGGAATGAGTACAATCTAAATCCCTTAACGAGGATCCATTGGAGGGCAAGTCTGGTGCCAGCAGCCGCGGTAATTCCAGCTCCAATAGCGTATATTTAAGTTGTTGCAGTTAAAAAGCTCGTAGTTGGATTTCGGGTGGGTTCGGTCGGTCCGCCTCTGGTGTGCACTGATTGAGCCTTCCTTTCTGCCGGGGACGGGTTCCTGGGCCTCACGGTTTGGGACTCGGAGTCGGCGAGGTTACTTTGAGTAAATTAGAGTGTTCAAAGCAAGCCTACGCTCTGAATACATTAGCATGGAATAACGCGATAGGACTCTGGCCTATCTTGTTGGTCTGTAGGACTGGAGTAATGATTAAGAGGGACAGTCGGGGGCATTCGTATTTCATTGTCAGAGGTGAAATTCTTGGATTTATGAAAGACGAACTTCTGCGAAAGCATTGCCAAGGATGTTTTCATTAATCAAGAACGAAAGTTGGGGGCTCGAA'
p7
sS'itemtype'
p8
S'frwdrev'
p9
sS'useseq'
p10
I01
sS'notes'
p11
S''
p12
sS'hasseq'
p13
I01
sS'children'
p14
(lp15
(dp16
g4
g12
sg6
g12
sg8
S'file'
p17
sg10
I00
sg11
g12
sg13
I00
sg14
(lp18
sS'isreverse'
p19
I00
sS'id'
p20
I1
sS'name'
p21
S'bigSphere_BUG1902_7-21L1-chloro18SF.ab1'
p22
sa(dp23
g4
g12
sg6
g12
sg8
S'file'
p24
sg10
I00
sg11
g12
sg13
I00
sg14
(lp25
sg19
I01
sg20
I2
sg21
S'bigSphere_BUG1902_7-21L1-chloro18SMidR.ab1'
p26
sasg19
I00
sg20
I0
sg21
S'bigSphere_BUG1902_7-21L1_18SA'
p27
sa(dp28
g4
g12
sg6
g12
sg8
S'file'
p29
sg10
I00
sg11
g12
sg13
I00
sg14
(lp30
sg19
I00
sg20
I3
sg21
S'bigSphere_BUG1902_7-21L1-chloro18SMidF.ab1'
p31
sa(dp32
g4
S'     ATCAGTTATAGTTTATTTGATGGTACCTACTACTCGGATAACCGTAGTAATTCTAGAGCTAATACGTGCGTAAATCCCGACTTCTGGAAGGGACGTATTTATTAGATAAAAGGCCAGCCGGACTCTGTCCGACCTGCGGTGAATCATGATAACTTCACGAATCGTATGGCCTTGCGCCGACGATGTTTCATTCAAATTTCTGCCCTATCAACTTTCGATGGTAGGATAGAGGCCTACCATGGTGGTAACGGGTGACGGAGGATTAGGGTTCGATTCCGGAGAGGGAGCCTGAGAGATGGCTACCACATCCAAGGAAGGCAGCAGGCGCGCAAATTACCCAATCCCGACACGGGGAGGTAGTGACAATAAATAACAATACCGGGCATTTAATGTCTGGTAATTGGAATGAGTACAATCTAAATCCCTTAACGAGGATCCATTGGAGGGCAAGTCTGGTGCCAGCAGCCGCGGTAATTCCAGCTCCAATAGCGTATATTTAAGTTGTTGCAGTTAAAAAGCTCGTAGTTGGATTTCGGGTGGGTTCGGTCGGTCCGCCTCTGGTGTGCACTGATTGAGCCTTCCTTTCTGCCGGGGACGGGTTCCTGGGCCTCACGGTTTGGGACTCGGAGTCGGCGAGGTTACTTTGAGTAAATTAGAGTGTTCAAAGCAAGCCTACGCTCTGAATACATTAGCATGGAATAACGCGATAGGACTCTGGCCTATCTTGTTGGTCTGTAGGACTGGAGTAATGATTAAGAGGGACAGTCGGGGGCATTCGTATTTCATTGTCAGAGGTGAAATTCTTGGATTTATGAAAGACGAACTTCTGCGAAAGCATTTGCCAAGGATGNTTTCANTAATCA             '
p33
sg6
S'ATCAGTTATAGTTTATTTGATGGTACCTACTACTCGGATAACCGTAGTAATTCTAGAGCTAATACGTGCGTAAATCCCGACTTCTGGAAGGGACGTATTTATTAGATAAAAGGCCAGCCGGACTCTGTCCGACCTGCGGTGAATCATGATAACTTCACGAATCGTATGGCCTTGCGCCGACGATGTTTCATTCAAATTTCTGCCCTATCAACTTTCGATGGTAGGATAGAGGCCTACCATGGTGGTAACGGGTGACGGAGGATTAGGGTTCGATTCCGGAGAGGGAGCCTGAGAGATGGCTACCACATCCAAGGAAGGCAGCAGGCGCGCAAATTACCCAATCCCGACACGGGGAGGTAGTGACAATAAATAACAATACCGGGCATTTAATGTCTGGTAATTGGAATGAGTACAATCTAAATCCCTTAACGAGGATCCATTGGAGGGCAAGTCTGGTGCCAGCAGCCGCGGTAATTCCAGCTCCAATAGCGTATATTTAAGTTGTTGCAGTTAAAAAGCTCGTAGTTGGATTTCGGGTGGGTTCGGTCGGTCCGCCTCTGGTGTGCACTGATTGAGCCTTCCTTTCTGCCGGGGACGGGTTCCTGGGCCTCACGGTTTGGGACTCGGAGTCGGCGAGGTTACTTTGAGTAAATTAGAGTGTTCAAAGCAAGCCTACGCTCTGAATACATTAGCATGGAATAACGCGATAGGACTCTGGCCTATCTTGTTGGTCTGTAGGACTGGAGTAATGATTAAGAGGGACAGTCGGGGGCATTCGTATTTCATTGTCAGAGGTGAAATTCTTGGATTTATGAAAGACGAACTTCTGCGAAAGCATTTGCCAAGGATGNTTTCANTAATCA'
p34
sg8
S'frwdrev'
p35
sg10
I01
sg11
g12
sg13
I01
sg14
(lp36
(dp37
g4
g12
sg6
g12
sg8
S'file'
p38
sg10
I00
sg11
g12
sg13
I00
sg14
(lp39
sg19
I00
sg20
I5
sg21
S'bigSphere_WED2206_7-26L2-chloro18SF.ab1'
p40
sa(dp41
g4
g12
sg6
g12
sg8
S'file'
p42
sg10
I00
sg11
g12
sg13
I00
sg14
(lp43
sg19
I01
sg20
I6
sg21
S'bigSphere_WED2206_7-26L2-chloro18SMidR.ab1'
p44
sasg19
I00
sg20
I4
sg21
S'bigSphere_WED2206_7-26L2_18SA'
p45
sa(dp46
g4
g12
sg6
g12
sg8
S'file'
p47
sg10
I00
sg11
g12
sg13
I00
sg14
(lp48
sg19
I00
sg20
I7
sg21
S'bigSphere_WED2206_7-26L2-chloro18SMidF.ab1'
p49
sa(dp50
g4
S'      ATAANCTGCTTTATACTGTAAAACTGCGAATGGCTCATTAAATCAGTTATAGTTTATTTGATGGTACTTACTACTCGGATAACCGTAGTAATTCTAGAGCTAATACGTGCGTAAATCCCGACTTCTGGAAGGGACGTATTTATTAGATAAAAGGCCAGCCGAGCTTGCTCGACTTTAGGTGAATCATGATAACTCCACGAATCGCATGGCCTTGTGCCGGCGATGTTTCATTCAAATTTCTGCCCTATCAACTTTCGATGGTAGGATAGAGGCCTACCATGGTGGTAACGGGTGACGGAGGATTAGGGTTCGATTCCGGAGAGGGAGCCTGAGAAATGGCTACCACATCCAAGGAAGGCAGCAGGCGCGCAAATTACCCAATCCCGACACGGGGAGGTAGTGACAATAAATAACAATGCCGAGCATTTTATGTTTGGCAATTGGAATGAGCACAATCTAAACCCCTTAACGAGGATCCATTGGAGGGCAAGTCTGGTGCCAGCAGCCGCGGTAATTCCAGCTCCAATAGCGTATATTTAAGTTGTTGCAGTTAAAAAGCTCGTAGTTGGATTTCGGGTGGGTTGTAGTGGTCCGGTTCGCTGTGTACTGCTACGGCCTTCCTTTCTGCCGGAAACGGGCTCTTGGGCTTTACTGTCTGGGACCCGGAGTCGGCGAGGTTACTTTGAGTAAATTAGAGTGTTCAAAGCAAGCTTACGCTCTGAATACATTAGCATGGAATAACACGATAGGACTCTGGCCTATCTTGTTGGTCTGTAGGACTGGAGTAATGATTAAGAGGGACAGTCGGGGGCATTCGTATTTCATTGTCAGAGGTGAAATTCTTGGATTTATGAAAGACGAACTTCTGCGAAAGCATTGCCAAGGA                    '
p51
sg6
S'ATAANCTGCTTTATACTGTAAAACTGCGAATGGCTCATTAAATCAGTTATAGTTTATTTGATGGTACTTACTACTCGGATAACCGTAGTAATTCTAGAGCTAATACGTGCGTAAATCCCGACTTCTGGAAGGGACGTATTTATTAGATAAAAGGCCAGCCGAGCTTGCTCGACTTTAGGTGAATCATGATAACTCCACGAATCGCATGGCCTTGTGCCGGCGATGTTTCATTCAAATTTCTGCCCTATCAACTTTCGATGGTAGGATAGAGGCCTACCATGGTGGTAACGGGTGACGGAGGATTAGGGTTCGATTCCGGAGAGGGAGCCTGAGAAATGGCTACCACATCCAAGGAAGGCAGCAGGCGCGCAAATTACCCAATCCCGACACGGGGAGGTAGTGACAATAAATAACAATGCCGAGCATTTTATGTTTGGCAATTGGAATGAGCACAATCTAAACCCCTTAACGAGGATCCATTGGAGGGCAAGTCTGGTGCCAGCAGCCGCGGTAATTCCAGCTCCAATAGCGTATATTTAAGTTGTTGCAGTTAAAAAGCTCGTAGTTGGATTTCGGGTGGGTTGTAGTGGTCCGGTTCGCTGTGTACTGCTACGGCCTTCCTTTCTGCCGGAAACGGGCTCTTGGGCTTTACTGTCTGGGACCCGGAGTCGGCGAGGTTACTTTGAGTAAATTAGAGTGTTCAAAGCAAGCTTACGCTCTGAATACATTAGCATGGAATAACACGATAGGACTCTGGCCTATCTTGTTGGTCTGTAGGACTGGAGTAATGATTAAGAGGGACAGTCGGGGGCATTCGTATTTCATTGTCAGAGGTGAAATTCTTGGATTTATGAAAGACGAACTTCTGCGAAAGCATTGCCAAGGA'
p52
sg8
S'frwdrev'
p53
sg10
I01
sg11
g12
sg13
I01
sg14
(lp54
(dp55
g4
g12
sg6
g12
sg8
S'file'
p56
sg10
I00
sg11
g12
sg13
I00
sg14
(lp57
sg19
I00
sg20
I9
sg21
S'cog_BAK1912_8-26L1-chloro18SF.ab1'
p58
sa(dp59
g4
g12
sg6
g12
sg8
S'file'
p60
sg10
I00
sg11
g12
sg13
I00
sg14
(lp61
sg19
I01
sg20
I10
sg21
S'cog_BAK1912_8-26L1-chloro18SMidR.ab1'
p62
sasg19
I00
sg20
I8
sg21
S'cog_BAK1912_8-26L1_18SA'
p63
sa(dp64
g4
g12
sg6
g12
sg8
S'file'
p65
sg10
I00
sg11
g12
sg13
I00
sg14
(lp66
sg19
I00
sg20
I11
sg21
S'cog_BAK1912_8-26L1-chloro18SMidF.ab1'
p67
sa(dp68
g4
S'                                  GATACGTAGTGTGAATTGCAGAANTCCGTGAACCATCGAATTTTTGAACGCATATTGCGCTCAAGGCTTCGGCCAAGAGCATGTCTGCCTCAGCGTCGGGTTCTCCATCATCGACTCTCTCCTTCTNTCGAAGAGGAGAGTCGTGGAAACTCGCAGTCCGATCCTCCGTTCTTCATTGAGCGTTGGTGAGGTCTGCCAAAGTGAAAGTAGCGCTCCGAGCATTGCCCATCTACACGTCAGCAATGGCGTGTGGTTGGGTATGTAGCCGCACTCGAGTAGTTGTGATCTCACATGTGTTAACTCACGTGTGTTTTTCCCTTACCCGACTATCCTACGCCTTGCTCGTCATCTCTTTGACGTCTTCATGACGACATCTGAGACGAAACCAGCCTATACAAGTATACCTCCCAACATGGAACCCTTCACTTCTCGACCTGAGCTCAGGCAAGATTACCCGCTGAACTTAAGCATATCAATAAGCGGAGGAAAAGAAACCAACCAGGATTCCCCTAGTAACGGCGAGCGAACCGGGATCAGCCCAACTTGAAAATCTCCCTCTTGGAGAATTGTAGTCTACAGAAGTGCCCTCTGTGGCCGTGGGAGCTCAAGTTCGCTGGAAGGCGACGTCAAAGAGGGTGAGAACCCCGTCGGCTCCCATCTGGCCGCACCACGAGGTGCTTTCCACGAGTCGGGTTGTTTGGGAATGCAGCCCAAAATTGGAGGTAAATCCCTTCTAANGNTAANNNACGGCGANAGANCG                     '
p69
sg6
S'GATACGTAGTGTGAATTGCAGAANTCCGTGAACCATCGAATTTTTGAACGCATATTGCGCTCAAGGCTTCGGCCAAGAGCATGTCTGCCTCAGCGTCGGGTTCTCCATCATCGACTCTCTCCTTCTNTCGAAGAGGAGAGTCGTGGAAACTCGCAGTCCGATCCTCCGTTCTTCATTGAGCGTTGGTGAGGTCTGCCAAAGTGAAAGTAGCGCTCCGAGCATTGCCCATCTACACGTCAGCAATGGCGTGTGGTTGGGTATGTAGCCGCACTCGAGTAGTTGTGATCTCACATGTGTTAACTCACGTGTGTTTTTCCCTTACCCGACTATCCTACGCCTTGCTCGTCATCTCTTTGACGTCTTCATGACGACATCTGAGACGAAACCAGCCTATACAAGTATACCTCCCAACATGGAACCCTTCACTTCTCGACCTGAGCTCAGGCAAGATTACCCGCTGAACTTAAGCATATCAATAAGCGGAGGAAAAGAAACCAACCAGGATTCCCCTAGTAACGGCGAGCGAACCGGGATCAGCCCAACTTGAAAATCTCCCTCTTGGAGAATTGTAGTCTACAGAAGTGCCCTCTGTGGCCGTGGGAGCTCAAGTTCGCTGGAAGGCGACGTCAAAGAGGGTGAGAACCCCGTCGGCTCCCATCTGGCCGCACCACGAGGTGCTTTCCACGAGTCGGGTTGTTTGGGAATGCAGCCCAAAATTGGAGGTAAATCCCTTCTAANGNTAANNNACGGCGANAGANCG'
p70
sg8
S'frwdrev'
p71
sg10
I01
sg11
g12
sg13
I01
sg14
(lp72
(dp73
g4
g12
sg6
g12
sg8
S'file'
p74
sg10
I00
sg11
g12
sg13
I00
sg14
(lp75
sg19
I00
sg20
I13
sg21
S'cog_BAK1912_8-26L1-chlorITS2F.ab1'
p76
sa(dp77
g4
g12
sg6
g12
sg8
S'file'
p78
sg10
I00
sg11
g12
sg13
I00
sg14
(lp79
sg19
I01
sg20
I14
sg21
S'cog_BAK1912_8-26L1-chlorITS2R.ab1'
p80
sasg19
I00
sg20
I12
sg21
S'cog_BAK1912_8-26L1_ITS2'
p81
sa(dp82
g4
S'    TGCTTTATACTGTAAAACTGCGAATGGCTCATTAAATCAGTTATAGTTTATTTGATGGTACTTACTACTCGGATAACCGTAGTAATTCTAGAGCTAATACGTGCGTAAATCCCGACTTCTGGAAGGGACGTATTTATTAGATAAAAGGCCAGCCGAGCTTGCTCGACTTTAGGTGAATCATGATAACTCCACGAATCGCATGGCCTTGTGCCGGCGATGTTTCATTCAAATTTCTGCCCTATCAACTTTCGATGGTAGGATAGAGGCCTACCATGGTGGTAACGGGTGACGGAGGATTAGGGTTCGATTCCGGAGAGGGAGCCTGAGAAATGGCTACCACATCCAAGGAAGGCAGCAGGCGCGCAAATTACCCAATCCCGACACGGGGAGGTAGTGACAATAAATAACAATGCCGAGCATTTTATGTTTGGCAATTGGAATGAGCACAATCTAAACCCCTTAACGAGGATCCATTGGAGGGCAAGTCTGGTGCCAGCAGCCGCGGTAATTCCAGCTCCAATAGCGTATATTTAAGTTGTTGCAGTTAAAAAGCTCGTAGTTGGATTTCGGGTGGGTTGTAGTGGTCCGGTTCGCTGTGTACTGCTACGGCCTTCCTTTCTGCCGGAAACGGGCTCTTGGGCTTTACTGTCTGGGACCCGGAGTCGGCGAGGTTACTTTGAGTAAATTAGAGTGTTCAAAGCAAGCTTACGCTCTGAATACATTAGCATGGAATAACACGATAGGACTCTGGCCTATCTTGTTGGTCTGTAGGACTGGAGTAATGATTAAGAGGGACAGTCGGGGGCATTCGTATTTCATTGTCAGAGGTGAAATTCTTGGATTTATGAAAGACGAACTTCTGCGAAAGCATTTGCCAAGGATGTTTTCATTAATC         '
p83
sg6
S'TGCTTTATACTGTAAAACTGCGAATGGCTCATTAAATCAGTTATAGTTTATTTGATGGTACTTACTACTCGGATAACCGTAGTAATTCTAGAGCTAATACGTGCGTAAATCCCGACTTCTGGAAGGGACGTATTTATTAGATAAAAGGCCAGCCGAGCTTGCTCGACTTTAGGTGAATCATGATAACTCCACGAATCGCATGGCCTTGTGCCGGCGATGTTTCATTCAAATTTCTGCCCTATCAACTTTCGATGGTAGGATAGAGGCCTACCATGGTGGTAACGGGTGACGGAGGATTAGGGTTCGATTCCGGAGAGGGAGCCTGAGAAATGGCTACCACATCCAAGGAAGGCAGCAGGCGCGCAAATTACCCAATCCCGACACGGGGAGGTAGTGACAATAAATAACAATGCCGAGCATTTTATGTTTGGCAATTGGAATGAGCACAATCTAAACCCCTTAACGAGGATCCATTGGAGGGCAAGTCTGGTGCCAGCAGCCGCGGTAATTCCAGCTCCAATAGCGTATATTTAAGTTGTTGCAGTTAAAAAGCTCGTAGTTGGATTTCGGGTGGGTTGTAGTGGTCCGGTTCGCTGTGTACTGCTACGGCCTTCCTTTCTGCCGGAAACGGGCTCTTGGGCTTTACTGTCTGGGACCCGGAGTCGGCGAGGTTACTTTGAGTAAATTAGAGTGTTCAAAGCAAGCTTACGCTCTGAATACATTAGCATGGAATAACACGATAGGACTCTGGCCTATCTTGTTGGTCTGTAGGACTGGAGTAATGATTAAGAGGGACAGTCGGGGGCATTCGTATTTCATTGTCAGAGGTGAAATTCTTGGATTTATGAAAGACGAACTTCTGCGAAAGCATTTGCCAAGGATGTTTTCATTAATC'
p84
sg8
S'frwdrev'
p85
sg10
I01
sg11
g12
sg13
I01
sg14
(lp86
(dp87
g4
g12
sg6
g12
sg8
S'file'
p88
sg10
I00
sg11
g12
sg13
I00
sg14
(lp89
sg19
I00
sg20
I16
sg21
S'cog_TEM2003_7-27L8-chloro18SF.ab1'
p90
sa(dp91
g4
g12
sg6
g12
sg8
S'file'
p92
sg10
I00
sg11
g12
sg13
I00
sg14
(lp93
sg19
I01
sg20
I17
sg21
S'cog_TEM2003_7-27L8-chloro18SMidR.ab1'
p94
sasg19
I00
sg20
I15
sg21
S'cog_TEM2003_7-27L8_18SA'
p95
sa(dp96
g4
g12
sg6
g12
sg8
S'file'
p97
sg10
I00
sg11
g12
sg13
I00
sg14
(lp98
sg19
I00
sg20
I18
sg21
S'cog_TEM2003_7-27L8-chloro18SMidF.ab1'
p99
sa(dp100
g4
S'            AACTGCTTTATACTGTAAAACTGCGAATGGCTCATTAAATCAGTTAT AGTTTATTTGATGGTACTTACTACTCGGATAACCGTAGTAATTCTAGAGCTAATACGTGCGTAAATCCCGACTTCTGGAAGGGACGTATTTATTAGATAAAAGGCCAGCCGAGCTTGCTCGACTTTAGGTGAATCATGATAACTCCACGAATCGCATGGCCTTGTGCCGGCGATGTTTCATTCAAATTTCTGCCCTATCAACTTTCGATGGTAGGATAGAGGCCTACCATGGTGGTAACGGGTGACGGAGGATTAGGGTTCGATTCCGGAGAGGGAGCCTGAGAAATGGCTACCACATCCAAGGAAGGCAGCAGGCGCGCAAATTACCCAATCCCGACACGGGGAGGTAGTGACAATAAATAACAATGCCGAGCATTTTATGTTTGGCAATTGG AATGAGCACAATCTAAACCCCTTAACGAGGATCCATTGGAGGGCAAGTCTGGTGCCAGCAGCCGCGGTAATTCCAGCTCCAATAGCGTATATTTAAGTTGTTGCAGTTAAAAAGCTCGTAGTTGGATTTCGGGTGGGTTGTAGTGGTCCGGTTCGCTGTGTACTGCTACGGCCTTCCTTTCTGCCGGAAACGGGCTCTTGGGCTTTACTGTCTGGGACCCGGAGTCGGCGAGGTTACTTTGAGTAAATTAGAGTGTTCAAAGCAAGCTTACGCTCTGAATACATTAGCATGGAATAACACGATAGGACTCTGGCCTATCTTGTTGGTCTGTAGGACTGGAGTAATGATTAAGAGGGACAGTCGGGGGCATTCGTATTTCATTGTCAGAGGTGAAATTCTTGGATTTATGAAAGACGAACTTCTGCGAAA                                      '
p101
sg6
S'AACTGCTTTATACTGTAAAACTGCGAATGGCTCATTAAATCAGTTATAGTTTATTTGATGGTACTTACTACTCGGATAACCGTAGTAATTCTAGAGCTAATACGTGCGTAAATCCCGACTTCTGGAAGGGACGTATTTATTAGATAAAAGGCCAGCCGAGCTTGCTCGACTTTAGGTGAATCATGATAACTCCACGAATCGCATGGCCTTGTGCCGGCGATGTTTCATTCAAATTTCTGCCCTATCAACTTTCGATGGTAGGATAGAGGCCTACCATGGTGGTAACGGGTGACGGAGGATTAGGGTTCGATTCCGGAGAGGGAGCCTGAGAAATGGCTACCACATCCAAGGAAGGCAGCAGGCGCGCAAATTACCCAATCCCGACACGGGGAGGTAGTGACAATAAATAACAATGCCGAGCATTTTATGTTTGGCAATTGGAATGAGCACAATCTAAACCCCTTAACGAGGATCCATTGGAGGGCAAGTCTGGTGCCAGCAGCCGCGGTAATTCCAGCTCCAATAGCGTATATTTAAGTTGTTGCAGTTAAAAAGCTCGTAGTTGGATTTCGGGTGGGTTGTAGTGGTCCGGTTCGCTGTGTACTGCTACGGCCTTCCTTTCTGCCGGAAACGGGCTCTTGGGCTTTACTGTCTGGGACCCGGAGTCGGCGAGGTTACTTTGAGTAAATTAGAGTGTTCAAAGCAAGCTTACGCTCTGAATACATTAGCATGGAATAACACGATAGGACTCTGGCCTATCTTGTTGGTCTGTAGGACTGGAGTAATGATTAAGAGGGACAGTCGGGGGCATTCGTATTTCATTGTCAGAGGTGAAATTCTTGGATTTATGAAAGACGAACTTCTGCGAAA'
p102
sg8
S'frwdrev'
p103
sg10
I01
sg11
g12
sg13
I01
sg14
(lp104
(dp105
g4
g12
sg6
g12
sg8
S'file'
p106
sg10
I00
sg11
g12
sg13
I00
sg14
(lp107
sg19
I00
sg20
I20
sg21
S'envelope_PAN1915_8-26L3-chloro18SF.ab1'
p108
sa(dp109
g4
g12
sg6
g12
sg8
S'file'
p110
sg10
I00
sg11
g12
sg13
I00
sg14
(lp111
sg19
I01
sg20
I21
sg21
S'envelope_PAN1915_8-26L3-chloro18SMidR.ab1'
p112
sasg19
I00
sg20
I19
sg21
S'envelope_PAN1915_8-26L3_18SA'
p113
sa(dp114
g4
g12
sg6
g12
sg8
S'file'
p115
sg10
I00
sg11
g12
sg13
I00
sg14
(lp116
sg19
I00
sg20
I22
sg21
S'envelope_PAN1915_8-26L3-chloro18SMidF.ab1'
p117
sa(dp118
g4
S'                               GAAATGCGATACGTAGTGTGAATTGCAGAATTCCGTGANCCATCGAATTTTTGAACGCATATTGCGCTCAAGGCTTCGGCCAAGAGCATGTCTGCCTCAGCGTCGGGTTCTCCATCATCGACTCTCNTCTTCTTTCGAGGATGATCGTCGTGGAAACTCGCAGTCCGATCCTCCGTTCTTAATCGAGCGTTGGTGAGGTCTGCCAAAGTGAAAGTAGCGCTCCGAGCATTGCCCATGCATGCGTCAGCAATGGCGTGTGTGTGGGTATGTAGCCGCACTCGAGTAGTTGTGTTATTCACATGTGTTGACTCACATGTGTCTTTCCTTATTCGACTATCCTACGCCTTGCTCGGCTTCTCTTTGTTGTCTTGATTGATAGCATCCGAGACGAACCAGCCCTATACAAGTATACCTCCCAACATGGAACCCTTCACTTCTCGACCTGAGCTCAGGCAAGATTACCCGCTGAACTTAAGCATATCAATAAGCGGAGGAAAAGAAACCAACCAGGATTCCCCTAGTAACGGCGAGCGAACCGGGATCAGCCCAACTTGAAAATCTCCCTCTTGGAGAATTGTAGTCTACAGAAGTGCCCTCTGTGGCCGTGGGAGCTCAAGTTCGCTGGAAGGCGACGTCAAAGAGGGTGAGAACCCCGTCGGCTCCCATCTGGCCGCACCACGAGGTGCTTTCCACGAGTCGGGTTGTTTGGGAATGCAGCCCAAAATTGGAGGTAAATCCCTTCTAAGGCTAAATAACGGCGAGAG                           '
p119
sg6
S'GAAATGCGATACGTAGTGTGAATTGCAGAATTCCGTGANCCATCGAATTTTTGAACGCATATTGCGCTCAAGGCTTCGGCCAAGAGCATGTCTGCCTCAGCGTCGGGTTCTCCATCATCGACTCTCNTCTTCTTTCGAGGATGATCGTCGTGGAAACTCGCAGTCCGATCCTCCGTTCTTAATCGAGCGTTGGTGAGGTCTGCCAAAGTGAAAGTAGCGCTCCGAGCATTGCCCATGCATGCGTCAGCAATGGCGTGTGTGTGGGTATGTAGCCGCACTCGAGTAGTTGTGTTATTCACATGTGTTGACTCACATGTGTCTTTCCTTATTCGACTATCCTACGCCTTGCTCGGCTTCTCTTTGTTGTCTTGATTGATAGCATCCGAGACGAACCAGCCCTATACAAGTATACCTCCCAACATGGAACCCTTCACTTCTCGACCTGAGCTCAGGCAAGATTACCCGCTGAACTTAAGCATATCAATAAGCGGAGGAAAAGAAACCAACCAGGATTCCCCTAGTAACGGCGAGCGAACCGGGATCAGCCCAACTTGAAAATCTCCCTCTTGGAGAATTGTAGTCTACAGAAGTGCCCTCTGTGGCCGTGGGAGCTCAAGTTCGCTGGAAGGCGACGTCAAAGAGGGTGAGAACCCCGTCGGCTCCCATCTGGCCGCACCACGAGGTGCTTTCCACGAGTCGGGTTGTTTGGGAATGCAGCCCAAAATTGGAGGTAAATCCCTTCTAAGGCTAAATAACGGCGAGAG'
p120
sg8
S'frwdrev'
p121
sg10
I01
sg11
g12
sg13
I01
sg14
(lp122
(dp123
g4
g12
sg6
g12
sg8
S'file'
p124
sg10
I00
sg11
g12
sg13
I00
sg14
(lp125
sg19
I00
sg20
I24
sg21
S'envelope_PAN1915_8-26L3-chlorITS2F.ab1'
p126
sa(dp127
g4
g12
sg6
g12
sg8
S'file'
p128
sg10
I00
sg11
g12
sg13
I00
sg14
(lp129
sg19
I01
sg20
I25
sg21
S'envelope_PAN1915_8-26L3-chlorITS2R.ab1'
p130
sasg19
I00
sg20
I23
sg21
S'envelope_PAN1915_8-26L3_ITS2'
p131
sa(dp132
g4
S'    AAACTGCGAATGGCTCATTAAATCAGTTATAGTTTATTTGATGGTACTTACTACTCGGATAACCGTAGTAATTCTAGAGCTAATACGTGCGTAAATCCCGACTTCTGGAAGGGACGTATTTATTAGATAAAAGGCCAGCCGAGCTTGCTCGACTTTAGGTGAATCATGATAACTCCACGAATCGCATGGCCTTGTGCCGGCGATGTTTCATTCAAATTTCTGCCCTATCAACTTTCGATGGTAGGATAGAGGCCTACCATGGTGGTAACGGGTGACGGAGGATTAGGGTTCGATTCCGGAGAGGGAGCCTGAGAAATGGCTACCACATCCAAGGAAGGCAGCAGGCGCGCAAATTACCCAATCCCGACACGGGGAGGTAGTGACAATAAATAACAATGCCGAGCATTTTATGTTTGGCAATTGGAATGAGCACAATCTAAACCCCTTAACGAGGATCCATTGGAGGGCAAGTCTGGTGCCAGCAGCCGCGGTAATTCCAGCTCCAATAGCGTATATTTAAGTTGTTGCAGTTAAAAAGCTCGTAGTTGGATTTCGGGTGGGTTGTAGTGGTCCGGTTCGCTGTGTACTGCTACGGCCTTCCTTTCTGCCGGAAACGNGCTCTTGGGCTTTACTGTCTGGGACTCGGAGTCGGCGAGGTTACTTTGAGTAAATTAGAGTGTTCAAAGCAAGCTTACGCTCTGAATACATTAGCATGGAATAACACGATAGGACTCTGGCCTATCTTGTTGGTCTGTAGGACTGGAGTAATGATTAAGAGGGACAGTCGGGGGCATTCGTATTTCATTGTCAGAGGTGAAATTCTTGGATTTATGAAAGACGAACTTCTGCGAAAGCATTTGCCAAGGATGTTTNCANTNATCNANAACNAAAGTNNGGGG        '
p133
sg6
S'AAACTGCGAATGGCTCATTAAATCAGTTATAGTTTATTTGATGGTACTTACTACTCGGATAACCGTAGTAATTCTAGAGCTAATACGTGCGTAAATCCCGACTTCTGGAAGGGACGTATTTATTAGATAAAAGGCCAGCCGAGCTTGCTCGACTTTAGGTGAATCATGATAACTCCACGAATCGCATGGCCTTGTGCCGGCGATGTTTCATTCAAATTTCTGCCCTATCAACTTTCGATGGTAGGATAGAGGCCTACCATGGTGGTAACGGGTGACGGAGGATTAGGGTTCGATTCCGGAGAGGGAGCCTGAGAAATGGCTACCACATCCAAGGAAGGCAGCAGGCGCGCAAATTACCCAATCCCGACACGGGGAGGTAGTGACAATAAATAACAATGCCGAGCATTTTATGTTTGGCAATTGGAATGAGCACAATCTAAACCCCTTAACGAGGATCCATTGGAGGGCAAGTCTGGTGCCAGCAGCCGCGGTAATTCCAGCTCCAATAGCGTATATTTAAGTTGTTGCAGTTAAAAAGCTCGTAGTTGGATTTCGGGTGGGTTGTAGTGGTCCGGTTCGCTGTGTACTGCTACGGCCTTCCTTTCTGCCGGAAACGNGCTCTTGGGCTTTACTGTCTGGGACTCGGAGTCGGCGAGGTTACTTTGAGTAAATTAGAGTGTTCAAAGCAAGCTTACGCTCTGAATACATTAGCATGGAATAACACGATAGGACTCTGGCCTATCTTGTTGGTCTGTAGGACTGGAGTAATGATTAAGAGGGACAGTCGGGGGCATTCGTATTTCATTGTCAGAGGTGAAATTCTTGGATTTATGAAAGACGAACTTCTGCGAAAGCATTTGCCAAGGATGTTTNCANTNATCNANAACNAAAGTNNGGGG'
p134
sg8
S'frwdrev'
p135
sg10
I01
sg11
g12
sg13
I01
sg14
(lp136
(dp137
g4
g12
sg6
g12
sg8
S'file'
p138
sg10
I00
sg11
g12
sg13
I00
sg14
(lp139
sg19
I00
sg20
I27
sg21
S'envelope_WED2206_7-26L1-chloro18SF.ab1'
p140
sa(dp141
g4
g12
sg6
g12
sg8
S'file'
p142
sg10
I00
sg11
g12
sg13
I00
sg14
(lp143
sg19
I01
sg20
I28
sg21
S'envelope_WED2206_7-26L1-chloro18SMidR.ab1'
p144
sasg19
I00
sg20
I26
sg21
S'envelope_WED2206_7-26L1_18SA'
p145
sa(dp146
g4
g12
sg6
g12
sg8
S'file'
p147
sg10
I00
sg11
g12
sg13
I00
sg14
(lp148
sg19
I00
sg20
I29
sg21
S'envelope_WED2206_7-26L1-chloro18SMidF.ab1'
p149
sa(dp150
g4
S'                           CCAGTTGCTGGTGAAGAAAACCAATACATCGCTTACGTTGCTTATCCTATTGACCTTTTTGAAGAAGGTTCTGTAACTAACTTATTTACATCTATTGTAGGTAACGTTTTTGGTTTCAAAGCTCTTCGTGCTTTACGTCTTGAAGATTTACGTATTTCTTGTGCATACGCTAAAACATTCCAAGGACCTCCTCACGGGATCCAAGTAGAACGTGACAAATTAAACAAATATGGTCGTGGTCTTTTAGGTTGTACAATTAAACCTAAATTAGGTTTATCAGCTAAAAACTATGGTCGTGCAGTTTACGAATGTTTACGTGGTGGGTTAGATTTCACAAAAGATGATGAAAATGTTACAAGCCAAGCTTTCATGCGTTGGAGAGACCGTTTTATTTTTGTAGCAGAAGCTCTTTACAAATCTCAAGCTGAAACAGGTAAATTTTGCCTAGCTAGTCTGTAAAGACNTAGTAAAAAACATTGGATGAATTGCAAGGACGCTAAAGCTTTTTTTAAATCATTTTATAAATCATTTTATAAATCATTTTATAAATCATAGCTANTGCCAACTTGCAGCGAAGCTTGCTGAAAGATTTTTTGTAGGCA AGAACGTTCAACNGACTAGAGAGTGAGCTGATCTGGGCANATAATCTCTCCACGAGCCTCCAACT ACCCTTTTTTTTATCAAAACAGCTGTGCTGA AANAGAAATAGGTAGANAGACATAGTCTGAGCTTTAAGGAAACTTAAAGAAATCTAGGATAAAGAACCT AGATGATAACATANATGGAAATTA AAGGACATTATTNTAA ACGTTACTGCTGGAACGT CTGAAGAAATGCTNANAAAAGAGCTGAAGTAGCTAA AGATTTAGGGGTACCTATTATTATGCATGACTATCTAACAGGTGGTCTTACTGCTAACACTTCATTAGCTCACTACTGTCGTGACAATGGTCTATTATTACACATTCACAGAGCAATGCACGCGGTTATTGACCGTCAAAGAAACCACGGGATTCACTTCCGTGTATTAGCAAAAGCTCTTCGTTTATCTGGTGGGGACCATCTTCACTCAGGAACTGTTGTAGGAAAACTAGAAGGTGAACGTGAAGTTACTTTAGGTTTCGTTGATTTAATGAGAGACGAATATATNGAAAAAGACCGTAGCCG                              '
p151
sg6
S'CCAGTTGCTGGTGAAGAAAACCAATACATCGCTTACGTTGCTTATCCTATTGACCTTTTTGAAGAAGGTTCTGTAACTAACTTATTTACATCTATTGTAGGTAACGTTTTTGGTTTCAAAGCTCTTCGTGCTTTACGTCTTGAAGATTTACGTATTTCTTGTGCATACGCTAAAACATTCCAAGGACCTCCTCACGGGATCCAAGTAGAACGTGACAAATTAAACAAATATGGTCGTGGTCTTTTAGGTTGTACAATTAAACCTAAATTAGGTTTATCAGCTAAAAACTATGGTCGTGCAGTTTACGAATGTTTACGTGGTGGGTTAGATTTCACAAAAGATGATGAAAATGTTACAAGCCAAGCTTTCATGCGTTGGAGAGACCGTTTTATTTTTGTAGCAGAAGCTCTTTACAAATCTCAAGCTGAAACAGGTAAATTTTGCCTAGCTAGTCTGTAAAGACNTAGTAAAAAACATTGGATGAATTGCAAGGACGCTAAAGCTTTTTTTAAATCATTTTATAAATCATTTTATAAATCATTTTATAAATCATAGCTANTGCCAACTTGCAGCGAAGCTTGCTGAAAGATTTTTTGTAGGCAAGAACGTTCAACNGACTAGAGAGTGAGCTGATCTGGGCANATAATCTCTCCACGAGCCTCCAACTACCCTTTTTTTTATCAAAACAGCTGTGCTGAAANAGAAATAGGTAGANAGACATAGTCTGAGCTTTAAGGAAACTTAAAGAAATCTAGGATAAAGAACCTAGATGATAACATANATGGAAATTAAAGGACATTATTNTAAACGTTACTGCTGGAACGTCTGAAGAAATGCTNANAAAAGAGCTGAAGTAGCTAAAGATTTAGGGGTACCTATTATTATGCATGACTATCTAACAGGTGGTCTTACTGCTAACACTTCATTAGCTCACTACTGTCGTGACAATGGTCTATTATTACACATTCACAGAGCAATGCACGCGGTTATTGACCGTCAAAGAAACCACGGGATTCACTTCCGTGTATTAGCAAAAGCTCTTCGTTTATCTGGTGGGGACCATCTTCACTCAGGAACTGTTGTAGGAAAACTAGAAGGTGAACGTGAAGTTACTTTAGGTTTCGTTGATTTAATGAGAGACGAATATATNGAAAAAGACCGTAGCCG'
p152
sg8
S'frwdrev'
p153
sg10
I01
sg11
g12
sg13
I01
sg14
(lp154
(dp155
g4
g12
sg6
g12
sg8
S'file'
p156
sg10
I00
sg11
g12
sg13
I00
sg14
(lp157
sg19
I00
sg20
I31
sg21
S'../CE_30-761768339/envelope_WED2206_7-26L1-rbcL_remiasii_F.ab1'
p158
sa(dp159
g4
g12
sg6
g12
sg8
S'file'
p160
sg10
I00
sg11
g12
sg13
I00
sg14
(lp161
sg19
I01
sg20
I32
sg21
S'envelope_WED2206_7-26L1-remiasii_rbcl_R.ab1'
p162
sasg19
I00
sg20
I30
sg21
S'envelope_WED2206_7-26L1_rbcL'
p163
sa(dp164
g4
S'       AAACTGNNAATGGCTCATTNAATCAGTTATAGTTTATTTGATGGTACTTACTACTCGGATAACCGTAGTAATTCTAGAGCTAATACGTGCGTAAATCCCGACTTCTGGAAGGGACGTATTTATTAGATAAAAGGCCAGCCGAGCTTGCTCGACTTTAGGTGAATCATGATAACTCCACGAATCGCATGGCCTTGTGCCGGCGATGTTTCATTCAAATTTCTGCCCTATCAACTTTCGATGGTAGGATAGAGGCCTACCATGGTGGTAACGGGTGACGGAGGATTAGGGTTCGATTCCGGAGAGGGAGCCTGAGAAATGGCTACCACATCCAAGGAAGGCAGCAGGCGCGCAAATTACCCAATCCCGACACGGGGAGGTAGTGACAATAAATAACAATGCCGAGCATTTTATGTTTGGCAATTGGAATGAGCACAATCTAAACCCCTTAACGAGGATCCATTGGAGGGCAAGTCTGGTGCCAGCAGCCGCGGTAATTCCAGCTCCAATAGCGTATATTTAAGTTGTTGCAGTTAAAAAGCTCGTAGTTGGATTTCGGGTGGGTTGTAGTGGTCCGGTTCGCTGTGTACTGCTACGGCCTTCCTTTCTGCCGGAAACGNGCTCTTGGGCTTTACTGTCTGGGACTCGGAGTCGGCGAGGTTACTTTGAGTAAATTAGAGTGTTCAAAGCAAGCTTACGCTCTGAATACATTAGCATGGAATAACACGATAGGACTCTGGCCTATCTTGTTGGTCTGTAGGACTGGAGTAATGATTAAGAGGGACAGTCGGGGGCATTCGTATTTCATTGTCAGAGGTGAAATTCTTGGATTTATGAAAGACGAACTTCTGCGAAAGCATTTGCCAAGGATGNTTTCATTAATC        '
p165
sg6
S'AAACTGNNAATGGCTCATTNAATCAGTTATAGTTTATTTGATGGTACTTACTACTCGGATAACCGTAGTAATTCTAGAGCTAATACGTGCGTAAATCCCGACTTCTGGAAGGGACGTATTTATTAGATAAAAGGCCAGCCGAGCTTGCTCGACTTTAGGTGAATCATGATAACTCCACGAATCGCATGGCCTTGTGCCGGCGATGTTTCATTCAAATTTCTGCCCTATCAACTTTCGATGGTAGGATAGAGGCCTACCATGGTGGTAACGGGTGACGGAGGATTAGGGTTCGATTCCGGAGAGGGAGCCTGAGAAATGGCTACCACATCCAAGGAAGGCAGCAGGCGCGCAAATTACCCAATCCCGACACGGGGAGGTAGTGACAATAAATAACAATGCCGAGCATTTTATGTTTGGCAATTGGAATGAGCACAATCTAAACCCCTTAACGAGGATCCATTGGAGGGCAAGTCTGGTGCCAGCAGCCGCGGTAATTCCAGCTCCAATAGCGTATATTTAAGTTGTTGCAGTTAAAAAGCTCGTAGTTGGATTTCGGGTGGGTTGTAGTGGTCCGGTTCGCTGTGTACTGCTACGGCCTTCCTTTCTGCCGGAAACGNGCTCTTGGGCTTTACTGTCTGGGACTCGGAGTCGGCGAGGTTACTTTGAGTAAATTAGAGTGTTCAAAGCAAGCTTACGCTCTGAATACATTAGCATGGAATAACACGATAGGACTCTGGCCTATCTTGTTGGTCTGTAGGACTGGAGTAATGATTAAGAGGGACAGTCGGGGGCATTCGTATTTCATTGTCAGAGGTGAAATTCTTGGATTTATGAAAGACGAACTTCTGCGAAAGCATTTGCCAAGGATGNTTTCATTAATC'
p166
sg8
S'frwdrev'
p167
sg10
I01
sg11
g12
sg13
I01
sg14
(lp168
(dp169
g4
g12
sg6
g12
sg8
S'file'
p170
sg10
I00
sg11
g12
sg13
I00
sg14
(lp171
sg19
I00
sg20
I34
sg21
S'envelope_WED2236_8-31L3-chloro18SF.ab1'
p172
sa(dp173
g4
g12
sg6
g12
sg8
S'file'
p174
sg10
I00
sg11
g12
sg13
I00
sg14
(lp175
sg19
I01
sg20
I35
sg21
S'envelope_WED2236_8-31L3-chloro18SMidR.ab1'
p176
sasg19
I00
sg20
I33
sg21
S'envelope_WED2236_8-31L3_18SA'
p177
sa(dp178
g4
g12
sg6
g12
sg8
S'file'
p179
sg10
I00
sg11
g12
sg13
I00
sg14
(lp180
sg19
I00
sg20
I36
sg21
S'envelope_WED2236_8-31L3-chloro18SMidF.ab1'
p181
sa(dp182
g4
S'           TTATAGTTTATTTGATGGTACTTACTACTCGGATAACCGTAGTAATTCTAGAGCTAATACGTGCGTAAATCCCGACTTCTGGAAGGGACGTATTTATTAGATAAAAGGCCAGCCGAGCTTGCTCGACTTTAGGTGAATCATGATAACTCCACGAATCGCATGGCCTTGTGCCGGCGATGTTTCATTCAAATTTCTGCCCTATCAACTTTCGATGGTAGGATAGAGGCCTACCATGGTGGTAACGGGTGACGGAGGATTAGGGTTCGATTCCGGAGAGGGAGCCTGAGAAATGGCTACCACATCCAAGGAAGGCAGCAGGCGCGCAAATTACCCAATCCCGACACGGGGAGGTAGTGACAATAAATAACAATGCCGAGCATTTTATGTTTGGCAATTGGAATGAGCACAATCTAAACCCCTTAACGAGGATCCATTGGAGGGCAAGTCTGGTGCCAGCAGCCGCGGTAATTCCAGCTCCAATAGCGTATATTTAAGTTGTTGCAGTTAAAAAGCTCGTAGTTGGATTTCGGGTGGGTTGTAGTGGTCCGGTTCGCTGTGTACTGCTACGGCCTTCCTTTCTGCCGGAAACGGGCTCTTGGGCTTTACTGTCTGGGACTCGGAGTCGGCGAGGTTACTTTGAGTAAATTAGAGTGTTCAAAGCAAGCTTACGCTCTGAATACATTAGCATGGAATAACACGATAGGACTCTGGCCTATCTTGTTGGTCTGTAGGACTGGAGTAATGATTAAGAGGGACAGTCGGGGGCATTCGTATTTCATTGTCAGAGGTGAAATTCTTGGATTTATGAAAGACGAACTTCTGCGAAAGCATTNGCCAAGGATGTTTTCANTAATCAAGAACNAAANNTGGGG   '
p183
sg6
S'TTATAGTTTATTTGATGGTACTTACTACTCGGATAACCGTAGTAATTCTAGAGCTAATACGTGCGTAAATCCCGACTTCTGGAAGGGACGTATTTATTAGATAAAAGGCCAGCCGAGCTTGCTCGACTTTAGGTGAATCATGATAACTCCACGAATCGCATGGCCTTGTGCCGGCGATGTTTCATTCAAATTTCTGCCCTATCAACTTTCGATGGTAGGATAGAGGCCTACCATGGTGGTAACGGGTGACGGAGGATTAGGGTTCGATTCCGGAGAGGGAGCCTGAGAAATGGCTACCACATCCAAGGAAGGCAGCAGGCGCGCAAATTACCCAATCCCGACACGGGGAGGTAGTGACAATAAATAACAATGCCGAGCATTTTATGTTTGGCAATTGGAATGAGCACAATCTAAACCCCTTAACGAGGATCCATTGGAGGGCAAGTCTGGTGCCAGCAGCCGCGGTAATTCCAGCTCCAATAGCGTATATTTAAGTTGTTGCAGTTAAAAAGCTCGTAGTTGGATTTCGGGTGGGTTGTAGTGGTCCGGTTCGCTGTGTACTGCTACGGCCTTCCTTTCTGCCGGAAACGGGCTCTTGGGCTTTACTGTCTGGGACTCGGAGTCGGCGAGGTTACTTTGAGTAAATTAGAGTGTTCAAAGCAAGCTTACGCTCTGAATACATTAGCATGGAATAACACGATAGGACTCTGGCCTATCTTGTTGGTCTGTAGGACTGGAGTAATGATTAAGAGGGACAGTCGGGGGCATTCGTATTTCATTGTCAGAGGTGAAATTCTTGGATTTATGAAAGACGAACTTCTGCGAAAGCATTNGCCAAGGATGTTTTCANTAATCAAGAACNAAANNTGGGG'
p184
sg8
S'frwdrev'
p185
sg10
I01
sg11
g12
sg13
I01
sg14
(lp186
(dp187
g4
g12
sg6
g12
sg8
S'file'
p188
sg10
I00
sg11
g12
sg13
I00
sg14
(lp189
sg19
I00
sg20
I38
sg21
S'petal_BUG1902_AB3-18T1-chloro18SF.ab1'
p190
sa(dp191
g4
g12
sg6
g12
sg8
S'file'
p192
sg10
I00
sg11
g12
sg13
I00
sg14
(lp193
sg19
I01
sg20
I39
sg21
S'petal_BUG1902_AB3-18T1-chloro18SMidR.ab1'
p194
sasg19
I00
sg20
I37
sg21
S'petal_BUG1902_AB3-18T1_18SA'
p195
sa(dp196
g4
S'                                 AGGTGAATTCTTGGATTTATGAAAGACGAACTTCTGCGAAAGCATTTGCCAAGGATGTTTTCATTAATCAAGAACGAAAGTTGGGGGCTCGAAGACGATTAGATACCGTCGTAGTCTCAACCATAAACGATGCCGACTAGGGATTGGCAGGTGTTCTTTTGATGACCCTGCCAGCACCTTATGAGAAATCAAAGTTTTTGGGTTCCGGGGGGAGTATGGTCGCAAGGCTGAAACTTAAAGGAATTGACGGAAGGGCACCACCAGGCGTGGAGCCTGCGGCTTAATTTGACTCAACACGGGAAAACTTACCAGGTCCAGACACGGGGAGGATTGACAGATTGAGAGCTCTTTCTTGATTCTGTGGGTGGTGGTGCATGGCCGTTCTTAGTTGGTGGGTTGCCTTGTCAGGTTGATTCCGGTAACGAACGAGACCTCAGCCTGCTAAATAGTCACGTCTGCCTCTCGCAGACGGCCGACTTCTTAGAGGGACTATTGTCGTTTAGGCAATGGAAGTATGAGGCAATAACAGGTCTGTGATGCCCTTAGATGTTCTGGGCCGCACGCGCGCTACACTGATGCGTTCAACGAGCCTATCCTTGGCCGAGAGGCCCGGGTAATCTTCGAAACCGCATCGTGATGGGGATAGATTATTGCAATTATTAGTCTTCAACGAGGAATGCCTAGTAAGCGCGAGTCATCAGCTCGCGN                 '
p197
sg6
S'AGGTGAATTCTTGGATTTATGAAAGACGAACTTCTGCGAAAGCATTTGCCAAGGATGTTTTCATTAATCAAGAACGAAAGTTGGGGGCTCGAAGACGATTAGATACCGTCGTAGTCTCAACCATAAACGATGCCGACTAGGGATTGGCAGGTGTTCTTTTGATGACCCTGCCAGCACCTTATGAGAAATCAAAGTTTTTGGGTTCCGGGGGGAGTATGGTCGCAAGGCTGAAACTTAAAGGAATTGACGGAAGGGCACCACCAGGCGTGGAGCCTGCGGCTTAATTTGACTCAACACGGGAAAACTTACCAGGTCCAGACACGGGGAGGATTGACAGATTGAGAGCTCTTTCTTGATTCTGTGGGTGGTGGTGCATGGCCGTTCTTAGTTGGTGGGTTGCCTTGTCAGGTTGATTCCGGTAACGAACGAGACCTCAGCCTGCTAAATAGTCACGTCTGCCTCTCGCAGACGGCCGACTTCTTAGAGGGACTATTGTCGTTTAGGCAATGGAAGTATGAGGCAATAACAGGTCTGTGATGCCCTTAGATGTTCTGGGCCGCACGCGCGCTACACTGATGCGTTCAACGAGCCTATCCTTGGCCGAGAGGCCCGGGTAATCTTCGAAACCGCATCGTGATGGGGATAGATTATTGCAATTATTAGTCTTCAACGAGGAATGCCTAGTAAGCGCGAGTCATCAGCTCGCGN'
p198
sg8
S'file'
p199
sg10
I01
sg11
g12
sg13
I01
sg14
(lp200
sg19
I00
sg20
I40
sg21
S'petal_BUG1902_AB3-18T1-chloro18SMidF.ab1'
p201
sa(dp202
g4
S'        AAGTATAAANTGCTTNATACTGTTAANCTGCGAATGNCTCATTAAATCAGTTATAGTTTATTTGATGGTACTTACTACTCGGATAACCGTAGTAATTCTAGAGCTAATACGTGCGTAAATCCCGACTTCTGGAAGGGACGTATTTATTAGATAAAAGGCCAGCCGAGCTTGCTCGACTTTAGGTGAATCATGATAACTCCACGAATCGCATGGCCTTGTGCCGGCGATGTTTCATTCAAATTTCTGCCCTATCAACTTTCGATGGTAGGATAGAGGCCTACCATGGTGGTAACGGGTGACGGAGGATTAGGGTTCGATTCCGGAGAGGGAGCCTGAGAAATGGCTACCACATCCAAGGAAGGCAGCAGGCGCGCAAATTACCCAATCCCGACACGGGGAGGTAGTGACAATAAATAACAATGCCGAGCATTTTATGTTTGGCAATTGGAATGAGCACAATCTAAACCCCTTAACGAGGATCCATTGGAGGGCAAGTCTGGTGCCAGCAGCCGCGGTAATTCCAGCTCCAATAGCGTATATTTAAGTTGTTGCAGTTAAAAAGCTCGTAGTTGGATTTCGGGTGGGTTGTAGTGGTCCGGTTCGCTGTGTACTGCTACGGCCTTCCTTTCTGCCGGAAACGGGCTCTTGGGCTTTACTGTCTGGGACTCGGAGTCGGCGAGGTTACTTTGAGTAAATTAGAGTGTTCAAAGCAAGCTTACGCTCTGAATACATTAGCATGGAATAACACGATAGGACTCTGGCCTATCTTGTTGGTCTGTAGGACTGGAGTAATGATTAAGAGGGACAGTCGGGGGCATTCGTATTTCATTGTCAGAGGTGAAATTCTTGGATTTATGAAAGACGAACTTCTGCGAAAGCATTTNCCAAGGATGNTTCAT              '
p203
sg6
S'AAGTATAAANTGCTTNATACTGTTAANCTGCGAATGNCTCATTAAATCAGTTATAGTTTATTTGATGGTACTTACTACTCGGATAACCGTAGTAATTCTAGAGCTAATACGTGCGTAAATCCCGACTTCTGGAAGGGACGTATTTATTAGATAAAAGGCCAGCCGAGCTTGCTCGACTTTAGGTGAATCATGATAACTCCACGAATCGCATGGCCTTGTGCCGGCGATGTTTCATTCAAATTTCTGCCCTATCAACTTTCGATGGTAGGATAGAGGCCTACCATGGTGGTAACGGGTGACGGAGGATTAGGGTTCGATTCCGGAGAGGGAGCCTGAGAAATGGCTACCACATCCAAGGAAGGCAGCAGGCGCGCAAATTACCCAATCCCGACACGGGGAGGTAGTGACAATAAATAACAATGCCGAGCATTTTATGTTTGGCAATTGGAATGAGCACAATCTAAACCCCTTAACGAGGATCCATTGGAGGGCAAGTCTGGTGCCAGCAGCCGCGGTAATTCCAGCTCCAATAGCGTATATTTAAGTTGTTGCAGTTAAAAAGCTCGTAGTTGGATTTCGGGTGGGTTGTAGTGGTCCGGTTCGCTGTGTACTGCTACGGCCTTCCTTTCTGCCGGAAACGGGCTCTTGGGCTTTACTGTCTGGGACTCGGAGTCGGCGAGGTTACTTTGAGTAAATTAGAGTGTTCAAAGCAAGCTTACGCTCTGAATACATTAGCATGGAATAACACGATAGGACTCTGGCCTATCTTGTTGGTCTGTAGGACTGGAGTAATGATTAAGAGGGACAGTCGGGGGCATTCGTATTTCATTGTCAGAGGTGAAATTCTTGGATTTATGAAAGACGAACTTCTGCGAAAGCATTTNCCAAGGATGNTTCAT'
p204
sg8
S'frwdrev'
p205
sg10
I01
sg11
g12
sg13
I01
sg14
(lp206
(dp207
g4
g12
sg6
g12
sg8
S'file'
p208
sg10
I00
sg11
g12
sg13
I00
sg14
(lp209
sg19
I00
sg20
I42
sg21
S'petal_CAT20TR8_7-22L2-chloro18SF.ab1'
p210
sa(dp211
g4
g12
sg6
g12
sg8
S'file'
p212
sg10
I00
sg11
g12
sg13
I00
sg14
(lp213
sg19
I01
sg20
I43
sg21
S'petal_CAT20TR8_7-22L2-chloro18SMidR.ab1'
p214
sasg19
I00
sg20
I41
sg21
S'petal_CAT20TR8_7-22L2_18SA'
p215
sa(dp216
g4
g12
sg6
g12
sg8
S'file'
p217
sg10
I00
sg11
g12
sg13
I00
sg14
(lp218
sg19
I00
sg20
I44
sg21
S'petal_CAT20TR8_7-22L2-chloro18SMidF.ab1'
p219
sa(dp220
g4
S'           AANTCAGTTATAGTTTATTTGATGGTACTTACTACTCGGATAACCGTAGTAATTCTAGAGCTAATACGTGCGTAAATCCCGACTTCTGGAAGGGACGTATTTATTAGATAAAAGGCCAGCCGAGCTTGCTCGACTTTAGGTGAATCATGATAACTCCACGAATCGCATGGCCTTGTGCCGGCGATGTTTCATTCAAATTTCTGCCCTATCAACTTTCGATGGTAGGATAGAGGCCTACCATGGTGGTAACGGGTGACGGAGGATTAGGGTTCGATTCCGGAGAGGGAGCCTGAGAAATGGCTACCACATCCAAGGAAGGCAGCAGGCGCGCAAATTACCCAATCCCGACACGGGGAGGTAGTGACAATAAATAACAATGCCGAGCATTTTATGTTTGGCAATTGGAATGAGCACAATCTAAACCCCTTAACGAGGATCCATTGGAGGGCAAGTCTGGTGCCAGCAGCCGCGGTAATTCCAGCTCCAATAGCGTATATTTAAGTTGTTGCAGTTAAAAAGCTCGTAGTTGGATTTCGGGTGGGTTGTAGTGGTCCGGTTCGCTGTGTACTGCTACGGCCTTCCTTTCTGCCGGAAACGGGCTCTTGGGCTTTACTGTCTGGGACTCGGAGTCGGCGAGGTTACTTTGAGTAAATTAGAGTGTTCAAAGCAAGCTTACGCTCTGAATACATTAGCATGGAATAACACGATAGGACTCTGGCCTATCTTGTTGGTCTGTAGGACTGGAGTAATGATTAAGAGGGACAGTCGGGGGCATTCGTATTTCATTGTCAGAGGTGAAATTCTTGGATTTATGAAAGACGAACTTCTGCGAAAGCA TTGCCAAGGATGNTTTCANTAATCNAGA           '
p221
sg6
S'AANTCAGTTATAGTTTATTTGATGGTACTTACTACTCGGATAACCGTAGTAATTCTAGAGCTAATACGTGCGTAAATCCCGACTTCTGGAAGGGACGTATTTATTAGATAAAAGGCCAGCCGAGCTTGCTCGACTTTAGGTGAATCATGATAACTCCACGAATCGCATGGCCTTGTGCCGGCGATGTTTCATTCAAATTTCTGCCCTATCAACTTTCGATGGTAGGATAGAGGCCTACCATGGTGGTAACGGGTGACGGAGGATTAGGGTTCGATTCCGGAGAGGGAGCCTGAGAAATGGCTACCACATCCAAGGAAGGCAGCAGGCGCGCAAATTACCCAATCCCGACACGGGGAGGTAGTGACAATAAATAACAATGCCGAGCATTTTATGTTTGGCAATTGGAATGAGCACAATCTAAACCCCTTAACGAGGATCCATTGGAGGGCAAGTCTGGTGCCAGCAGCCGCGGTAATTCCAGCTCCAATAGCGTATATTTAAGTTGTTGCAGTTAAAAAGCTCGTAGTTGGATTTCGGGTGGGTTGTAGTGGTCCGGTTCGCTGTGTACTGCTACGGCCTTCCTTTCTGCCGGAAACGGGCTCTTGGGCTTTACTGTCTGGGACTCGGAGTCGGCGAGGTTACTTTGAGTAAATTAGAGTGTTCAAAGCAAGCTTACGCTCTGAATACATTAGCATGGAATAACACGATAGGACTCTGGCCTATCTTGTTGGTCTGTAGGACTGGAGTAATGATTAAGAGGGACAGTCGGGGGCATTCGTATTTCATTGTCAGAGGTGAAATTCTTGGATTTATGAAAGACGAACTTCTGCGAAAGCATTGCCAAGGATGNTTTCANTAATCNAGA'
p222
sg8
S'frwdrev'
p223
sg10
I01
sg11
g12
sg13
I01
sg14
(lp224
(dp225
g4
g12
sg6
g12
sg8
S'file'
p226
sg10
I00
sg11
g12
sg13
I00
sg14
(lp227
sg19
I00
sg20
I46
sg21
S'petal_WED2236_8-31L2-chloro18SF.ab1'
p228
sa(dp229
g4
g12
sg6
g12
sg8
S'file'
p230
sg10
I00
sg11
g12
sg13
I00
sg14
(lp231
sg19
I01
sg20
I47
sg21
S'petal_WED2236_8-31L2-chloro18SMidR.ab1'
p232
sasg19
I00
sg20
I45
sg21
S'petal_WED2236_8-31L2_18SA'
p233
sa(dp234
g4
g12
sg6
g12
sg8
S'file'
p235
sg10
I00
sg11
g12
sg13
I00
sg14
(lp236
sg19
I00
sg20
I48
sg21
S'petal_WED2236_8-31L2-chloro18SMidF.ab1'
p237
sasS'formatversion'
p238
S'0.9'
p239
sS'consseqsettings'
p240
(dp241
S'consensus_algorithm'
p242
S'Bayesian'
p243
sS'do_qualitytrim'
p244
I01
sS'qualitytrim_winsize'
p245
I10
sS'primermatch_threshold'
p246
F0.8
sS'trim_endgaps'
p247
I00
sS'min_confscore'
p248
I30
sS'forward_primer'
p249
g12
sS'reverse_primer'
p250
g12
sS'qualitytrim_basecnt'
p251
I8
sS'trim_consensus'
p252
I01
sS'trim_primers'
p253
I00
ssS'properties'
p254
(dp255
S'fwd_trace_searchstr'
p256
S'_F'
p257
sS'rev_trace_searchstr'
p258
S'_R'
p259
sS'trace_file_dir'
p260
S'.'
p261
ss.