(dp0
S'items'
p1
(lp2
(dp3
S'fullcons'
p4
S'                                                                                                                            GCNGGNGCTGCNGTAGCNGCTGNANTCTTCTACNGGTACTTGGACNACAGTATGGACAGATGGTCTT ACAAGTCTTGACCGTTACAAAGGTCGTTGTTACGACATCGAACCAGTTCCAGGTGAAGAAAATCAATANATTGCTTATGTTGCTTACCCTCTTGATCTTTTTGAAGAANGGTTCAGTAANCAAACTTGTTTACTTCTATTGNTAGGTAACG TTTTTGGTTTCAAAGCTCTNTCG TGCACTACGTTTANGANAGATCTTCGTATTCCACCAGCATATGTAAAAACTTTCTCAGGTCCTCCTCACGGGATTCAAGTAGAACGTGATAAATTAAACAAATATGGTCGTGGTCTTCTTGGGTGTACAATTAAACCTAAATTAGGTCTTTCAGCTAAAAACTATGGTAGAGCTGTTTACGAGTGTCTACGTGGTGGTCTAGATTTCACGAAAGATGATGAAAACGTTAACTCACAACCATTCATGCGTTGGANN              '
p5
sS'compactcons'
p6
S'GCNGGNGCTGCNGTAGCNGCTGNANTCTTCTACNGGTACTTGGACNACAGTATGGACAGATGGTCTTACAAGTCTTGACCGTTACAAAGGTCGTTGTTACGACATCGAACCAGTTCCAGGTGAAGAAAATCAATANATTGCTTATGTTGCTTACCCTCTTGATCTTTTTGAAGAANGGTTCAGTAANCAAACTTGTTTACTTCTATTGNTAGGTAACGTTTTTGGTTTCAAAGCTCTNTCGTGCACTACGTTTANGANAGATCTTCGTATTCCACCAGCATATGTAAAAACTTTCTCAGGTCCTCCTCACGGGATTCAAGTAGAACGTGATAAATTAAACAAATATGGTCGTGGTCTTCTTGGGTGTACAATTAAACCTAAATTAGGTCTTTCAGCTAAAAACTATGGTAGAGCTGTTTACGAGTGTCTACGTGGTGGTCTAGATTTCACGAAAGATGATGAAAACGTTAACTCACAACCATTCATGCGTTGGANN'
p7
sS'itemtype'
p8
S'frwdrev'
p9
sS'useseq'
p10
I01
sS'notes'
p11
S''
p12
sS'hasseq'
p13
I01
sS'children'
p14
(lp15
(dp16
g4
g12
sg6
g12
sg8
S'file'
p17
sg10
I00
sg11
g12
sg13
I00
sg14
(lp18
sS'isreverse'
p19
I00
sS'id'
p20
I1
sS'name'
p21
S'bigSphere_CAT20TR8_7-22L3-rbcL_snowF0seq4.ab1'
p22
sa(dp23
g4
g12
sg6
g12
sg8
S'file'
p24
sg10
I00
sg11
g12
sg13
I00
sg14
(lp25
sg19
I01
sg20
I2
sg21
S'../CE_30-869933035/bigsphere_CAT20TR8_7-22L3-rbcl_R3set4.ab1'
p26
sasg19
I00
sg20
I0
sg21
S'bigSphere_CAT20TR8_7-22L3_rbcL'
p27
sa(dp28
g4
S'                                                             NCAGTTGCAGGTGAAGAAAACCAGTACATTGCTTATGTTGCTTACCCAATCGACTTATTTGAAGAAGGTTCTGTAACTAACTTATTCACGTCAATTGTTGGTAACGTTTTTGGTTTCAAAGCTCTTCGTGCTTTACGTCTTGAAGATTTACGTATTTCTTGTGCGTATGCTAAAACATTCCAAGGACCTCCTCATGGTATCCAAGTAGAACGTGACAAATTAAACAAATACGGACGTGGTCTTTTAGGCTGTACAATCAAACCTAAATTAGGTCTTTCAGCTAAAAACTATGGTCGTGCTGTTTACGAATGTTTACGTGGTGGTTTAGACTTTACAAAAGATGATGAAAACGTAACATCTCAAGCTTTCATGCGTTGGAGAGACCGTTTTATCTTCGTTGCTGAAGCGATTTACAAATCTCAAGCTGAAACTGGTGAAATTAAAGGTCACTATTTAAACGTAACTGCGGGTACGAGCGAAGAAATGCTAAAACGTGCAGAAGTAGCTAAAGATTTAGGGGTACCAATCATCATGCATGACTACTTAACTGGTGGTTTAACTGCAAACACTTCATTAGCACACTACTGTCGTGACAATGGTCTATTACTACACATTCACAGAGCTATGCACGCGGTTATTGACCGTCAAAGAAACCACGGTATCCATTTCCGTGTTTTAGCTAAAGCTCTTCGTCTGTCAGGTGGTGACCACCTTCACTCAGGAACAGTTGTAGGTAAACTAGAAGGAGAACGTGAAGTTACTCTTGGTTTCGTTGATTTAATGCGTGACGAATATATCGAAAAAGACCGTAGCCGTGGTANTTN                                                              '
p29
sg6
S'NCAGTTGCAGGTGAAGAAAACCAGTACATTGCTTATGTTGCTTACCCAATCGACTTATTTGAAGAAGGTTCTGTAACTAACTTATTCACGTCAATTGTTGGTAACGTTTTTGGTTTCAAAGCTCTTCGTGCTTTACGTCTTGAAGATTTACGTATTTCTTGTGCGTATGCTAAAACATTCCAAGGACCTCCTCATGGTATCCAAGTAGAACGTGACAAATTAAACAAATACGGACGTGGTCTTTTAGGCTGTACAATCAAACCTAAATTAGGTCTTTCAGCTAAAAACTATGGTCGTGCTGTTTACGAATGTTTACGTGGTGGTTTAGACTTTACAAAAGATGATGAAAACGTAACATCTCAAGCTTTCATGCGTTGGAGAGACCGTTTTATCTTCGTTGCTGAAGCGATTTACAAATCTCAAGCTGAAACTGGTGAAATTAAAGGTCACTATTTAAACGTAACTGCGGGTACGAGCGAAGAAATGCTAAAACGTGCAGAAGTAGCTAAAGATTTAGGGGTACCAATCATCATGCATGACTACTTAACTGGTGGTTTAACTGCAAACACTTCATTAGCACACTACTGTCGTGACAATGGTCTATTACTACACATTCACAGAGCTATGCACGCGGTTATTGACCGTCAAAGAAACCACGGTATCCATTTCCGTGTTTTAGCTAAAGCTCTTCGTCTGTCAGGTGGTGACCACCTTCACTCAGGAACAGTTGTAGGTAAACTAGAAGGAGAACGTGAAGTTACTCTTGGTTTCGTTGATTTAATGCGTGACGAATATATCGAAAAAGACCGTAGCCGTGGTANTTN'
p30
sg8
S'frwdrev'
p31
sg10
I00
sg11
g12
sg13
I01
sg14
(lp32
(dp33
g4
g12
sg6
g12
sg8
S'file'
p34
sg10
I00
sg11
g12
sg13
I00
sg14
(lp35
sg19
I00
sg20
I4
sg21
S'cog_DON1901_1-10L2-rbcL_remiasii_F.ab1'
p36
sa(dp37
g4
g12
sg6
g12
sg8
S'file'
p38
sg10
I00
sg11
g12
sg13
I00
sg14
(lp39
sg19
I01
sg20
I5
sg21
S'cog_DON1901_1-10L2-rbcL_remiasii_R.ab1'
p40
sasg19
I00
sg20
I3
sg21
S'cog_DON1901_1-10L2_rbcL'
p41
sa(dp42
g4
S'                         ACNNGTTGCTGGTGANNAAAACCNATACATCGCTTACGTTGCTTATCCTATTGACCTTTTTGAAGAAGGTTCTGTAACTAACTTATTTACATCTATTGTAGGTAACGTTTTTGGTTTCAAAGCTCTTCGNTGCTTTACGTCTTGAAGATTTACGTANTTTCTTGTGCATACGCTAAAACATTCCAAGGACCTCCTCACGGGATCCAAGTAGAACGTGACAAATTAAACAAATATGGTCGTGGTCTTTTAGGTTGTACAATTAAACCTAAATTAGGTTTATCAGCTAAAAACTATGGTCGTGCAGTTTACGAATGTTTACGTGGTGGATTAGATTTCACAAAAGATGATGAAAATGTTACAAGCCAAGCTTTCATGCGTTGGAGAGACCGTTTTATTTTTGTAGCAGAAGCTCTTTACAAAGCTCAAGCTGAAACAGGTAAATTTTGCCTAGCTAGTCTGTAAAGACTGGTAAAAAACATTGGATGAATTGCAAGGACGCTAACGCTTTTTTATAAATTATAGCTATGCCAACTTGCAGCGAAGCTTGCTGAAAAGATTTTTTGTAGGCAAGAACGTTCAACGACTAGAGAGTGAGCAAATCCGCGCGATAATCTCTCCACGAGCTTCCAACTACCCTTTTTTAATAAAATCAGCTATGCTTTTTTTAGATTGGTAGAAGACATAGTCTGAACTTTAAGGAAACTTAAAGAAATCTAGGATAAAGAATCTAGATGATAACATAATGGAAATTAAAGGACATTATTTAAACGTTACTGCTGGAACGTCTGAAGAAATGATGAAAAGAGCTGAAGTAGCTAAAGATTTAGGGGTACCTATTATTATGCATGACTATCTAACAGGTGGTCTTACTGCTAACACTTCATTAGCTCACTACTGTCGTGACAATGGTCTATTATTACACATTCACAGAGCAATGCACGCGGTTATTGACCGTCAAAGAAACCACGGGATTCACTTCCGTGTATTAGCAAAAGCTCTTCGTTTATCTGGTGGGGACCATCTTCACTCAGGAACTGTTGTAGGAAAACTAGAAGGTGAACGTGAAGTTACTTTAGGTTTCGTTGATTTAATNAGAGACGAATATATTGAAAAAGACCGTAGCCGTGGTATTA                     '
p43
sg6
S'ACNNGTTGCTGGTGANNAAAACCNATACATCGCTTACGTTGCTTATCCTATTGACCTTTTTGAAGAAGGTTCTGTAACTAACTTATTTACATCTATTGTAGGTAACGTTTTTGGTTTCAAAGCTCTTCGNTGCTTTACGTCTTGAAGATTTACGTANTTTCTTGTGCATACGCTAAAACATTCCAAGGACCTCCTCACGGGATCCAAGTAGAACGTGACAAATTAAACAAATATGGTCGTGGTCTTTTAGGTTGTACAATTAAACCTAAATTAGGTTTATCAGCTAAAAACTATGGTCGTGCAGTTTACGAATGTTTACGTGGTGGATTAGATTTCACAAAAGATGATGAAAATGTTACAAGCCAAGCTTTCATGCGTTGGAGAGACCGTTTTATTTTTGTAGCAGAAGCTCTTTACAAAGCTCAAGCTGAAACAGGTAAATTTTGCCTAGCTAGTCTGTAAAGACTGGTAAAAAACATTGGATGAATTGCAAGGACGCTAACGCTTTTTTATAAATTATAGCTATGCCAACTTGCAGCGAAGCTTGCTGAAAAGATTTTTTGTAGGCAAGAACGTTCAACGACTAGAGAGTGAGCAAATCCGCGCGATAATCTCTCCACGAGCTTCCAACTACCCTTTTTTAATAAAATCAGCTATGCTTTTTTTAGATTGGTAGAAGACATAGTCTGAACTTTAAGGAAACTTAAAGAAATCTAGGATAAAGAATCTAGATGATAACATAATGGAAATTAAAGGACATTATTTAAACGTTACTGCTGGAACGTCTGAAGAAATGATGAAAAGAGCTGAAGTAGCTAAAGATTTAGGGGTACCTATTATTATGCATGACTATCTAACAGGTGGTCTTACTGCTAACACTTCATTAGCTCACTACTGTCGTGACAATGGTCTATTATTACACATTCACAGAGCAATGCACGCGGTTATTGACCGTCAAAGAAACCACGGGATTCACTTCCGTGTATTAGCAAAAGCTCTTCGTTTATCTGGTGGGGACCATCTTCACTCAGGAACTGTTGTAGGAAAACTAGAAGGTGAACGTGAAGTTACTTTAGGTTTCGTTGATTTAATNAGAGACGAATATATTGAAAAAGACCGTAGCCGTGGTATTA'
p44
sg8
S'frwdrev'
p45
sg10
I01
sg11
g12
sg13
I01
sg14
(lp46
(dp47
g4
g12
sg6
g12
sg8
S'file'
p48
sg10
I00
sg11
g12
sg13
I00
sg14
(lp49
sg19
I00
sg20
I7
sg21
S'cog_TEM2003_7-27L8-rbcL_remiasii_F.ab1'
p50
sa(dp51
g4
g12
sg6
g12
sg8
S'file'
p52
sg10
I00
sg11
g12
sg13
I00
sg14
(lp53
sg19
I01
sg20
I8
sg21
S'cog_TEM2003_7-27L8-rbcL_remiasii_R.ab1'
p54
sasg19
I00
sg20
I6
sg21
S'cog_TEM2003_7-27L8_rbcL'
p55
sa(dp56
g4
g12
sg6
g12
sg8
S'file'
p57
sg10
I00
sg11
g12
sg13
I00
sg14
(lp58
sg19
I01
sg20
I9
sg21
S'halo_PAN1930_7-27L7-rbcL_BC1R.ab1'
p59
sa(dp60
g4
S'                                                     GATATCGANCCAGTTGCTGGTGAAGAAAACCAATACATCGCTTACGTTGCTTATCCTATTGACCTTTTTGAAGAAGGTTCTGTAACTAACTTATTTACATCTATTGTAGGTAACGTTTTTGGTTTCAAAGCTCTTCGTGCTTTACGTCTTGAAGATTTACGTATTTCTTGTGCATACGCTAAAACATTCCAAGGACCTCCTCACGGGATCCAAGTAGAACGTGACAAATTAAACAAATATGGTCGTGGTCTTTTAGGTTGTACAATTAAACCTAAATTAGGTTTATCAGCTAAAAACTATGGTCGTGCAGTTTACGAATGTTTACGTGGTGGATTAGATTTCACAAAAGATGATGAAAATGTTACAAGCCAAGCTTTCATGCGTTGGAGAGACCGTTTTATTTTTGTAGCAGAAGCTCTTTACAAAGCTCAAGCTGAAACAGGTGAAATTAAAGGACATTATTTAAACGTTACTGCTGGAACGTCTGAAGAAATGATGAAAAGAGCTGAAGTAGCTAAAGATTTAGGGGTACCTATTATTATGCATGACTATCTAACAGGTGGTCTTACTGCTAACACTTCATTAGCTCACTACTGTCGTGACAATGGTCTATTATTACACATTCACAGAGCAATGCACGCGGTTATTGACCGTCAAAGAAACCACGGGATTCACTTCCGTGTATTAACAAAAGCTCTTCGTTTATCTGGTGGGGACCATCTTCACTCAGGAACTGTTGTAGGAAAACTAGAAGGTGAACGTGAAGTTACTTTAGGTTTCGTTGATTTAATGAGAGACGAATATATCGAAAAAGACCGTAGCCGTGGTANTTACNTCANT                                                 '
p61
sg6
S'GATATCGANCCAGTTGCTGGTGAAGAAAACCAATACATCGCTTACGTTGCTTATCCTATTGACCTTTTTGAAGAAGGTTCTGTAACTAACTTATTTACATCTATTGTAGGTAACGTTTTTGGTTTCAAAGCTCTTCGTGCTTTACGTCTTGAAGATTTACGTATTTCTTGTGCATACGCTAAAACATTCCAAGGACCTCCTCACGGGATCCAAGTAGAACGTGACAAATTAAACAAATATGGTCGTGGTCTTTTAGGTTGTACAATTAAACCTAAATTAGGTTTATCAGCTAAAAACTATGGTCGTGCAGTTTACGAATGTTTACGTGGTGGATTAGATTTCACAAAAGATGATGAAAATGTTACAAGCCAAGCTTTCATGCGTTGGAGAGACCGTTTTATTTTTGTAGCAGAAGCTCTTTACAAAGCTCAAGCTGAAACAGGTGAAATTAAAGGACATTATTTAAACGTTACTGCTGGAACGTCTGAAGAAATGATGAAAAGAGCTGAAGTAGCTAAAGATTTAGGGGTACCTATTATTATGCATGACTATCTAACAGGTGGTCTTACTGCTAACACTTCATTAGCTCACTACTGTCGTGACAATGGTCTATTATTACACATTCACAGAGCAATGCACGCGGTTATTGACCGTCAAAGAAACCACGGGATTCACTTCCGTGTATTAACAAAAGCTCTTCGTTTATCTGGTGGGGACCATCTTCACTCAGGAACTGTTGTAGGAAAACTAGAAGGTGAACGTGAAGTTACTTTAGGTTTCGTTGATTTAATGAGAGACGAATATATCGAAAAAGACCGTAGCCGTGGTANTTACNTCANT'
p62
sg8
S'frwdrev'
p63
sg10
I00
sg11
g12
sg13
I01
sg14
(lp64
(dp65
g4
g12
sg6
g12
sg8
S'file'
p66
sg10
I00
sg11
g12
sg13
I00
sg14
(lp67
sg19
I00
sg20
I11
sg21
S'lemon_BLU2203_1-18L3-rbcL_remiasii_F.ab1'
p68
sa(dp69
g4
g12
sg6
g12
sg8
S'file'
p70
sg10
I00
sg11
g12
sg13
I00
sg14
(lp71
sg19
I01
sg20
I12
sg21
S'lemon_BLU2203_1-18L3-rbcL_remiasii_R.ab1'
p72
sasg19
I00
sg20
I10
sg21
S'lemon_BLU2203_1-18L3_rbcL'
p73
sa(dp74
g4
S'                        NGTTTAACATATTACACTCCAGATTACGTAGTAAAAGACACAGACATTCTAGCAGCTTTCCGTATGACTCCGCAAGCCGGTGTTCCTATTGAAGANAGCAGGAGCAGCTGTAGCAGCTGAATCTTCTACTGGTACTTGGACTACTGTATGGACTGACGGTTTAACAAGCCTTGACCGTTACAAAGGTCGTTGTTATGATATCGAACCAGTTGCTGGTGAAGAAAACCAATACATCGCTTACGTTGCTTATCCTATTGACCTTTTTGAAGAAGGTTCTGTAACTAACTTATTTACATCTATTGTAGGTAACGTTTTTGGTTTCAAAGCTCTTCGTGCTTTACGTCTTGAAGATTTACGTATTTCTTGTGCATACGCTAAAACATTCCAAGGACCTCCTCACGGGATCCAAGTAGAACGTGACAAATTAAACAAATATGGTCGTGGTCTTTTAGGTTGTACAATTAAACCTAAATTAGGTTTATCAGCTAAAAACTATGGTCGTGCAGTTTACGAATGTTTACGTGGTGGGTTAGATTTCACAAAAGATGATGAAAATGTTACAAGCCAAGCTTTCATGCGTTGGAGAGAN           '
p75
sg6
S'NGTTTAACATATTACACTCCAGATTACGTAGTAAAAGACACAGACATTCTAGCAGCTTTCCGTATGACTCCGCAAGCCGGTGTTCCTATTGAAGANAGCAGGAGCAGCTGTAGCAGCTGAATCTTCTACTGGTACTTGGACTACTGTATGGACTGACGGTTTAACAAGCCTTGACCGTTACAAAGGTCGTTGTTATGATATCGAACCAGTTGCTGGTGAAGAAAACCAATACATCGCTTACGTTGCTTATCCTATTGACCTTTTTGAAGAAGGTTCTGTAACTAACTTATTTACATCTATTGTAGGTAACGTTTTTGGTTTCAAAGCTCTTCGTGCTTTACGTCTTGAAGATTTACGTATTTCTTGTGCATACGCTAAAACATTCCAAGGACCTCCTCACGGGATCCAAGTAGAACGTGACAAATTAAACAAATATGGTCGTGGTCTTTTAGGTTGTACAATTAAACCTAAATTAGGTTTATCAGCTAAAAACTATGGTCGTGCAGTTTACGAATGTTTACGTGGTGGGTTAGATTTCACAAAAGATGATGAAAATGTTACAAGCCAAGCTTTCATGCGTTGGAGAGAN'
p76
sg8
S'frwdrev'
p77
sg10
I01
sg11
g12
sg13
I01
sg14
(lp78
(dp79
g4
g12
sg6
g12
sg8
S'file'
p80
sg10
I00
sg11
g12
sg13
I00
sg14
(lp81
sg19
I01
sg20
I14
sg21
S'../CE_30-869933035/martian_DOG1906_1-10L1-rbcl_R3set4.ab1'
p82
sa(dp83
g4
g12
sg6
g12
sg8
S'file'
p84
sg10
I00
sg11
g12
sg13
I00
sg14
(lp85
sg19
I00
sg20
I15
sg21
S'martian_DOG1906_1-10L1-rbcL_snowF0seq4.ab1'
p86
sasg19
I00
sg20
I13
sg21
S'martian_DOG1906_1-10L1_rbcL'
p87
sa(dp88
g4
S'                                                                      GTTGCNNGTGNAGAAAACCAGTACATTGCTTATGTTGCTTACCCAATCGACTTATTTGAAGAAGGTTCTGTAACTAACTTATTCACGTCAATTGTTGGTAACGTTTTTGGTTTCAAAGCTCTTCGTGCTCTACGTCTTGAAGATTTACGTATTTCTTGTGCGTATGCTAAAACATTCCAAGGACCTCCTCATGGTATCCAAGTTGAACGTGACAAATTAAACAAATACGGACGTGGTCTTTTAGGCTGTACAATCAAACCTAAATTAGGTCTTTCAGCTAAAAACTATGGTCGTGCTGTTTACGAATGTTTACGTGGTGGTTTAGACTTTACAAAAGATGATGAAAACGTAACATCTCAAGCTTTCATGCGTTGGAGAGACCGTTTTATCTTCGTTGCTGAAGCGATTTACAAATCTCAAGCTGAAACTGGTGAAATTAAAGGTCACTATTTAAACGTAACTGCGGGTACGAGCGAAGAAATGCTAAAACGTGCAGAAGTAGCTAAAGATTTAGGGGTACCAATCATCATGCATGACTACTTAACTGGTGGTTTAACTGCAAACACTTCATTAGCACACTACTGTCGTGACAACGGTCTATTACTACACATTCACAGAGCTATGCACGCGGTTATTGACCGTCAAAGAAACCACGGTATCCATTTCCGTGTTTTAGCTAAAGCTCTTCGTCTGTCAGGTGGTGACCACCTTCACTCAGGAACAGTTGTAGGTAAACTAGAAGGAGAACGTGAAGTTACTCTTGGTTTCGTTGATTTAATGCGTGACGAATATATCGAAAAAGACCGTAGCCGTGGTATT T ATTTC                                               '
p89
sg6
S'GTTGCNNGTGNAGAAAACCAGTACATTGCTTATGTTGCTTACCCAATCGACTTATTTGAAGAAGGTTCTGTAACTAACTTATTCACGTCAATTGTTGGTAACGTTTTTGGTTTCAAAGCTCTTCGTGCTCTACGTCTTGAAGATTTACGTATTTCTTGTGCGTATGCTAAAACATTCCAAGGACCTCCTCATGGTATCCAAGTTGAACGTGACAAATTAAACAAATACGGACGTGGTCTTTTAGGCTGTACAATCAAACCTAAATTAGGTCTTTCAGCTAAAAACTATGGTCGTGCTGTTTACGAATGTTTACGTGGTGGTTTAGACTTTACAAAAGATGATGAAAACGTAACATCTCAAGCTTTCATGCGTTGGAGAGACCGTTTTATCTTCGTTGCTGAAGCGATTTACAAATCTCAAGCTGAAACTGGTGAAATTAAAGGTCACTATTTAAACGTAACTGCGGGTACGAGCGAAGAAATGCTAAAACGTGCAGAAGTAGCTAAAGATTTAGGGGTACCAATCATCATGCATGACTACTTAACTGGTGGTTTAACTGCAAACACTTCATTAGCACACTACTGTCGTGACAACGGTCTATTACTACACATTCACAGAGCTATGCACGCGGTTATTGACCGTCAAAGAAACCACGGTATCCATTTCCGTGTTTTAGCTAAAGCTCTTCGTCTGTCAGGTGGTGACCACCTTCACTCAGGAACAGTTGTAGGTAAACTAGAAGGAGAACGTGAAGTTACTCTTGGTTTCGTTGATTTAATGCGTGACGAATATATCGAAAAAGACCGTAGCCGTGGTATTTATTTC'
p90
sg8
S'frwdrev'
p91
sg10
I01
sg11
g12
sg13
I01
sg14
(lp92
(dp93
g4
g12
sg6
g12
sg8
S'file'
p94
sg10
I00
sg11
g12
sg13
I00
sg14
(lp95
sg19
I00
sg20
I17
sg21
S'martian_PAN1902_1-11L3-rbcL_remiasii_F.ab1'
p96
sa(dp97
g4
g12
sg6
g12
sg8
S'file'
p98
sg10
I00
sg11
g12
sg13
I00
sg14
(lp99
sg19
I01
sg20
I18
sg21
S'martian_PAN1902_1-11L3-rbcL_remiasii_R.ab1'
p100
sasg19
I00
sg20
I16
sg21
S'martian_PAN1902_1-11L3_rbcL'
p101
sa(dp102
g4
S'                        NNTTTAACATATTACACTCCAGATTACGTAGTAAAAGACACAGACATTCTAGCAGCTTTCCGTATGACTCCGCAAGCCGGTGTTCCTATTGAAGAAGCAGGAGCAGCTGTAGCAGCTGAATCTTCTACTGGTACTTGGACAACTGTATGGACTGACGGTTTAACAAGCCTTGACCGTTACAAAGGTCGTTGTTATGATATCGAACCAGTTGCTGGTGAAGAAAACCAATACATCGCTTACGTTGCTTATCCTATTGACCTTTTTGAAGAAGGTTCTGTAACTAACTTATTTACATCTATTGTAGGTAACGTTTTTGGTTTCAAAGCTCTTCGTGCTTTACGTCTTGAAGATTTACGTATTTCTTGTGCATACGCTAAAACATTCCAAGGACCTCCTCACGGGATCCAAGTAGAACGTGACAAATTAAACAAATATGGTCGTGGTCTTTTAGGTTGTACAATTAAACCTAAATTAGGTTTATCAGCTAAAAACTATGGTCGTGCAGTTTACGAATGTTTACGTGGTGGGTTAGATTTCACAAAAGATGATGAAAATGTTACAAGCCAAGCTTTCATGCGTTGGAGAGACCGTNN     '
p103
sg6
S'NNTTTAACATATTACACTCCAGATTACGTAGTAAAAGACACAGACATTCTAGCAGCTTTCCGTATGACTCCGCAAGCCGGTGTTCCTATTGAAGAAGCAGGAGCAGCTGTAGCAGCTGAATCTTCTACTGGTACTTGGACAACTGTATGGACTGACGGTTTAACAAGCCTTGACCGTTACAAAGGTCGTTGTTATGATATCGAACCAGTTGCTGGTGAAGAAAACCAATACATCGCTTACGTTGCTTATCCTATTGACCTTTTTGAAGAAGGTTCTGTAACTAACTTATTTACATCTATTGTAGGTAACGTTTTTGGTTTCAAAGCTCTTCGTGCTTTACGTCTTGAAGATTTACGTATTTCTTGTGCATACGCTAAAACATTCCAAGGACCTCCTCACGGGATCCAAGTAGAACGTGACAAATTAAACAAATATGGTCGTGGTCTTTTAGGTTGTACAATTAAACCTAAATTAGGTTTATCAGCTAAAAACTATGGTCGTGCAGTTTACGAATGTTTACGTGGTGGGTTAGATTTCACAAAAGATGATGAAAATGTTACAAGCCAAGCTTTCATGCGTTGGAGAGACCGTNN'
p104
sg8
S'frwdrev'
p105
sg10
I01
sg11
g12
sg13
I01
sg14
(lp106
(dp107
g4
g12
sg6
g12
sg8
S'file'
p108
sg10
I00
sg11
g12
sg13
I00
sg14
(lp109
sg19
I01
sg20
I20
sg21
S'petal_CAT20TR8_7-22L2-rbcL_R3seq4.ab1'
p110
sa(dp111
g4
g12
sg6
g12
sg8
S'file'
p112
sg10
I00
sg11
g12
sg13
I00
sg14
(lp113
sg19
I00
sg20
I21
sg21
S'petal_CAT20TR8_7-22L2-rbcL_snowF0seq4.ab1'
p114
sasg19
I00
sg20
I19
sg21
S'petal_CAT20TR8_7-22L2_rbcL'
p115
sa(dp116
g4
S'NTTAAAGCTGGTGTNAAAGANTANCGTTTAACATATTACACTCCAGATTACGTAGTAAAAGACACAGACATTCTAGCAGCTTTCCGTATGACTCCGCAAGCCGGTGTTCCTATTGAAGAAGCAGGAGCNAGCT GTAGCANGCTGAATCTTCTACTGGTACTTGGACAACTGTATGGACTGACGGTTTAACAAGCCTTGACCGTTACAAAGGTCGTTGTTATGATATCGAACCAGTTGCTGGTGAAGAAAACCAATACATCGCTTACGTTGCTTATCCTATTGACCTTTTTGAAGAAGGTTCTGTAACTAACTTATTTACATCTATTGTAGGTAACGTTTTTGGTTTCAAAGCTCTTCGTGCNTNACNTCNTGAAGATTTACNTANNNCNTGNGCNNNNNCNNAAACATTNNNAGGACCTCCNCACGGGATCNNNNTNNANCGTGNNNNNNTANANNAATANGGNCNTGGTCNTNNNNGTTGNNNAANTNNNNNNNAATTANGTTTATNANCNAAAAACTATGGTCNTGCNNTTTANNANTGTTTACNTGNTGGATTANATTTCACAAAANATGATGAAAATGTNNCAAGCCAAGCTTTCANGCGTTGGANAGA                                                                                                                                                                                                                                                                                                 '
p117
sg6
S'NTTAAAGCTGGTGTNAAAGANTANCGTTTAACATATTACACTCCAGATTACGTAGTAAAAGACACAGACATTCTAGCAGCTTTCCGTATGACTCCGCAAGCCGGTGTTCCTATTGAAGAAGCAGGAGCNAGCTGTAGCANGCTGAATCTTCTACTGGTACTTGGACAACTGTATGGACTGACGGTTTAACAAGCCTTGACCGTTACAAAGGTCGTTGTTATGATATCGAACCAGTTGCTGGTGAAGAAAACCAATACATCGCTTACGTTGCTTATCCTATTGACCTTTTTGAAGAAGGTTCTGTAACTAACTTATTTACATCTATTGTAGGTAACGTTTTTGGTTTCAAAGCTCTTCGTGCNTNACNTCNTGAAGATTTACNTANNNCNTGNGCNNNNNCNNAAACATTNNNAGGACCTCCNCACGGGATCNNNNTNNANCGTGNNNNNNTANANNAATANGGNCNTGGTCNTNNNNGTTGNNNAANTNNNNNNNAATTANGTTTATNANCNAAAAACTATGGTCNTGCNNTTTANNANTGTTTACNTGNTGGATTANATTTCACAAAANATGATGAAAATGTNNCAAGCCAAGCTTTCANGCGTTGGANAGA'
p118
sg8
S'frwdrev'
p119
sg10
I00
sg11
g12
sg13
I01
sg14
(lp120
(dp121
g4
g12
sg6
g12
sg8
S'file'
p122
sg10
I00
sg11
g12
sg13
I00
sg14
(lp123
sg19
I01
sg20
I23
sg21
S'raisin_DON1901_1-10L3-rbcL_R3seq4.ab1'
p124
sa(dp125
g4
g12
sg6
g12
sg8
S'file'
p126
sg10
I00
sg11
g12
sg13
I00
sg14
(lp127
sg19
I00
sg20
I24
sg21
S'raisin_DON1901_1-10L3-rbcL_snowF0seq4.ab1'
p128
sasg19
I00
sg20
I22
sg21
S'raisin_DON1901_1-10L3_rbcL'
p129
sa(dp130
g4
g12
sg6
g12
sg8
S'frwdrev'
p131
sg10
I00
sg11
g12
sg13
I00
sg14
(lp132
(dp133
g4
g12
sg6
g12
sg8
S'file'
p134
sg10
I00
sg11
g12
sg13
I00
sg14
(lp135
sg19
I00
sg20
I26
sg21
S'raisin_DON1901_5-11L1-chlor18SmidF.ab1'
p136
sa(dp137
g4
g12
sg6
g12
sg8
S'file'
p138
sg10
I00
sg11
g12
sg13
I00
sg14
(lp139
sg19
I01
sg20
I27
sg21
S'raisin_DON1901_5-11L1-snow_18SseqR.ab1'
p140
sasg19
I00
sg20
I25
sg21
S'raisin_DON1901_5-11L1_18SB'
p141
sa(dp142
g4
S'                                  NCCTACNACTCGGNNNNCCGTAGNAATTCTAGAGCTAATACNTNNNNNNATCCCGACTTCTGGAAGGGACGTATTTATTAGATAAAAGGCCAGCCGGACTCNGTCCGACCTGCGGTGAATCATGATAACTTCACGAATCNTATGGCCTTGCGCCGACGATGTTTCATTCAAATTNNNNNNCTATCAACTTTCGATGGTAGGATAGAGGCCTACCATGGNGNNNNCGGGTGACGGAGGATTAGGGTTCGATTCCGGAGAGGGAGCCTGANAGATGGCTACCACATCCAAGGAAGGCAGCAGGCGCGCAAATTACCCAATCCCGACACGGGGAGGTAGTGACAATAAATAACAATACCGGGCATTTAATGTCTGGTAATTGGAATGAGTACAATCTAAATCCCTTAACNAGGANCCATTGNAGGGCAAGTCTGGTGCCAGCAGCCGCGGTAATTCCAGCTCCAATAGCGTATATTTAANTTGTTGCNNTTAAAAAGCTCGTANTTGGATTTCGGGTGGGTTCGGTCGGTCCGCCTCTGGTGTGCACTGATTGAGCCTTCCTTTCNGNCGGGGNNGGGTTCNTGGGCCTCACGGTTNGGGANTCNNANTCNGCGANGTTACTTTNNNTAAANNAGAGTGNNCAAAGCANGCCNACNCTCTNNANANNTTANNANGNAANNACNCNATANGACTCNNNNCTANCTTGNNNNNCTGNNNNNNNNNNNNNNGNNNNANNNNNNANNCNGGGGCNTT                                                                                                                                                                                   '
p143
sg6
S'NCCTACNACTCGGNNNNCCGTAGNAATTCTAGAGCTAATACNTNNNNNNATCCCGACTTCTGGAAGGGACGTATTTATTAGATAAAAGGCCAGCCGGACTCNGTCCGACCTGCGGTGAATCATGATAACTTCACGAATCNTATGGCCTTGCGCCGACGATGTTTCATTCAAATTNNNNNNCTATCAACTTTCGATGGTAGGATAGAGGCCTACCATGGNGNNNNCGGGTGACGGAGGATTAGGGTTCGATTCCGGAGAGGGAGCCTGANAGATGGCTACCACATCCAAGGAAGGCAGCAGGCGCGCAAATTACCCAATCCCGACACGGGGAGGTAGTGACAATAAATAACAATACCGGGCATTTAATGTCTGGTAATTGGAATGAGTACAATCTAAATCCCTTAACNAGGANCCATTGNAGGGCAAGTCTGGTGCCAGCAGCCGCGGTAATTCCAGCTCCAATAGCGTATATTTAANTTGTTGCNNTTAAAAAGCTCGTANTTGGATTTCGGGTGGGTTCGGTCGGTCCGCCTCTGGTGTGCACTGATTGAGCCTTCCTTTCNGNCGGGGNNGGGTTCNTGGGCCTCACGGTTNGGGANTCNNANTCNGCGANGTTACTTTNNNTAAANNAGAGTGNNCAAAGCANGCCNACNCTCTNNANANNTTANNANGNAANNACNCNATANGACTCNNNNCTANCTTGNNNNNCTGNNNNNNNNNNNNNNGNNNNANNNNNNANNCNGGGGCNTT'
p144
sg8
S'file'
p145
sg10
I00
sg11
g12
sg13
I01
sg14
(lp146
sg19
I00
sg20
I28
sg21
S'raisin_DON1901_5-11L1-chlor18SFseq.ab1'
p147
sa(dp148
g4
S'                    ACGNAGNGAANTGNGATACGTAGTGTGAATTGCAGNATTCCGTGNNCCATCGAATTTTTGAACGCATATTGCGCTCAAGGCTTCGGCCAAGAGCATGTCTGCCTCAGCGTCGGGTTCTCCATCATCTACTTCTCTCTCCTATAGAGNGAAGTCGTGGAACCTCGCAGTCCGATCCTCCGTTCTTCATTGAGCGTTGGTGAGGTCTGCCAAAGTGAAAGTAGCGCTCCGAGCATTGCCCATCCACATCCGTCAGCAATGACGAGTGGGTGGGTATGTAGCCGCACTCGAGTAGTTGTGAATTTACATTCGTGTATCTTTCCTACCCGACTATCCTACACTTGTTCGGCTTTTCTTTGTCGTCATTGGCTTCTCTAAACGGAACCCTTTGATTTCAATAGAGACGACCAAAAGCATACAAATACCTCCCTACATGGAACCCTTCACTTCTCGACCTGAGCTCAGGCAAGATTACCCGCTGAACTTAAGCATATCAATAAGCGGAGGAAAAGAAACCAACCAGGATTCCCCTAGTAACGGCGAGCGAACCGGGATCAGCCCAACTTGAAAATCTCCCTCTTGGAGAATTGTAGTCTACAGAAGTGCCCTCTGTGGTCGTGCGAGCTCAAGTTCGCTGGAAGGCGACGTCAAAGAGGGTGAGAACCCCGTCGGCTCGCATCTGACCGCACCACGAGGTGCTTTCCACGAGTCGGGTTGTTTGGGAATGCAGCCCAAAATTGGAGGT AATCCCNTCNA                                           '
p149
sg6
S'ACGNAGNGAANTGNGATACGTAGTGTGAATTGCAGNATTCCGTGNNCCATCGAATTTTTGAACGCATATTGCGCTCAAGGCTTCGGCCAAGAGCATGTCTGCCTCAGCGTCGGGTTCTCCATCATCTACTTCTCTCTCCTATAGAGNGAAGTCGTGGAACCTCGCAGTCCGATCCTCCGTTCTTCATTGAGCGTTGGTGAGGTCTGCCAAAGTGAAAGTAGCGCTCCGAGCATTGCCCATCCACATCCGTCAGCAATGACGAGTGGGTGGGTATGTAGCCGCACTCGAGTAGTTGTGAATTTACATTCGTGTATCTTTCCTACCCGACTATCCTACACTTGTTCGGCTTTTCTTTGTCGTCATTGGCTTCTCTAAACGGAACCCTTTGATTTCAATAGAGACGACCAAAAGCATACAAATACCTCCCTACATGGAACCCTTCACTTCTCGACCTGAGCTCAGGCAAGATTACCCGCTGAACTTAAGCATATCAATAAGCGGAGGAAAAGAAACCAACCAGGATTCCCCTAGTAACGGCGAGCGAACCGGGATCAGCCCAACTTGAAAATCTCCCTCTTGGAGAATTGTAGTCTACAGAAGTGCCCTCTGTGGTCGTGCGAGCTCAAGTTCGCTGGAAGGCGACGTCAAAGAGGGTGAGAACCCCGTCGGCTCGCATCTGACCGCACCACGAGGTGCTTTCCACGAGTCGGGTTGTTTGGGAATGCAGCCCAAAATTGGAGGTAATCCCNTCNA'
p150
sg8
S'frwdrev'
p151
sg10
I00
sg11
g12
sg13
I01
sg14
(lp152
(dp153
g4
g12
sg6
g12
sg8
S'file'
p154
sg10
I00
sg11
g12
sg13
I00
sg14
(lp155
sg19
I00
sg20
I30
sg21
S'raisin_DON1901_5-11L1-chloroITS2F.ab1'
p156
sa(dp157
g4
g12
sg6
g12
sg8
S'file'
p158
sg10
I00
sg11
g12
sg13
I00
sg14
(lp159
sg19
I01
sg20
I31
sg21
S'raisin_DON1901_5-11L1-chloroITS2R.ab1'
p160
sasg19
I00
sg20
I29
sg21
S'raisin_DON1901_5-11L1_ITS2'
p161
sa(dp162
g4
S'                                                                              NTNTAGTTTATTTGATGGTACCTACTACTCGGATAACCGTAGTAATTCTAGAGCTAATACGTGCGTAAATCCCNGACTTCTGGAAGGGACGTATTTATTAGATAAAAGGCCAGCCGGACTCTGT CCGACCTGCGGTGAATCATGATAACTTCACGAATCGTATGGCCTTGCGCCGACGATGTTTCATTCAAATTTCTG CCCTATCAACTTTCGATGGTAGGATAGAGGCCTACCATGGTGGTAACGGGTGACGGAGGATTAGGGTTCGATTCCGGAGAGGGAGCCTGAGAGATGGCTACCACATCCAAGGAAGGCAGCAGGCGCGCAAATTACCCAATCCCGACACGGGGAGGTAGTGACAATAAATAACAATACCGGGCATTTAATGTCTGGTAATTGGAATGAGTACAATCTAAATCCCTTAACGAGGATCCATTGGAGGGCAAGTCTGGTGCCAGCAGCCGCGGTAATTCCAGCTCCAATAGCGTATATTTAAGTTGTTGCAGTTAAAAAGCTCGTAGTTGGATTTCGGGTGGGTTCGGTCGGTCCGCCTCTGGTGTGCACTGATTGAGCCTTCCTTTCTGCCGGGGACGGGTTCCTGGGCCTCACGGTTTGGGACTCGGAGTCGGCGAGGTTACTTTGAGTAAATTAGAGTGTTCAAAGCAAGCCTACGCTCTGAATACATTAGCATGGAATAACGCGATAGGACTCTGGCCTATCTTGTTGGTCTGTAGGACTGGAGTAATGATTAAGAGGGACAGTCGGGGGCATTCGTATTTCATTGTCAGAGGTGAAATTCTTGGATTTATGAAAGACGAACTTCTGCGAAAGCATTTGCCAAGGATGNTTTTCANTNATCAA                                                                                                                                                   '
p163
sg6
S'NTNTAGTTTATTTGATGGTACCTACTACTCGGATAACCGTAGTAATTCTAGAGCTAATACGTGCGTAAATCCCNGACTTCTGGAAGGGACGTATTTATTAGATAAAAGGCCAGCCGGACTCTGTCCGACCTGCGGTGAATCATGATAACTTCACGAATCGTATGGCCTTGCGCCGACGATGTTTCATTCAAATTTCTGCCCTATCAACTTTCGATGGTAGGATAGAGGCCTACCATGGTGGTAACGGGTGACGGAGGATTAGGGTTCGATTCCGGAGAGGGAGCCTGAGAGATGGCTACCACATCCAAGGAAGGCAGCAGGCGCGCAAATTACCCAATCCCGACACGGGGAGGTAGTGACAATAAATAACAATACCGGGCATTTAATGTCTGGTAATTGGAATGAGTACAATCTAAATCCCTTAACGAGGATCCATTGGAGGGCAAGTCTGGTGCCAGCAGCCGCGGTAATTCCAGCTCCAATAGCGTATATTTAAGTTGTTGCAGTTAAAAAGCTCGTAGTTGGATTTCGGGTGGGTTCGGTCGGTCCGCCTCTGGTGTGCACTGATTGAGCCTTCCTTTCTGCCGGGGACGGGTTCCTGGGCCTCACGGTTTGGGACTCGGAGTCGGCGAGGTTACTTTGAGTAAATTAGAGTGTTCAAAGCAAGCCTACGCTCTGAATACATTAGCATGGAATAACGCGATAGGACTCTGGCCTATCTTGTTGGTCTGTAGGACTGGAGTAATGATTAAGAGGGACAGTCGGGGGCATTCGTATTTCATTGTCAGAGGTGAAATTCTTGGATTTATGAAAGACGAACTTCTGCGAAAGCATTTGCCAAGGATGNTTTTCANTNATCAA'
p164
sg8
S'frwdrev'
p165
sg10
I00
sg11
g12
sg13
I01
sg14
(lp166
(dp167
g4
g12
sg6
g12
sg8
S'file'
p168
sg10
I00
sg11
g12
sg13
I00
sg14
(lp169
sg19
I00
sg20
I33
sg21
S'raisin_PAN1804_5-11L2-chlor18SFseq.ab1'
p170
sa(dp171
g4
g12
sg6
g12
sg8
S'file'
p172
sg10
I00
sg11
g12
sg13
I00
sg14
(lp173
sg19
I01
sg20
I34
sg21
S'raisin_PAN1804_5-11L2-chlor18SmidR.ab1'
p174
sasg19
I00
sg20
I32
sg21
S'raisin_PAN1804_5-11L2_18SA'
p175
sa(dp176
g4
S'                                                                                                                                                                                                        ACTTNNAGTAANNNAGANNNTTNNAANCNNNNNNNGNTNNGANTNCNTTNGCNNGGANNANCNCGATAGGANTNTGGCCTATCTTGTTGNTCTGTAGGACNGGANTAANGATTAAGAGGGACNGTCGGGGNCATTCGTATTTCATTGTCAGAGGTGAAATTCTTGGATTTATGAAAGACGAACTTCTGCGAAAGCATTTGCCAAGGATGTTTTCATTAATCAAGAACGAAAGTTGGGGGCTCGAAGACGATTAGATACCGTCGTAGTCTCAACCATAAACGATGCCGACTAGGGATTGGCGGGTGTTTCGTTGATGACCCCGCCAGCACCTTATGAGAAATCAAAGTCTTTGGGTTCCGGGGGGAGTATGGTCGCAAGGCTGAAACTTAAAGGAATTGACGGAAGGGCACCACCAGGCGTGGAGCCTGCGGCTTAATTTGACTCAACACGGGAAAACTTACCAGGTCCAGACACGGGAAGGATTGACAGATTGAGAGCTCTTTCTTGATTCTGTGGGTGGTGGTGCATGGCCGTTCTTAGTTGGTGGGTTGCCTTGTCAGGTTGATTCCGGTAACGAACGAGACCTCAGCCTGCTAAATAGTCACAGTTGCCTCTGGCAGCTGGCTGACTTCTTAGAGGGACTATTGTCGTTTAGGCAATGGAAGTATGAGGCAATAACAGGTCTGTGATGCCCTTAGATGTTCTGGGCCGCACGCGCGCTACACTGATGCATTCAACAAGCCTATCCTTGGCCGAGAGGCCCGGGTAATCTTTGAAANCTGCATCGTGATGGGGATAGATTATTGCAATTATTAGTCTTCNACGAGGAATGCCTAGTAAGCGCGAGTCATCAGCTCGCGN                '
p177
sg6
S'ACTTNNAGTAANNNAGANNNTTNNAANCNNNNNNNGNTNNGANTNCNTTNGCNNGGANNANCNCGATAGGANTNTGGCCTATCTTGTTGNTCTGTAGGACNGGANTAANGATTAAGAGGGACNGTCGGGGNCATTCGTATTTCATTGTCAGAGGTGAAATTCTTGGATTTATGAAAGACGAACTTCTGCGAAAGCATTTGCCAAGGATGTTTTCATTAATCAAGAACGAAAGTTGGGGGCTCGAAGACGATTAGATACCGTCGTAGTCTCAACCATAAACGATGCCGACTAGGGATTGGCGGGTGTTTCGTTGATGACCCCGCCAGCACCTTATGAGAAATCAAAGTCTTTGGGTTCCGGGGGGAGTATGGTCGCAAGGCTGAAACTTAAAGGAATTGACGGAAGGGCACCACCAGGCGTGGAGCCTGCGGCTTAATTTGACTCAACACGGGAAAACTTACCAGGTCCAGACACGGGAAGGATTGACAGATTGAGAGCTCTTTCTTGATTCTGTGGGTGGTGGTGCATGGCCGTTCTTAGTTGGTGGGTTGCCTTGTCAGGTTGATTCCGGTAACGAACGAGACCTCAGCCTGCTAAATAGTCACAGTTGCCTCTGGCAGCTGGCTGACTTCTTAGAGGGACTATTGTCGTTTAGGCAATGGAAGTATGAGGCAATAACAGGTCTGTGATGCCCTTAGATGTTCTGGGCCGCACGCGCGCTACACTGATGCATTCAACAAGCCTATCCTTGGCCGAGAGGCCCGGGTAATCTTTGAAANCTGCATCGTGATGGGGATAGATTATTGCAATTATTAGTCTTCNACGAGGAATGCCTAGTAAGCGCGAGTCATCAGCTCGCGN'
p178
sg8
S'frwdrev'
p179
sg10
I00
sg11
g12
sg13
I01
sg14
(lp180
(dp181
g4
g12
sg6
g12
sg8
S'file'
p182
sg10
I00
sg11
g12
sg13
I00
sg14
(lp183
sg19
I00
sg20
I36
sg21
S'raisin_PAN1804_5-11L2-chlor18SmidF.ab1'
p184
sa(dp185
g4
g12
sg6
g12
sg8
S'file'
p186
sg10
I00
sg11
g12
sg13
I00
sg14
(lp187
sg19
I01
sg20
I37
sg21
S'raisin_PAN1804_5-11L2-snow_18SseqR.ab1'
p188
sasg19
I00
sg20
I35
sg21
S'raisin_PAN1804_5-11L2_18SB'
p189
sa(dp190
g4
S'                                        NTGANTTGCAGAATTCCGTGAACCATCGAATTTTTGAACGCATATTGCGCTCAAGGCTTCGGCCAAGAGCATGTCTGCCTCAGCGTCGGGTTCTCCATCATCTACTTCTCTCTCCTGTAGAGAGAAGTCGTGGAACCTCGCAGTCCGATCCTCCGTTCTTCATTGANCGTTGGTGAGGTCTGCCAAAGTGAAAGTAGCGCTCCGAGCATTGCCCATCCACATCCGTCAGCAATGACGAGTGGGTGGGTATGTAGCCGCACTCGAGTAGTTGTGAATTTACATTCGTGTATCTTTCCTACCCGACTATCCTACACTTGTTCGGCTTTTCTTTGTCGTCATTGGCTTCTCTAAACGGAACCCTTTGATTTCAATAGAGACGACCAAAAGCATACAAATACCTCCCTACATGGAACCCTTCACTTCTCGACCTGAGCTCAGGCAAGATTACCCGCTGAACTTAAGCATATCAATAAGCGGAGGAAAAGAAACCAACCAGGATTCCCCTAGTAACGGCGAGCGAACCGGGATCAGCCCAACTTGAAAATCTCCCTCTTGGAGAATTGTAGTCTACAGAAGTGCCCTCTGTGGTCGTGCGAGCTCAAGTTCGCTGGAAGGCGACGTCAAAGAGGGTGAGAACCCCGTCGGCTCGCATCTGACCGCACCACGAGGTGCTTTCCACGAGTCGGGTTGTTTGGGAATGCAGCCCAAAA TGGAGGTAANTCC                                                '
p191
sg6
S'NTGANTTGCAGAATTCCGTGAACCATCGAATTTTTGAACGCATATTGCGCTCAAGGCTTCGGCCAAGAGCATGTCTGCCTCAGCGTCGGGTTCTCCATCATCTACTTCTCTCTCCTGTAGAGAGAAGTCGTGGAACCTCGCAGTCCGATCCTCCGTTCTTCATTGANCGTTGGTGAGGTCTGCCAAAGTGAAAGTAGCGCTCCGAGCATTGCCCATCCACATCCGTCAGCAATGACGAGTGGGTGGGTATGTAGCCGCACTCGAGTAGTTGTGAATTTACATTCGTGTATCTTTCCTACCCGACTATCCTACACTTGTTCGGCTTTTCTTTGTCGTCATTGGCTTCTCTAAACGGAACCCTTTGATTTCAATAGAGACGACCAAAAGCATACAAATACCTCCCTACATGGAACCCTTCACTTCTCGACCTGAGCTCAGGCAAGATTACCCGCTGAACTTAAGCATATCAATAAGCGGAGGAAAAGAAACCAACCAGGATTCCCCTAGTAACGGCGAGCGAACCGGGATCAGCCCAACTTGAAAATCTCCCTCTTGGAGAATTGTAGTCTACAGAAGTGCCCTCTGTGGTCGTGCGAGCTCAAGTTCGCTGGAAGGCGACGTCAAAGAGGGTGAGAACCCCGTCGGCTCGCATCTGACCGCACCACGAGGTGCTTTCCACGAGTCGGGTTGTTTGGGAATGCAGCCCAAAATGGAGGTAANTCC'
p192
sg8
S'frwdrev'
p193
sg10
I00
sg11
g12
sg13
I01
sg14
(lp194
(dp195
g4
g12
sg6
g12
sg8
S'file'
p196
sg10
I00
sg11
g12
sg13
I00
sg14
(lp197
sg19
I00
sg20
I39
sg21
S'raisin_PAN1804_5-11L2-chloroITS2F.ab1'
p198
sa(dp199
g4
g12
sg6
g12
sg8
S'file'
p200
sg10
I00
sg11
g12
sg13
I00
sg14
(lp201
sg19
I01
sg20
I40
sg21
S'raisin_PAN1804_5-11L2-chloroITS2R.ab1'
p202
sasg19
I00
sg20
I38
sg21
S'raisin_PAN1804_5-11L2_ITS2'
p203
sa(dp204
g4
S'                                                     ATGATATCGAACCAGTTGCTGGTGAAGAAAACCAATACATCGCTTACGTTGCTTATCCTATTGACCTTTTTGAAGAAGGTTCTGTAACTAACTTATTTACATCTATTGTAGGTAACGTTTTTGGTTTCAAAGCTCTTCGTGCTTTACGTCTTGAAGATTTACGTATTTCTTGTGCATACGCTAAAACATTCCAAGGACCTCCTCACGGGATCCAAGTAGAACGTGACAAATTAAACAAATATGGTCGTGGTCTTTTAGGTTGTACTATTAAACCTAAATTAGGTTTATCAGCTAAAAACTATGGTCGTGCAGTTTACGAATGTTTACGTGGTGGGTTAGATTTCACAAAAGATGATGAAAATGTTACAAGCCAAGCTTTCATGCGTTGGAGAGACCGTTTCATTTTCGTAGCAGAAGCGCTTTACAAATCGCAAGCTGAAACAGGTGAAATTAAAGGACATTATTTAAACGTTACTGCTGGAACGTCTGAAGAAATGCTAAAAAGAGCTGAAGTAGCTAAAGATTTAGGGGTACCTATTATTATGCATGACTATCTAACTGGTGGTCTTACTGCTAACACTTCATTAGCTCACTACTGTCGTGACAATGGTCTATTATTACACATTCACAGAGCTATGCACGCGGTTATTGACCGTCAAAGAAACCACGGGATTCACTTCCGTGTATTAGCAAAAGCTCTTCGTTTGTCTGGTGGGGACCATCTTCACTCAGGAACTGTAGTAGGAAAACTAGAAGGTGAACGAGAAGTTACTTTAGGTTTCGTTGATTTAATGAGAGACGAATATATCGAAAAAGATCGTAGCCGTGGTATTTACTTCANTCAANA                                             '
p205
sg6
S'ATGATATCGAACCAGTTGCTGGTGAAGAAAACCAATACATCGCTTACGTTGCTTATCCTATTGACCTTTTTGAAGAAGGTTCTGTAACTAACTTATTTACATCTATTGTAGGTAACGTTTTTGGTTTCAAAGCTCTTCGTGCTTTACGTCTTGAAGATTTACGTATTTCTTGTGCATACGCTAAAACATTCCAAGGACCTCCTCACGGGATCCAAGTAGAACGTGACAAATTAAACAAATATGGTCGTGGTCTTTTAGGTTGTACTATTAAACCTAAATTAGGTTTATCAGCTAAAAACTATGGTCGTGCAGTTTACGAATGTTTACGTGGTGGGTTAGATTTCACAAAAGATGATGAAAATGTTACAAGCCAAGCTTTCATGCGTTGGAGAGACCGTTTCATTTTCGTAGCAGAAGCGCTTTACAAATCGCAAGCTGAAACAGGTGAAATTAAAGGACATTATTTAAACGTTACTGCTGGAACGTCTGAAGAAATGCTAAAAAGAGCTGAAGTAGCTAAAGATTTAGGGGTACCTATTATTATGCATGACTATCTAACTGGTGGTCTTACTGCTAACACTTCATTAGCTCACTACTGTCGTGACAATGGTCTATTATTACACATTCACAGAGCTATGCACGCGGTTATTGACCGTCAAAGAAACCACGGGATTCACTTCCGTGTATTAGCAAAAGCTCTTCGTTTGTCTGGTGGGGACCATCTTCACTCAGGAACTGTAGTAGGAAAACTAGAAGGTGAACGAGAAGTTACTTTAGGTTTCGTTGATTTAATGAGAGACGAATATATCGAAAAAGATCGTAGCCGTGGTATTTACTTCANTCAANA'
p206
sg8
S'frwdrev'
p207
sg10
I01
sg11
g12
sg13
I01
sg14
(lp208
(dp209
g4
g12
sg6
g12
sg8
S'file'
p210
sg10
I00
sg11
g12
sg13
I00
sg14
(lp211
sg19
I00
sg20
I42
sg21
S'thickwall_BLU1902_5-13T1-rbcL_remiasii_F.ab1'
p212
sa(dp213
g4
g12
sg6
g12
sg8
S'file'
p214
sg10
I00
sg11
g12
sg13
I00
sg14
(lp215
sg19
I01
sg20
I43
sg21
S'thickwall_BLU1902_5-13T1-rbcL_remiasii_R.ab1'
p216
sasg19
I00
sg20
I41
sg21
S'thickwall_BLU1902_5-13T1_rbcL'
p217
sa(dp218
g4
S'                        NNTTTAACATATTACACTCCAGATTACGTAGTAAAAGACACAGACATTCTAGCAGCTTTCNGTATGACTCCGCAAGCCGGTGTTCCTATTGAAGAAGCAGGAGCAGCTGTAGCAGCTGAATCTTCTACTGGTACTTGGACTACTGTATGGACTGACGGTTTAACAAGCCTTGACCGTTACAAAGGTCGTTGTTATGATATCGAACCAGTTGCTGGTGAAGAAAACCAATACATCGCTTACGTTGCTTATCCTATTGACCTTTTTGAAGAAGGTTCTGTAACTAACTTATTTACATCTATTGTAGGTAACGTTTTTGGTTTCAAAGCTCTTCGTGCTTTACGTCTTGAAGATTTACGTATTTCTTGTGCATACGCTAAAACATTCCAAGGACCTCCTCACGGGATCCAAGTAGAACGTGACAAATTAAACAAATATGGTCGTGGTCTTTTAGGTTGTACAATTAAACCTAAATTAGGTTTATCAGCTAAAAACTATGGTCGTGCAGTTTACGAATGTTTACGTGGTGGGTTAGATTTCACAAAAGATGATGAAAATGTTACAAGCCAAGCTTTCATGCGTTGGANN              '
p219
sg6
S'NNTTTAACATATTACACTCCAGATTACGTAGTAAAAGACACAGACATTCTAGCAGCTTTCNGTATGACTCCGCAAGCCGGTGTTCCTATTGAAGAAGCAGGAGCAGCTGTAGCAGCTGAATCTTCTACTGGTACTTGGACTACTGTATGGACTGACGGTTTAACAAGCCTTGACCGTTACAAAGGTCGTTGTTATGATATCGAACCAGTTGCTGGTGAAGAAAACCAATACATCGCTTACGTTGCTTATCCTATTGACCTTTTTGAAGAAGGTTCTGTAACTAACTTATTTACATCTATTGTAGGTAACGTTTTTGGTTTCAAAGCTCTTCGTGCTTTACGTCTTGAAGATTTACGTATTTCTTGTGCATACGCTAAAACATTCCAAGGACCTCCTCACGGGATCCAAGTAGAACGTGACAAATTAAACAAATATGGTCGTGGTCTTTTAGGTTGTACAATTAAACCTAAATTAGGTTTATCAGCTAAAAACTATGGTCGTGCAGTTTACGAATGTTTACGTGGTGGGTTAGATTTCACAAAAGATGATGAAAATGTTACAAGCCAAGCTTTCATGCGTTGGANN'
p220
sg8
S'frwdrev'
p221
sg10
I01
sg11
g12
sg13
I01
sg14
(lp222
(dp223
g4
g12
sg6
g12
sg8
S'file'
p224
sg10
I00
sg11
g12
sg13
I00
sg14
(lp225
sg19
I01
sg20
I45
sg21
S'thickwall_BLU1902_5-13T1-rbcL_R3seq4.ab1'
p226
sa(dp227
g4
g12
sg6
g12
sg8
S'file'
p228
sg10
I00
sg11
g12
sg13
I00
sg14
(lp229
sg19
I00
sg20
I46
sg21
S'thickwall_BLU1902_5-13T1-rbcL_snowF0seq4.ab1'
p230
sasg19
I00
sg20
I44
sg21
S'thickwall_BLU1902_5-13T1_rbcL'
p231
sa(dp232
g4
S'                       NNTTTAACATATTACACTCCAGATTACGTAGTAAAAGACACAGACATTCTAGCAGCTTTCCGTATGACTCCGCAAGCCGGTGTTCCTATTGAAGAAGCAGGAGCAGCTGTAGCAGCTGAATCTTCTACTGGTACTTGGACTACTGTATGGACTGACGGTTTAACAAGCCTTGACCGTTACAAAGGTCGTTGTTATGATATCGAACCAGTTGCTGGTGAAGAAAACCAATACATCGCTTACGTTGCTTATCCTATTGACCTTTTTGAAGAAGGTTCTGTAACTAACTTATTTACATCTATTGTAGGTAACGTTTTTGGTTTCAAAGCTCTTCGTGCTTTACGTCTTGAAGATTTACGTATTTCTTGTGCATACGCTAAAACATTCCAAGGACCTCCTCACGGGATCCAAGTAGAACGTGACAAATTAAACAAATATGGTCGTGGTCTTTTAGGTTGTACAATTAAACCTAAATTAGGTTTATCAGCTAAAAACTATGGTCGTGCAGTTTACNANTGTTTACGTGGTGGGTTAGATTTCACAAAAGATGATGAAAATGTTACAAGCCAAGCTTTCATGCGTTGGAGAGNNC           '
p233
sg6
S'NNTTTAACATATTACACTCCAGATTACGTAGTAAAAGACACAGACATTCTAGCAGCTTTCCGTATGACTCCGCAAGCCGGTGTTCCTATTGAAGAAGCAGGAGCAGCTGTAGCAGCTGAATCTTCTACTGGTACTTGGACTACTGTATGGACTGACGGTTTAACAAGCCTTGACCGTTACAAAGGTCGTTGTTATGATATCGAACCAGTTGCTGGTGAAGAAAACCAATACATCGCTTACGTTGCTTATCCTATTGACCTTTTTGAAGAAGGTTCTGTAACTAACTTATTTACATCTATTGTAGGTAACGTTTTTGGTTTCAAAGCTCTTCGTGCTTTACGTCTTGAAGATTTACGTATTTCTTGTGCATACGCTAAAACATTCCAAGGACCTCCTCACGGGATCCAAGTAGAACGTGACAAATTAAACAAATATGGTCGTGGTCTTTTAGGTTGTACAATTAAACCTAAATTAGGTTTATCAGCTAAAAACTATGGTCGTGCAGTTTACNANTGTTTACGTGGTGGGTTAGATTTCACAAAAGATGATGAAAATGTTACAAGCCAAGCTTTCATGCGTTGGAGAGNNC'
p234
sg8
S'frwdrev'
p235
sg10
I01
sg11
g12
sg13
I01
sg14
(lp236
(dp237
g4
g12
sg6
g12
sg8
S'file'
p238
sg10
I00
sg11
g12
sg13
I00
sg14
(lp239
sg19
I01
sg20
I48
sg21
S'thickwall_BLU1902_8-19L2-rbcL_R3seq4.ab1'
p240
sa(dp241
g4
g12
sg6
g12
sg8
S'file'
p242
sg10
I00
sg11
g12
sg13
I00
sg14
(lp243
sg19
I00
sg20
I49
sg21
S'thickwall_BLU1902_8-19L2-rbcL_snowF0seq4.ab1'
p244
sasg19
I00
sg20
I47
sg21
S'thickwall_BLU1902_8-19L2_rbcL'
p245
sa(dp246
g4
S'                        NNTTTAACATATTACACTCCAGATTACGTAGTAAAAGACACAGACATTCTAGCAGCTTTCCGTATGACTCCGCAAGCCGGTGTTCCTATTGAAGAAGCAGGAGCAGCTGTAGCAGCTGAATCTTCTACTGGTACTTGGACTACTGTATGGACTGACGGTTTAACAAGCCTTGACCGTTACAAAGGTCGTTGTTATGATATCGAACCAGTTGCTGGTGAAGAAAACCAATACATCGCTTACGTTGCTTATCCTATTGACCTTTTTGAAGAAGGTTCTGTAACTAACTTATTTACATCTATTGTAGGTAACGTTTTTGGTTTCAAAGCTCTTCGTGCTTTACGTCTTGAAGATTTACGTATTTCTTGTGCATACGCTAAAACATTCCAAGGACCTCCTCACGGGATCCAAGTAGAACGTGACAAATTAAACAAATATGGTCGTGGTCTTTTAGGTTGTACTATTAAACCAAAATTAGGTTTATCAGCTAAAAACTATGGTCGTGCAGTTTACGAATGTTTACGTGGTGGGTTAGATTTCACAAAAGATGATGAAAATGTTACAAGCCAAGCATTCATGCGTTGGNN                  '
p247
sg6
S'NNTTTAACATATTACACTCCAGATTACGTAGTAAAAGACACAGACATTCTAGCAGCTTTCCGTATGACTCCGCAAGCCGGTGTTCCTATTGAAGAAGCAGGAGCAGCTGTAGCAGCTGAATCTTCTACTGGTACTTGGACTACTGTATGGACTGACGGTTTAACAAGCCTTGACCGTTACAAAGGTCGTTGTTATGATATCGAACCAGTTGCTGGTGAAGAAAACCAATACATCGCTTACGTTGCTTATCCTATTGACCTTTTTGAAGAAGGTTCTGTAACTAACTTATTTACATCTATTGTAGGTAACGTTTTTGGTTTCAAAGCTCTTCGTGCTTTACGTCTTGAAGATTTACGTATTTCTTGTGCATACGCTAAAACATTCCAAGGACCTCCTCACGGGATCCAAGTAGAACGTGACAAATTAAACAAATATGGTCGTGGTCTTTTAGGTTGTACTATTAAACCAAAATTAGGTTTATCAGCTAAAAACTATGGTCGTGCAGTTTACGAATGTTTACGTGGTGGGTTAGATTTCACAAAAGATGATGAAAATGTTACAAGCCAAGCATTCATGCGTTGGNN'
p248
sg8
S'frwdrev'
p249
sg10
I01
sg11
g12
sg13
I01
sg14
(lp250
(dp251
g4
g12
sg6
g12
sg8
S'file'
p252
sg10
I00
sg11
g12
sg13
I00
sg14
(lp253
sg19
I01
sg20
I51
sg21
S'../CE_30-869933035/thickwall_BLU2203_1-11L1-rbcl_R3set4.ab1'
p254
sa(dp255
g4
g12
sg6
g12
sg8
S'file'
p256
sg10
I00
sg11
g12
sg13
I00
sg14
(lp257
sg19
I00
sg20
I52
sg21
S'thickwall_BLU2203_1-11L1-rbcL_snowF0seq4.ab1'
p258
sasg19
I00
sg20
I50
sg21
S'thickwall_BLU2203_1-11L1_rbcL'
p259
sasS'formatversion'
p260
S'0.9'
p261
sS'consseqsettings'
p262
(dp263
S'consensus_algorithm'
p264
S'Bayesian'
p265
sS'do_qualitytrim'
p266
I01
sS'qualitytrim_winsize'
p267
I10
sS'primermatch_threshold'
p268
F0.8
sS'trim_endgaps'
p269
I00
sS'min_confscore'
p270
I30
sS'forward_primer'
p271
g12
sS'reverse_primer'
p272
g12
sS'qualitytrim_basecnt'
p273
I8
sS'trim_consensus'
p274
I01
sS'trim_primers'
p275
I00
ssS'properties'
p276
(dp277
S'fwd_trace_searchstr'
p278
S'_F'
p279
sS'rev_trace_searchstr'
p280
S'_R'
p281
sS'trace_file_dir'
p282
S'.'
p283
ss.