(dp0
S'items'
p1
(lp2
(dp3
S'fullcons'
p4
S'                                                                            AATCAGTTATAGTTTATTTGATGGTACTTACTACTCGGATAACCGTAGTAATTCTAGAGCTAATACGTGCGTAAATCCCGACTTCTGGAAGGGACGTATTTATTAGATAAAAGGCCAGCCGAGCTTGCTCGACTTTAGGTGAATCATGATAACTCCACGAATCGCATGGCCTTGTGCCGGCGATGTTTCATTCAAATTTCTGCCCTATCAACTTTCGATGGTAGGATAGAGGCCTACCATGGTGGTAACGGGTGACGGAGGATTAGGGTTCGATTCCGGAGAGGGAGCCTGAGAAATGGCTACCACATCCAAGGAAGGCAGCAGGCGCGCAAATTACCCAATCCCGACACGGGGAGGTAGTGACAATAAATAACAATGCCGAGCATTTTATGTTTGGCAATTGGAATGAGCACAATCTAAACCCCTTAACGAGGATCCATTGGAGGGCAAGTCTGGTGCCAGCAGCCGCGGTAATTCCAGCTCCAATAGCGTATATTTAAGTTGTTGCAGTTAAAAAGCTCGTAGTTGGATTTCGGGTGGGTTGTAGTGGTCCGGTTCGCTGTGTACTGCTACGGCCTTCCTTTCTGCCGGAAACGGGCTCTTGGGCTTTACTGTCTGGGACCCGGAGTCGGCGAGGTTACTTTGAGTAAATTAGAGTGTTCAAAGCAAGCTTACGCTCTGAATACATTAGCATGGAATAACACGATAGGACTCTGGCCTATCTTGTTGGTCTGTAGGACTGGAGTAATGATTAAGAGGGACAGTCGGGGGCATTCGTATTTCATTGTCAGAGGTGAAATTCTTGGATTTATGAAAGACGAACTTCTGCGAAAGCATTTGCCAAGGATGTTTTCATTAATCAAGANCGAAAGTTGGGGGCTCGAA                                                                                                                                                                                                   '
p5
sS'compactcons'
p6
S'AATCAGTTATAGTTTATTTGATGGTACTTACTACTCGGATAACCGTAGTAATTCTAGAGCTAATACGTGCGTAAATCCCGACTTCTGGAAGGGACGTATTTATTAGATAAAAGGCCAGCCGAGCTTGCTCGACTTTAGGTGAATCATGATAACTCCACGAATCGCATGGCCTTGTGCCGGCGATGTTTCATTCAAATTTCTGCCCTATCAACTTTCGATGGTAGGATAGAGGCCTACCATGGTGGTAACGGGTGACGGAGGATTAGGGTTCGATTCCGGAGAGGGAGCCTGAGAAATGGCTACCACATCCAAGGAAGGCAGCAGGCGCGCAAATTACCCAATCCCGACACGGGGAGGTAGTGACAATAAATAACAATGCCGAGCATTTTATGTTTGGCAATTGGAATGAGCACAATCTAAACCCCTTAACGAGGATCCATTGGAGGGCAAGTCTGGTGCCAGCAGCCGCGGTAATTCCAGCTCCAATAGCGTATATTTAAGTTGTTGCAGTTAAAAAGCTCGTAGTTGGATTTCGGGTGGGTTGTAGTGGTCCGGTTCGCTGTGTACTGCTACGGCCTTCCTTTCTGCCGGAAACGGGCTCTTGGGCTTTACTGTCTGGGACCCGGAGTCGGCGAGGTTACTTTGAGTAAATTAGAGTGTTCAAAGCAAGCTTACGCTCTGAATACATTAGCATGGAATAACACGATAGGACTCTGGCCTATCTTGTTGGTCTGTAGGACTGGAGTAATGATTAAGAGGGACAGTCGGGGGCATTCGTATTTCATTGTCAGAGGTGAAATTCTTGGATTTATGAAAGACGAACTTCTGCGAAAGCATTTGCCAAGGATGTTTTCATTAATCAAGANCGAAAGTTGGGGGCTCGAA'
p7
sS'itemtype'
p8
S'frwdrev'
p9
sS'useseq'
p10
I01
sS'notes'
p11
S''
p12
sS'hasseq'
p13
I01
sS'children'
p14
(lp15
(dp16
g4
g12
sg6
g12
sg8
S'file'
p17
sg10
I00
sg11
g12
sg13
I00
sg14
(lp18
sS'isreverse'
p19
I00
sS'id'
p20
I1
sS'name'
p21
S'cog_GAR1912_JA3-5C1-chloro18SF.ab1'
p22
sa(dp23
g4
g12
sg6
g12
sg8
S'file'
p24
sg10
I00
sg11
g12
sg13
I00
sg14
(lp25
sg19
I01
sg20
I2
sg21
S'cog_GAR1912_JA3-5C1-chloro18SMidR.ab1'
p26
sasg19
I00
sg20
I0
sg21
S'cog_GAR1912_JA3-5C1_18SA'
p27
sa(dp28
g4
S'                                                                                                                                                                                      NCNCGATAGGANTNTGGCCTATCTTGTTGNTCNGTAGGNCTGNANTAANGANNAAGANGGACNNTCGGGGGCNTTCGTATTTCATTGTCNGAGGTGAAATTCTTGGATTTATGAAAGACGAACTTCTGCGAAAGCATTTGCCAAGGATGTTTTCATTAATCAAGAACGAAAGTTGGGGGCTCGAAGACGATTAGATACCGTCGTAGTCTCAACCATAAACGATGCCGACTAGGGATTGGCAGGTGTTCTTTTGATGACCCTGCCAGCACCTTATGAGAAATCAAAGTTTTTGGGTTCCGGGGGGAGTATGGTCGCAAGGCTGAAACTTAAAGGAATTGACGGAAGGGCACCACCAGGCGTGGAGCCTGCGGCTTAATTTGACTCAACACGGGAAAACTTACCAGGTCCAGACACGGGGAGGATTGACAGATTGAGAGCTCTTTCTTGATTCTGTGGGTGGTGGTGCATGGCCGTTCTTAGTTGGTGGGTTGCCTTGTCAGGTTGATTCCGGTAACGAACGAGACCTCAGCCTGCTAAATAGTCACGTCTGCCTCTCGCAGACGGCCGACTTCTTAGAGGGACTATTGTCGTTTAGGCAATGGAAGTATGAGGCAATAACAGGTCTGTGATGCCCTTAGATGTTCTGGGCCGCACGCGCGCTACACTGATGCGTTCAACGAGCCTATCCTTGGCCGAGAGGCCCGGGTAATCTTCGAAACCGCATCGTGATGGGGATAGATTATTGCAATTATTAGTCTTCAACGAGGAATGCCTAGTAAGCGCGAGTCATCAGCTCGCGTTGATTACGTCCCTGCCCTTTGTACACACCGCCCGTCGCTCCTACCGATTGAGTGTGCTGGTGAATTCTTTGGAGCGGCGCTTACTGATGGCAACATTGGTTGGTACTGCGAAGANGAATGAACCCTCCCACTTANANGAANGANAANTCGTANCA                                                                                                                                                                                                                             '
p29
sg6
S'NCNCGATAGGANTNTGGCCTATCTTGTTGNTCNGTAGGNCTGNANTAANGANNAAGANGGACNNTCGGGGGCNTTCGTATTTCATTGTCNGAGGTGAAATTCTTGGATTTATGAAAGACGAACTTCTGCGAAAGCATTTGCCAAGGATGTTTTCATTAATCAAGAACGAAAGTTGGGGGCTCGAAGACGATTAGATACCGTCGTAGTCTCAACCATAAACGATGCCGACTAGGGATTGGCAGGTGTTCTTTTGATGACCCTGCCAGCACCTTATGAGAAATCAAAGTTTTTGGGTTCCGGGGGGAGTATGGTCGCAAGGCTGAAACTTAAAGGAATTGACGGAAGGGCACCACCAGGCGTGGAGCCTGCGGCTTAATTTGACTCAACACGGGAAAACTTACCAGGTCCAGACACGGGGAGGATTGACAGATTGAGAGCTCTTTCTTGATTCTGTGGGTGGTGGTGCATGGCCGTTCTTAGTTGGTGGGTTGCCTTGTCAGGTTGATTCCGGTAACGAACGAGACCTCAGCCTGCTAAATAGTCACGTCTGCCTCTCGCAGACGGCCGACTTCTTAGAGGGACTATTGTCGTTTAGGCAATGGAAGTATGAGGCAATAACAGGTCTGTGATGCCCTTAGATGTTCTGGGCCGCACGCGCGCTACACTGATGCGTTCAACGAGCCTATCCTTGGCCGAGAGGCCCGGGTAATCTTCGAAACCGCATCGTGATGGGGATAGATTATTGCAATTATTAGTCTTCAACGAGGAATGCCTAGTAAGCGCGAGTCATCAGCTCGCGTTGATTACGTCCCTGCCCTTTGTACACACCGCCCGTCGCTCCTACCGATTGAGTGTGCTGGTGAATTCTTTGGAGCGGCGCTTACTGATGGCAACATTGGTTGGTACTGCGAAGANGAATGAACCCTCCCACTTANANGAANGANAANTCGTANCA'
p30
sg8
S'frwdrev'
p31
sg10
I01
sg11
g12
sg13
I01
sg14
(lp32
(dp33
g4
g12
sg6
g12
sg8
S'file'
p34
sg10
I00
sg11
g12
sg13
I00
sg14
(lp35
sg19
I00
sg20
I4
sg21
S'cog_GAR1912_JA3-5C1-chloro18SMidF.ab1'
p36
sa(dp37
g4
g12
sg6
g12
sg8
S'file'
p38
sg10
I00
sg11
g12
sg13
I00
sg14
(lp39
sg19
I01
sg20
I5
sg21
S'cog_GAR1912_JA3-5C1-chloro18SR_set2.ab1'
p40
sasg19
I00
sg20
I3
sg21
S'cog_GAR1912_JA3-5C1_18SB'
p41
sa(dp42
g4
S'                                                                                                                                                                                                                                 ATAGTTTATTTGATGGNACTTACTACTCGGATAACCGTAGTAATTCTAGAGCT AATACGTGCGTAAATCCCGACTTCTGGAAGGGACGTATTTATTAGATAAAAGGCCAGCCGAGCTTGCTCGACTTTAGGTGAATCATGATAACTCCACGAATCGCATGGCCTTGTGCCGGCGATGTTTCATTCAAATTTCTGCCCTATCAACTTTCGATGGTAGGATAGAGGCCTACCATGGTGGTAACGGGTGACGGAGGATTAGGGTTCGATTCCGGAGAGGGAGCCTGAGAAATGGCTACCACATCCAAGGAAGGCAGCAGGCGCGCAAATTACCCAATCCCGACACGGGGAGGTAGTGACAATAAATAACAATGCCGAGCATTTTATGTTTGGCAATTGGAATGAGCACAATCTAAACCCCTTAACGAGGATCCATTGGAGGGCAAGTCTGGTGCCAGCAGCCGCGGTAATTCCAGCTCCAATAGCGTATATTTAAGTTGTTGCAGTTAAAAAGCTCGTAGTTGGATTTCGGGTGGGTTGTAGTGGTCCGGTTCGCTGTGTACTGCTACGGCCTTCCTTTCTGCCGGAAACGGGCTCTTGGGCTTTACTGTCTGGGACCCGGAGTCGGCGAGGTTACTTTGAGTAAATTAGAGTGTTCAAAGCAAGCTTACGCTCTGAATACATTAGCATGGAATAACACGATAGGACTCTGGCCTATCTTGTTGGTCTGTAGGACTGGAGTAATGATTAAGAGGGACAGTCGGGGGCATTCGTATTTCATTGTCAGAGGTGAAATTCTTGGATTTATGAAAGACGAACTTCTGCNAAAGCNTTTGCCANGGANGTTTTCANTNATCNAGAACNAAAGTTGGGGG                                                                                                                                                                                                         '
p43
sg6
S'ATAGTTTATTTGATGGNACTTACTACTCGGATAACCGTAGTAATTCTAGAGCTAATACGTGCGTAAATCCCGACTTCTGGAAGGGACGTATTTATTAGATAAAAGGCCAGCCGAGCTTGCTCGACTTTAGGTGAATCATGATAACTCCACGAATCGCATGGCCTTGTGCCGGCGATGTTTCATTCAAATTTCTGCCCTATCAACTTTCGATGGTAGGATAGAGGCCTACCATGGTGGTAACGGGTGACGGAGGATTAGGGTTCGATTCCGGAGAGGGAGCCTGAGAAATGGCTACCACATCCAAGGAAGGCAGCAGGCGCGCAAATTACCCAATCCCGACACGGGGAGGTAGTGACAATAAATAACAATGCCGAGCATTTTATGTTTGGCAATTGGAATGAGCACAATCTAAACCCCTTAACGAGGATCCATTGGAGGGCAAGTCTGGTGCCAGCAGCCGCGGTAATTCCAGCTCCAATAGCGTATATTTAAGTTGTTGCAGTTAAAAAGCTCGTAGTTGGATTTCGGGTGGGTTGTAGTGGTCCGGTTCGCTGTGTACTGCTACGGCCTTCCTTTCTGCCGGAAACGGGCTCTTGGGCTTTACTGTCTGGGACCCGGAGTCGGCGAGGTTACTTTGAGTAAATTAGAGTGTTCAAAGCAAGCTTACGCTCTGAATACATTAGCATGGAATAACACGATAGGACTCTGGCCTATCTTGTTGGTCTGTAGGACTGGAGTAATGATTAAGAGGGACAGTCGGGGGCATTCGTATTTCATTGTCAGAGGTGAAATTCTTGGATTTATGAAAGACGAACTTCTGCNAAAGCNTTTGCCANGGANGTTTTCANTNATCNAGAACNAAAGTTGGGGG'
p44
sg8
S'frwdrev'
p45
sg10
I01
sg11
g12
sg13
I01
sg14
(lp46
(dp47
g4
g12
sg6
g12
sg8
S'file'
p48
sg10
I00
sg11
g12
sg13
I00
sg14
(lp49
sg19
I00
sg20
I6
sg21
S'cog_GAR1912_JA3-5C2-chloro18SF.ab1'
p50
sa(dp51
g4
g12
sg6
g12
sg8
S'file'
p52
sg10
I00
sg11
g12
sg13
I00
sg14
(lp53
sg19
I01
sg20
I8
sg21
S'cog_GAR1912_JA3-5C2-chloro18SMidR.ab1'
p54
sasg19
I00
sg20
I26
sg21
S'cog_GAR1912_JA3-5C2_18SA'
p55
sa(dp56
g4
S'                                                                                                    CTTNGAGTNANNNANNNNNTNAAANCNAGCTNNCGNTNTGANTNCNNNAGCATGGANNNNCNCNNNAGGANTNNGNCNTATNTNGTNNNTCNGNAGGANTGNAGTAANGANTAANAGGGACNNNCGGGGNCATTNGTATTTCATTGTCNGAGGTGAAATTCTTGGATTTATGAAAGACGAACTTCTGCGAAAGCATTTGCCAAGGATGTTTTCATTAATCAAGAACGAAAGTTGGGGGCTCGAAGACGATTAGATACCGTCGTAGTCTCAACCATAAACGATGCCGACTAGGGATTGGCAGGTGTTCTTTTGATGACCCTGCCAGCACCTTATGAGAAATCAAAGTTTTTGGGTTCCGGGGGGAGTATGGTCGCAAGGCTGAAACTTAAAGGAATTGACGGAAGGGCACCACCAGGCGTGGAGCCTGCGGCTTAATTTGACTCAACACGGGAAAACTTACCAGGTCCAGACACGGGGAGGATTGACAGATTGAGAGCTCTTTCTTGATTCTGTGGGTGGTGGTGCATGGCCGTTCTTAGTTGGTGGGTTGCCTTGTCAGGTTGATTCCGGTAACGAACGAGACCTCAGCCTGCTAAATAGTCACGTCTGCCTCTCGCAGACGGCCGACTTCTTAGAGGGACTATTGTCGTTTAGGCAATGGAAGTATGAGGCAATAACAGGTCTGTGATGCCCTTAGATGTTCTGGGCCGCACGCGCGCTACACTGATGCGTTCAACGAGCCTATCCTTGGCCGAGAGGCCCGGGTAATCTTCGAAACCGCATCGTGATGGGGATAGATTATTGCAATTATTAGTCTTCAACGAGGAATGCCTAGTAAGCGCGAGTCATCAGCTCGCGTTGATTACGTCCCTGCCCTTTGTACACACCGCCCGTCGCTCCTACCGATTGAGTGTGCTGGTGAATTCTTTGGAGCGGCGCTTACTGATGGCAACATTGGTTGGTACTGCGAAGA                                                                                                                                                                                                                                                       '
p57
sg6
S'CTTNGAGTNANNNANNNNNTNAAANCNAGCTNNCGNTNTGANTNCNNNAGCATGGANNNNCNCNNNAGGANTNNGNCNTATNTNGTNNNTCNGNAGGANTGNAGTAANGANTAANAGGGACNNNCGGGGNCATTNGTATTTCATTGTCNGAGGTGAAATTCTTGGATTTATGAAAGACGAACTTCTGCGAAAGCATTTGCCAAGGATGTTTTCATTAATCAAGAACGAAAGTTGGGGGCTCGAAGACGATTAGATACCGTCGTAGTCTCAACCATAAACGATGCCGACTAGGGATTGGCAGGTGTTCTTTTGATGACCCTGCCAGCACCTTATGAGAAATCAAAGTTTTTGGGTTCCGGGGGGAGTATGGTCGCAAGGCTGAAACTTAAAGGAATTGACGGAAGGGCACCACCAGGCGTGGAGCCTGCGGCTTAATTTGACTCAACACGGGAAAACTTACCAGGTCCAGACACGGGGAGGATTGACAGATTGAGAGCTCTTTCTTGATTCTGTGGGTGGTGGTGCATGGCCGTTCTTAGTTGGTGGGTTGCCTTGTCAGGTTGATTCCGGTAACGAACGAGACCTCAGCCTGCTAAATAGTCACGTCTGCCTCTCGCAGACGGCCGACTTCTTAGAGGGACTATTGTCGTTTAGGCAATGGAAGTATGAGGCAATAACAGGTCTGTGATGCCCTTAGATGTTCTGGGCCGCACGCGCGCTACACTGATGCGTTCAACGAGCCTATCCTTGGCCGAGAGGCCCGGGTAATCTTCGAAACCGCATCGTGATGGGGATAGATTATTGCAATTATTAGTCTTCAACGAGGAATGCCTAGTAAGCGCGAGTCATCAGCTCGCGTTGATTACGTCCCTGCCCTTTGTACACACCGCCCGTCGCTCCTACCGATTGAGTGTGCTGGTGAATTCTTTGGAGCGGCGCTTACTGATGGCAACATTGGTTGGTACTGCGAAGA'
p58
sg8
S'frwdrev'
p59
sg10
I01
sg11
g12
sg13
I01
sg14
(lp60
(dp61
g4
g12
sg6
g12
sg8
S'file'
p62
sg10
I00
sg11
g12
sg13
I00
sg14
(lp63
sg19
I00
sg20
I7
sg21
S'cog_GAR1912_JA3-5C2-chloro18SMidF.ab1'
p64
sa(dp65
g4
g12
sg6
g12
sg8
S'file'
p66
sg10
I00
sg11
g12
sg13
I00
sg14
(lp67
sg19
I01
sg20
I9
sg21
S'cog_GAR1912_JA3-5C2-chloro18SR_set1.ab1'
p68
sasg19
I00
sg20
I27
sg21
S'cog_GAR1912_JA3-5C2_18SB'
p69
sa(dp70
g4
S'                             TNTAAGNATAANNTNNTTTNTNCNGNAAAACTGNGANNGGNTCATNAANTCAGTTATAGTTTATTTGATNGNANNTANNTACTCGGATAACCGTAGTAATTCTAGAGCTAATACGTGCNTAAATCCCGACTTCTGGAAGGGACGTATTNATTAGATAAAAGGCCAGCCGAGCTTGCTCGACTTTAGGTGAATCATGATAACTCCACGAATCGCATGGCCTTGTGCCGGCGATGTTTCATTCAAATTTCTGCCCTATCAACTTTCGATGGTAGGATAGAGGCCTACCATGGTGGTAACGGGTGACGGAGGATTAGGGTTCGATTCCGGAGAGGGAGCCTGAGAAATGGCTACCACATCCAAGGAAGGCAGCAGGCGCGCAAATTACCCAATCCCGACACGGGGAGGTAGTGACAATAAATAACAATGCCGAGCATTTTATGTTTGGCAATTGGAATGAGCACAATCTAAACCCCTTAACGAGGATCCATTGGAGGGCAAGTCTGGTGCCAGCAGCCGCGGTAATTCCAGCTCCAATAGCGTATATTTAAGTTGTTGCAGTTAAAAAGCTCGTAGTTGGATTTCGGGTGGGTTGTAGTGGTCCGGTTCGCTGTGTACTGCTACGGCCTTCCTTTCTGCCGGAAACGGGCTCTTGGGCTTTACTGTCTGGGACCCGGAGTCGGCGAGGTTACTTTGAGTAAATTAGAGTGTTCAAAGCAAGCTTACGCTCTGAATACATTAGCATGGAATAACACGATAGGACTCTGGCCTATCTTGTTGGTCTGTAGGACTGGAGTAATGATTAAGAGGGACAGTCGGGGGCATTCGTATTTNCATTGTCAGAGGTGAAATTCTTGGATTTATGAAAGACGAACTTCTGCGAAAGCATTTGCCAAGGANGNTTTCNTTAATCANNNACNAANGTTG                                                                                                                                                                                                                        '
p71
sg6
S'TNTAAGNATAANNTNNTTTNTNCNGNAAAACTGNGANNGGNTCATNAANTCAGTTATAGTTTATTTGATNGNANNTANNTACTCGGATAACCGTAGTAATTCTAGAGCTAATACGTGCNTAAATCCCGACTTCTGGAAGGGACGTATTNATTAGATAAAAGGCCAGCCGAGCTTGCTCGACTTTAGGTGAATCATGATAACTCCACGAATCGCATGGCCTTGTGCCGGCGATGTTTCATTCAAATTTCTGCCCTATCAACTTTCGATGGTAGGATAGAGGCCTACCATGGTGGTAACGGGTGACGGAGGATTAGGGTTCGATTCCGGAGAGGGAGCCTGAGAAATGGCTACCACATCCAAGGAAGGCAGCAGGCGCGCAAATTACCCAATCCCGACACGGGGAGGTAGTGACAATAAATAACAATGCCGAGCATTTTATGTTTGGCAATTGGAATGAGCACAATCTAAACCCCTTAACGAGGATCCATTGGAGGGCAAGTCTGGTGCCAGCAGCCGCGGTAATTCCAGCTCCAATAGCGTATATTTAAGTTGTTGCAGTTAAAAAGCTCGTAGTTGGATTTCGGGTGGGTTGTAGTGGTCCGGTTCGCTGTGTACTGCTACGGCCTTCCTTTCTGCCGGAAACGGGCTCTTGGGCTTTACTGTCTGGGACCCGGAGTCGGCGAGGTTACTTTGAGTAAATTAGAGTGTTCAAAGCAAGCTTACGCTCTGAATACATTAGCATGGAATAACACGATAGGACTCTGGCCTATCTTGTTGGTCTGTAGGACTGGAGTAATGATTAAGAGGGACAGTCGGGGGCATTCGTATTTNCATTGTCAGAGGTGAAATTCTTGGATTTATGAAAGACGAACTTCTGCGAAAGCATTTGCCAAGGANGNTTTCNTTAATCANNNACNAANGTTG'
p72
sg8
S'frwdrev'
p73
sg10
I01
sg11
g12
sg13
I01
sg14
(lp74
(dp75
g4
g12
sg6
g12
sg8
S'file'
p76
sg10
I00
sg11
g12
sg13
I00
sg14
(lp77
sg19
I00
sg20
I10
sg21
S'cog_GAR1912_JA3-5C3-chloro18SF.ab1'
p78
sa(dp79
g4
g12
sg6
g12
sg8
S'file'
p80
sg10
I00
sg11
g12
sg13
I00
sg14
(lp81
sg19
I01
sg20
I12
sg21
S'cog_GAR1912_JA3-5C3-chloro18SMidR.ab1'
p82
sasg19
I00
sg20
I28
sg21
S'cog_GAR1912_JA3-5C3_18SA'
p83
sa(dp84
g4
S'                                                                                                                                                                                                                                    GATNAAGAGGGNCNGTCGGGGGCNTTCGTATTTCNNTGTCAGAGGTGAAATTCTTGGATTTATGAAAGACGAACTTCTGCGAAAGCATTTGCCAAGGATGTTTTCATTAATCAAGAACGAAAGTTGGGGGCTCGAAGACGATTAGATACCGTCGTAGTCTCAACCATAAACGATGCCGACTAGGGATTGGCAGGTGTTCTTTTGATGACCCTGCCAGCACCTTATGAGAAATCAAAGTTTTTGGGTTCCGGGGGGAGTATGGTCGCAAGGCTGAAACTTAAAGGAATTGACGGAAGGGCACCACCAGGCGTGGAGCCTGCGGCTTAATTTGACTCAACACGGGAAAACTTACCAGGTCCAGACACGGGGAGGATTGACAGATTGAGAGCTCTTTCTTGATTCTGTGGGTGGTGGTGCATGGCCGTTCTTAGTTGGTGGGTTGCCTTGTCAGGTTGATTCCGGTAACGAACGAGACCTCAGCCTGCTAAATAGTCACGTCTGCCTCTCGCAGACGGCCGACTTCTTAGAGGGACTATTGTCGTTTAGGCAATGGAAGTATGAGGCAATAACAGGTCTGTGATGCCCTTAGATGTTCTGGGCCGCACGCGCGCTACACTGATGCGTTCAACGAGCCTATCCTTGGCCGAGAGGCCCGGGTAATCTTCGAAACCGCATCGTGATGGGGATAGATTATTGCAATTATTAGTCTTCAACGAGGAATGCCTAGTAAGCGCGAGTCATCAGCTCGCGTTGATTACGTCCCTGCCCTTTGTACACACCGCCCGTCGCTCCTACCGATTGAGTGTGCTGGTGAATTCTTTGGAGCGGCGCTTACTGATGGCAACATTGGTTGGTACTGCGAAG                                                                                                                                                                                                                                              '
p85
sg6
S'GATNAAGAGGGNCNGTCGGGGGCNTTCGTATTTCNNTGTCAGAGGTGAAATTCTTGGATTTATGAAAGACGAACTTCTGCGAAAGCATTTGCCAAGGATGTTTTCATTAATCAAGAACGAAAGTTGGGGGCTCGAAGACGATTAGATACCGTCGTAGTCTCAACCATAAACGATGCCGACTAGGGATTGGCAGGTGTTCTTTTGATGACCCTGCCAGCACCTTATGAGAAATCAAAGTTTTTGGGTTCCGGGGGGAGTATGGTCGCAAGGCTGAAACTTAAAGGAATTGACGGAAGGGCACCACCAGGCGTGGAGCCTGCGGCTTAATTTGACTCAACACGGGAAAACTTACCAGGTCCAGACACGGGGAGGATTGACAGATTGAGAGCTCTTTCTTGATTCTGTGGGTGGTGGTGCATGGCCGTTCTTAGTTGGTGGGTTGCCTTGTCAGGTTGATTCCGGTAACGAACGAGACCTCAGCCTGCTAAATAGTCACGTCTGCCTCTCGCAGACGGCCGACTTCTTAGAGGGACTATTGTCGTTTAGGCAATGGAAGTATGAGGCAATAACAGGTCTGTGATGCCCTTAGATGTTCTGGGCCGCACGCGCGCTACACTGATGCGTTCAACGAGCCTATCCTTGGCCGAGAGGCCCGGGTAATCTTCGAAACCGCATCGTGATGGGGATAGATTATTGCAATTATTAGTCTTCAACGAGGAATGCCTAGTAAGCGCGAGTCATCAGCTCGCGTTGATTACGTCCCTGCCCTTTGTACACACCGCCCGTCGCTCCTACCGATTGAGTGTGCTGGTGAATTCTTTGGAGCGGCGCTTACTGATGGCAACATTGGTTGGTACTGCGAAG'
p86
sg8
S'frwdrev'
p87
sg10
I01
sg11
g12
sg13
I01
sg14
(lp88
(dp89
g4
g12
sg6
g12
sg8
S'file'
p90
sg10
I00
sg11
g12
sg13
I00
sg14
(lp91
sg19
I00
sg20
I11
sg21
S'cog_GAR1912_JA3-5C3-chloro18SMidF.ab1'
p92
sa(dp93
g4
g12
sg6
g12
sg8
S'file'
p94
sg10
I00
sg11
g12
sg13
I00
sg14
(lp95
sg19
I01
sg20
I13
sg21
S'cog_GAR1912_JA3-5C3-chloro18SR_set1.ab1'
p96
sasg19
I00
sg20
I29
sg21
S'cog_GAR1912_JA3-5C3_18SB'
p97
sa(dp98
g4
g12
sg6
g12
sg8
S'file'
p99
sg10
I00
sg11
g12
sg13
I00
sg14
(lp100
sg19
I00
sg20
I14
sg21
S'cog_GAR1930_7-12L1-chloro18SF.ab1'
p101
sa(dp102
g4
g12
sg6
g12
sg8
S'file'
p103
sg10
I00
sg11
g12
sg13
I00
sg14
(lp104
sg19
I00
sg20
I15
sg21
S'cog_GAR1930_7-12L1-chloro18SMidF.ab1'
p105
sa(dp106
g4
g12
sg6
g12
sg8
S'file'
p107
sg10
I00
sg11
g12
sg13
I00
sg14
(lp108
sg19
I00
sg20
I16
sg21
S'gear_PAN1915_20210321C2-chloro18SMidF.ab1'
p109
sa(dp110
g4
S'                            TAAGNNTAAACTGNTTTATNCNGNAAAANTGNGAANGGNTCATTAANTCAGTNATAGTTTATTTGATGGTACTTAC TACTCGGATAACCGTAGTAATTCTAGAGCTAATACGTGCGTAAATCCCGACTTCTGGAAGGGACGTATTTATTAGATAAAAGGCCAGCCGAGCTTGCTCGACTTTAGGTGAATCATGATAACTCCACGAATCGCATGGCCTTGTGCCGGCGATGTTTCATTCAAATTTCTGCCCTATCAACTTTCGATGGTAGGATAGAGGCCTACCATGGTGGTAACGGGTGACGGAGGATTAGGGTTCGATTCCGGAGAGGGAGCCTGAGAAATGGCTACCACATCCAAGGAAGGCAGCAGGCGCGCAAATTACCCAATCCCGACACGGGGAGGTAGTGACAATAAATAACAATGCCGAGCATTTTATGTTTGGCAATTGGAATGAGCACAATCTAAACCCCTTAACGAGGATCCATTGGAGGGCAAGTCTGGTGCCAGCAGCCGCGGTAATTCCAGCTCCAATAGCGTATATTTAAGTTGTTGCAGTTAAAAAGCTCGTAGTTGGATTTCGGGTGGGTTGTAGTGGTCCGGTTCGCTGTGTACTGCTACGGCCTTCCTTTCTGCCGGAAACGGGCTCTTGGGCTTTACTGTCTGGGACCCGGAGTCGGCGAGGTTACTTTGAGTAAATTAGAGTGTTCAAAGCAAGCTTACGCTCTGAATACATTAGCATGGAATAACACGATAGGACTCTGGCCTATCTTGTTGGTCTGTAGGACTGGAGTAATGATTAAGAGGGACAGTCGGGGGCATTCGTATTTCATTGTCAGAGGTGAAATTCTTGGATTTATGAAAGACGAACTTCTGCGAAAGCATTTGCCAAGGATGTTTTCATNANATC                                                                                                                                                                                                                                                   '
p111
sg6
S'TAAGNNTAAACTGNTTTATNCNGNAAAANTGNGAANGGNTCATTAANTCAGTNATAGTTTATTTGATGGTACTTACTACTCGGATAACCGTAGTAATTCTAGAGCTAATACGTGCGTAAATCCCGACTTCTGGAAGGGACGTATTTATTAGATAAAAGGCCAGCCGAGCTTGCTCGACTTTAGGTGAATCATGATAACTCCACGAATCGCATGGCCTTGTGCCGGCGATGTTTCATTCAAATTTCTGCCCTATCAACTTTCGATGGTAGGATAGAGGCCTACCATGGTGGTAACGGGTGACGGAGGATTAGGGTTCGATTCCGGAGAGGGAGCCTGAGAAATGGCTACCACATCCAAGGAAGGCAGCAGGCGCGCAAATTACCCAATCCCGACACGGGGAGGTAGTGACAATAAATAACAATGCCGAGCATTTTATGTTTGGCAATTGGAATGAGCACAATCTAAACCCCTTAACGAGGATCCATTGGAGGGCAAGTCTGGTGCCAGCAGCCGCGGTAATTCCAGCTCCAATAGCGTATATTTAAGTTGTTGCAGTTAAAAAGCTCGTAGTTGGATTTCGGGTGGGTTGTAGTGGTCCGGTTCGCTGTGTACTGCTACGGCCTTCCTTTCTGCCGGAAACGGGCTCTTGGGCTTTACTGTCTGGGACCCGGAGTCGGCGAGGTTACTTTGAGTAAATTAGAGTGTTCAAAGCAAGCTTACGCTCTGAATACATTAGCATGGAATAACACGATAGGACTCTGGCCTATCTTGTTGGTCTGTAGGACTGGAGTAATGATTAAGAGGGACAGTCGGGGGCATTCGTATTTCATTGTCAGAGGTGAAATTCTTGGATTTATGAAAGACGAACTTCTGCGAAAGCATTTGCCAAGGATGTTTTCATNANATC'
p112
sg8
S'frwdrev'
p113
sg10
I01
sg11
g12
sg13
I01
sg14
(lp114
(dp115
g4
g12
sg6
g12
sg8
S'file'
p116
sg10
I00
sg11
g12
sg13
I00
sg14
(lp117
sg19
I00
sg20
I18
sg21
S'gear_PAN1915_20210321C2-chloro18SF.ab1'
p118
sa(dp119
g4
g12
sg6
g12
sg8
S'file'
p120
sg10
I00
sg11
g12
sg13
I00
sg14
(lp121
sg19
I01
sg20
I19
sg21
S'gear_PAN1915_20210321C2-chloro18SMidR.ab1'
p122
sasg19
I00
sg20
I17
sg21
S'gear_PAN1915_JA3-21C2_18SA'
p123
sa(dp124
g4
S'                                                                     NTCATTAAATCAGTTATAGTTTATTTGATGGTACTTACTACTCGGATAACCGTAGTAATTCTAGAGCTAATACGTGCGTAAATCCCGACTTCTGGAAGGGACGTATTTATTAGATAAAAGGCCAGCCGAGCTTGCTCGACTTTAGGTGAATCATGATAACTCCACGAATCGCATGGCCTTGTGCCGGCGATGTTTCATTCAAATTTCTGCCCTATCAACTTTCGATGGTAGGATAGAGGCCTACCATGGTGGTAACGGGTGACGGAGGATTAGGGTTCGATTCCGGAGAGGGAGCCTGAGAAATGGCTACCACATCCAAGGAAGGCAGCAGGCGCGCAAATTACCCAATCCCGACACGGGGAGGTAGTGACAATAAATAACAATGCCGAGCATTTTATGTTTGGCAATTGGAATGAGCACAATCTAAACCCCTTAACGAGGATCCATTGGAGGGCAAGTCTGGTGCCAGCAGCCGCGGTAATTCCAGCTCCAATAGCGTATATTTAAGTTGTTGCAGTTAAAAAGCTCGTAGTTGGATTTCGGGTGGGTTGTAGTGGTCCGGTTCGCTGTGTACTGCTACGGCCTTCCTTTCTGCCGGAAACGGGCTCTTGGGCTTTACTGTCTGGGACCCGGAGTCGGCGAGGTTACTTTGAGTAAATTAGAGTGTTCAAAGCAAGCTTACGCTCTGAATACATTAGCATGGAATAACACGATAGGACTCTGGCCTATCTTGTTGGTCTGTAGGACTGGAGTAATGATTAAGAGGGACAGTCGGGGGCATTCGTATTTCATTGTCAGAGGTGAAATTCTTGGATTTATGAAAGACGAACTTCTGCGAAAGCANTTGCCAAGGATGTTTTCATTAATCAAGAACGAAAGTTGGGGGCTCGAANANNANTANANANNGNCGNANNCTCNNCCNTAANCGANGNNNNNNNNGNANNNNNNNNNGNNCTTTNGANGA                                                                                                                          '
p125
sg6
S'NTCATTAAATCAGTTATAGTTTATTTGATGGTACTTACTACTCGGATAACCGTAGTAATTCTAGAGCTAATACGTGCGTAAATCCCGACTTCTGGAAGGGACGTATTTATTAGATAAAAGGCCAGCCGAGCTTGCTCGACTTTAGGTGAATCATGATAACTCCACGAATCGCATGGCCTTGTGCCGGCGATGTTTCATTCAAATTTCTGCCCTATCAACTTTCGATGGTAGGATAGAGGCCTACCATGGTGGTAACGGGTGACGGAGGATTAGGGTTCGATTCCGGAGAGGGAGCCTGAGAAATGGCTACCACATCCAAGGAAGGCAGCAGGCGCGCAAATTACCCAATCCCGACACGGGGAGGTAGTGACAATAAATAACAATGCCGAGCATTTTATGTTTGGCAATTGGAATGAGCACAATCTAAACCCCTTAACGAGGATCCATTGGAGGGCAAGTCTGGTGCCAGCAGCCGCGGTAATTCCAGCTCCAATAGCGTATATTTAAGTTGTTGCAGTTAAAAAGCTCGTAGTTGGATTTCGGGTGGGTTGTAGTGGTCCGGTTCGCTGTGTACTGCTACGGCCTTCCTTTCTGCCGGAAACGGGCTCTTGGGCTTTACTGTCTGGGACCCGGAGTCGGCGAGGTTACTTTGAGTAAATTAGAGTGTTCAAAGCAAGCTTACGCTCTGAATACATTAGCATGGAATAACACGATAGGACTCTGGCCTATCTTGTTGGTCTGTAGGACTGGAGTAATGATTAAGAGGGACAGTCGGGGGCATTCGTATTTCATTGTCAGAGGTGAAATTCTTGGATTTATGAAAGACGAACTTCTGCGAAAGCANTTGCCAAGGATGTTTTCATTAATCAAGAACGAAAGTTGGGGGCTCGAANANNANTANANANNGNCGNANNCTCNNCCNTAANCGANGNNNNNNNNGNANNNNNNNNNGNNCTTTNGANGA'
p126
sg8
S'frwdrev'
p127
sg10
I01
sg11
g12
sg13
I01
sg14
(lp128
(dp129
g4
g12
sg6
g12
sg8
S'file'
p130
sg10
I00
sg11
g12
sg13
I00
sg14
(lp131
sg19
I00
sg20
I21
sg21
S'gear_PAN1915_20210321C4-chloro18SF.ab1'
p132
sa(dp133
g4
g12
sg6
g12
sg8
S'file'
p134
sg10
I00
sg11
g12
sg13
I00
sg14
(lp135
sg19
I01
sg20
I22
sg21
S'gear_PAN1915_20210321C4-chloro18SMidR.ab1'
p136
sasg19
I00
sg20
I20
sg21
S'gear_PAN1915_JA3-21C4_18SA'
p137
sa(dp138
g4
S'                                                                                                                                                                                NCNCGATAGGNNTNTGNNNNNTCTTGTNGNTCTGTAGGACNGGAGTANNGATTAAGAGGNACNNTCGGGGGCATTCGTATTTCATTGTCAGAGGTGAAATTCTTGGATTTATGAAAGACGAACTTCTGCGAAAGCATTTGCCAAGGATGTTTTCATTAATCAAGAACGAAAGTTGGGGGCTCGAAGACGATTAGATACCGTCGTAGTCTCAACCATAAACGATGCCGACTAGGGATTGGCAGGTGTTCTTTTGATGACCCTGCCAGCACCTTATGAGAAATCAAAGTTTTTGGGTTCCGGGGGGAGTATGGTCGCAAGGCTGAAACTTAAAGGAATTGACGGAAGGGCACCACCAGGCGTGGAGCCTGCGGCTTAATTTGACTCAACACGGGAAAACTTACCAGGTCCAGACACGGGGAGGATTGACAGATTGAGAGCTCTTTCTTGATTCTGTGGGTGGTGGTGCATGGCCGTTCTTAGTTGGTGGGTTGCCTTGTCAGGTTGATTCCGGTAACGAACGAGACCTCAGCCTGCTAAATAGTCACGTCTGCCTCTCGCAGACGGCCGACTTCTTAGAGGGACTATTGTCGTTTAGGCAATGGAAGTATGAGGCAATAACAGGTCTGTGATGCCCTTAGATGTTCTGGGCCGCACGCGCGCTACACTGATGCGTTCAACGAGCCTATCCTTGGCCGAGAGGCCCGGGTAATCTTCGAAACCGCATCGTGATGGGGATAGATTATTGCAATTATTAGTCTTCAACGAGGAATGCCTAGTAAGCGCGAGTCATCAGCTCGCGTTGATTACGTCCCTGCCCTTTGTACACACCGCCCGTCGCTCCTACCGATTGAGTGTCTTG GTGAAAACTTTGGAGCGGTTCTTACCGATGGCAACATTGGTTGGTCCTGCGAAGANGNTTGANCCCCGCCACTTANANNNANNNNAANNCGTANNNNNNTTTNCGNNNNNGAANCTGNGGAANGNNCNNTGAATCNNTCNNTCNNCNCNAANCCGTGAN                                                                                                           '
p139
sg6
S'NCNCGATAGGNNTNTGNNNNNTCTTGTNGNTCTGTAGGACNGGAGTANNGATTAAGAGGNACNNTCGGGGGCATTCGTATTTCATTGTCAGAGGTGAAATTCTTGGATTTATGAAAGACGAACTTCTGCGAAAGCATTTGCCAAGGATGTTTTCATTAATCAAGAACGAAAGTTGGGGGCTCGAAGACGATTAGATACCGTCGTAGTCTCAACCATAAACGATGCCGACTAGGGATTGGCAGGTGTTCTTTTGATGACCCTGCCAGCACCTTATGAGAAATCAAAGTTTTTGGGTTCCGGGGGGAGTATGGTCGCAAGGCTGAAACTTAAAGGAATTGACGGAAGGGCACCACCAGGCGTGGAGCCTGCGGCTTAATTTGACTCAACACGGGAAAACTTACCAGGTCCAGACACGGGGAGGATTGACAGATTGAGAGCTCTTTCTTGATTCTGTGGGTGGTGGTGCATGGCCGTTCTTAGTTGGTGGGTTGCCTTGTCAGGTTGATTCCGGTAACGAACGAGACCTCAGCCTGCTAAATAGTCACGTCTGCCTCTCGCAGACGGCCGACTTCTTAGAGGGACTATTGTCGTTTAGGCAATGGAAGTATGAGGCAATAACAGGTCTGTGATGCCCTTAGATGTTCTGGGCCGCACGCGCGCTACACTGATGCGTTCAACGAGCCTATCCTTGGCCGAGAGGCCCGGGTAATCTTCGAAACCGCATCGTGATGGGGATAGATTATTGCAATTATTAGTCTTCAACGAGGAATGCCTAGTAAGCGCGAGTCATCAGCTCGCGTTGATTACGTCCCTGCCCTTTGTACACACCGCCCGTCGCTCCTACCGATTGAGTGTCTTGGTGAAAACTTTGGAGCGGTTCTTACCGATGGCAACATTGGTTGGTCCTGCGAAGANGNTTGANCCCCGCCACTTANANNNANNNNAANNCGTANNNNNNTTTNCGNNNNNGAANCTGNGGAANGNNCNNTGAATCNNTCNNTCNNCNCNAANCCGTGAN'
p140
sg8
S'frwdrev'
p141
sg10
I01
sg11
g12
sg13
I01
sg14
(lp142
(dp143
g4
g12
sg6
g12
sg8
S'file'
p144
sg10
I00
sg11
g12
sg13
I00
sg14
(lp145
sg19
I00
sg20
I24
sg21
S'gear_PAN1915_20210321C4-chloro18SMidF.ab1'
p146
sa(dp147
g4
g12
sg6
g12
sg8
S'file'
p148
sg10
I00
sg11
g12
sg13
I00
sg14
(lp149
sg19
I01
sg20
I25
sg21
S'gear_PAN1915_20210321C4-chloro18SR_set2.ab1'
p150
sasg19
I00
sg20
I23
sg21
S'gear_PAN1915_JA3-21C4_18SB'
p151
sasS'formatversion'
p152
S'0.9'
p153
sS'consseqsettings'
p154
(dp155
S'consensus_algorithm'
p156
S'Bayesian'
p157
sS'do_qualitytrim'
p158
I01
sS'qualitytrim_winsize'
p159
I10
sS'primermatch_threshold'
p160
F0.8
sS'trim_endgaps'
p161
I00
sS'min_confscore'
p162
I30
sS'forward_primer'
p163
g12
sS'reverse_primer'
p164
g12
sS'qualitytrim_basecnt'
p165
I8
sS'trim_consensus'
p166
I01
sS'trim_primers'
p167
I00
ssS'properties'
p168
(dp169
S'fwd_trace_searchstr'
p170
S'_F'
p171
sS'rev_trace_searchstr'
p172
S'_R'
p173
sS'trace_file_dir'
p174
S'.'
p175
ss.