(dp0
S'items'
p1
(lp2
(dp3
S'fullcons'
p4
S'                                                                                          TTNGTATNTCATTGTCANAGGTGAAATTCTTGGATTTATGAAAGACGAACTTCTGCGAAAGCATTTGCCAAGGATGTTTTCATTAATCAAGAACGAAAGTTGGGGGCTCGAAGACGATTAGATACCGTCGTAGTCTCAACCATAAACGATGCCGACTAGGGATTGGCAGGTGTTCTTTTGATGACCCTGCCAGCACCTTATGAGAAATCAAAGTTTTTGGGTTCCGGGGGGAGTATGGTCGCAAGGCTGAAACTTAAAGGAATTGACGGAAGGGCACCACCAGGCGTGGAGCCTGCGGCTTAATTTGACTCAACACGGGAAAACTTACCAGGTCCAGACACGGGGAGGATTGACAGATTGAGAGCTCTTTCTTGATTCTGTGGGTGGTGGTGCATGGCCGTTCTTAGTTGGTGGGTTGCCTTGTCAGGTTGATTCCGGTAACGAACGAGACCTCAGCCTGCTAAATAGTCACGTCTGCCTCTCGCAGACGGCCGACTTCTTAGAGGGACTATTGTCGTTTAGGCAATGGAAGTATGAGGCAATAACAGGTCTGTGATGCCCTTAGATGTTCTGGGCCGCACGCGCGCTACACTGATGCGTTCAACGAGCCTATCCTTGGCCGAGAGGCCCGGGTAATCTTCGAAACCGCATCGTGATGGGGATAGATTATTGCAATTATTAGTCTTCAACGAGGAATGCCTAGTAAGCGCGAGTCATCAGCTCGCGTTGATTACGTCCCTGCCCTTTGTACACACCGCCCGTCGCTCCTACCGATTGAGTGTCTTGGTGAAAACTTTGGAGCGGTTCTTACCGATGGCAACATTGGTTGGNCCTGCGAAGATGNTTGAANCCCGCCACTT                                                                                             '
p5
sS'compactcons'
p6
S'TTNGTATNTCATTGTCANAGGTGAAATTCTTGGATTTATGAAAGACGAACTTCTGCGAAAGCATTTGCCAAGGATGTTTTCATTAATCAAGAACGAAAGTTGGGGGCTCGAAGACGATTAGATACCGTCGTAGTCTCAACCATAAACGATGCCGACTAGGGATTGGCAGGTGTTCTTTTGATGACCCTGCCAGCACCTTATGAGAAATCAAAGTTTTTGGGTTCCGGGGGGAGTATGGTCGCAAGGCTGAAACTTAAAGGAATTGACGGAAGGGCACCACCAGGCGTGGAGCCTGCGGCTTAATTTGACTCAACACGGGAAAACTTACCAGGTCCAGACACGGGGAGGATTGACAGATTGAGAGCTCTTTCTTGATTCTGTGGGTGGTGGTGCATGGCCGTTCTTAGTTGGTGGGTTGCCTTGTCAGGTTGATTCCGGTAACGAACGAGACCTCAGCCTGCTAAATAGTCACGTCTGCCTCTCGCAGACGGCCGACTTCTTAGAGGGACTATTGTCGTTTAGGCAATGGAAGTATGAGGCAATAACAGGTCTGTGATGCCCTTAGATGTTCTGGGCCGCACGCGCGCTACACTGATGCGTTCAACGAGCCTATCCTTGGCCGAGAGGCCCGGGTAATCTTCGAAACCGCATCGTGATGGGGATAGATTATTGCAATTATTAGTCTTCAACGAGGAATGCCTAGTAAGCGCGAGTCATCAGCTCGCGTTGATTACGTCCCTGCCCTTTGTACACACCGCCCGTCGCTCCTACCGATTGAGTGTCTTGGTGAAAACTTTGGAGCGGTTCTTACCGATGGCAACATTGGTTGGNCCTGCGAAGATGNTTGAANCCCGCCACTT'
p7
sS'itemtype'
p8
S'frwdrev'
p9
sS'useseq'
p10
I01
sS'notes'
p11
S''
p12
sS'hasseq'
p13
I01
sS'children'
p14
(lp15
(dp16
g4
g12
sg6
g12
sg8
S'file'
p17
sg10
I00
sg11
g12
sg13
I00
sg14
(lp18
sS'isreverse'
p19
I01
sS'id'
p20
I1
sS'name'
p21
S'cog_P6618_5-4T3-18SRSet1.ab1'
p22
sa(dp23
g4
g12
sg6
g12
sg8
S'file'
p24
sg10
I00
sg11
g12
sg13
I00
sg14
(lp25
sg19
I00
sg20
I2
sg21
S'cog_P6618_5-4T3-mid18SF.ab1'
p26
sasg19
I00
sg20
I0
sg21
S'cog_p6618_5-4T3_18SB'
p27
sa(dp28
g4
g12
sg6
g12
sg8
S'file'
p29
sg10
I00
sg11
g12
sg13
I00
sg14
(lp30
sg19
I01
sg20
I3
sg21
S'cog_P6618_5-4T3-mid18SR.ab1'
p31
sa(dp32
g4
S'                                        ANTCAGTTATAGTTTATTTGATGATACTTACTACTCGGATAACCGTAGTAATTCTAGAGCTAATACGTGCGCACATCCCGACTTCTGGAAGGGACGTATTTATTAGATAAAAGGCCAGCCGAGCTTGCTCGACTTGAGGTGAATCATGATAACTCCACGAATCGCACGGCCTCGCGCCGGCGATGTTTCTTTCAAATTTCTGCCCTATCAACTTTCGATGGTAGGATAGAGGCCTACCATGGTGGTAACGGGTGACGGAGGATTAGGGTTCGATTCCGGAGAGGGAGCCTGAGAAATGGCTACCACATCCAAGGAAGGCAGCAGGCGCGCAAATTACCCAATCCCGACACGGGGAGGTAGTGACAATAAATAACAATACCGGGCATTTTATGTCTGGTAATTGGAATGAGCACAATCTAAATCCCTTAACGAGGATCCATTGGAGGGCAAGTCTGGTGCCAGCAGCCGCGGTAATTCCAGCTCCAATAGCGTATATTTAAGTTGTTGCAGTTAAAAAGCTCGTAGTTGGATTTCGGATGGGTAGCAATGGTCCGGTTCGCTGTGTACTGTTGCTGCCTATCTTTCTGCCGGAAATGGGATCTTAGGCTTTACTGTCTGAGACCTAGAGTCGGCGAGGTTACTTTGAGTAAATTAGAGTGTTCAAAGCAAGCTTACGCTCTGAATACATTAGCATGGAATAACACAATAGGACTTCGGCCTATCTTGTTGGTCTGTAGGACTGAAGTAATGATTAAGAGGGACAGTCGGGGGCATTCGTATTTCATTGTCAGAGGTGAAATTCTTGGATTTATGAAAGACGAACTTCTGCGAAAGCATTTGCCAAGGATGTTTTCATTANTCNAGAACNAAAGTTGGGGGNTCGNANANNANTANNNANCGTCGNANTCTC                                                                '
p33
sg6
S'ANTCAGTTATAGTTTATTTGATGATACTTACTACTCGGATAACCGTAGTAATTCTAGAGCTAATACGTGCGCACATCCCGACTTCTGGAAGGGACGTATTTATTAGATAAAAGGCCAGCCGAGCTTGCTCGACTTGAGGTGAATCATGATAACTCCACGAATCGCACGGCCTCGCGCCGGCGATGTTTCTTTCAAATTTCTGCCCTATCAACTTTCGATGGTAGGATAGAGGCCTACCATGGTGGTAACGGGTGACGGAGGATTAGGGTTCGATTCCGGAGAGGGAGCCTGAGAAATGGCTACCACATCCAAGGAAGGCAGCAGGCGCGCAAATTACCCAATCCCGACACGGGGAGGTAGTGACAATAAATAACAATACCGGGCATTTTATGTCTGGTAATTGGAATGAGCACAATCTAAATCCCTTAACGAGGATCCATTGGAGGGCAAGTCTGGTGCCAGCAGCCGCGGTAATTCCAGCTCCAATAGCGTATATTTAAGTTGTTGCAGTTAAAAAGCTCGTAGTTGGATTTCGGATGGGTAGCAATGGTCCGGTTCGCTGTGTACTGTTGCTGCCTATCTTTCTGCCGGAAATGGGATCTTAGGCTTTACTGTCTGAGACCTAGAGTCGGCGAGGTTACTTTGAGTAAATTAGAGTGTTCAAAGCAAGCTTACGCTCTGAATACATTAGCATGGAATAACACAATAGGACTTCGGCCTATCTTGTTGGTCTGTAGGACTGAAGTAATGATTAAGAGGGACAGTCGGGGGCATTCGTATTTCATTGTCAGAGGTGAAATTCTTGGATTTATGAAAGACGAACTTCTGCGAAAGCATTTGCCAAGGATGTTTTCATTANTCNAGAACNAAAGTTGGGGGNTCGNANANNANTANNNANCGTCGNANTCTC'
p34
sg8
S'frwdrev'
p35
sg10
I01
sg11
g12
sg13
I01
sg14
(lp36
(dp37
g4
g12
sg6
g12
sg8
S'file'
p38
sg10
I00
sg11
g12
sg13
I00
sg14
(lp39
sg19
I00
sg20
I4
sg21
S'football_PAN1918_5-25L2-18SF.ab1'
p40
sa(dp41
g4
g12
sg6
g12
sg8
S'file'
p42
sg10
I00
sg11
g12
sg13
I00
sg14
(lp43
sg19
I01
sg20
I6
sg21
S'football_PAN1918_5-25L2-mid18SR.ab1'
p44
sasg19
I00
sg20
I13
sg21
S'football_PAN1918_5-25L2_18SA'
p45
sa(dp46
g4
g12
sg6
g12
sg8
S'file'
p47
sg10
I00
sg11
g12
sg13
I00
sg14
(lp48
sg19
I00
sg20
I5
sg21
S'football_PAN1918_5-25L2-mid18SF.ab1'
p49
sa(dp50
g4
S'                                             CAGTTATAGTTTATTTGATGATACTTACTACTCGGATAACCGTAGTAATTCTAGAGCTAATACGTGCGCACATCCCGACTTCTGGAAGGGACGTATTTATTAGATAAAAGGCCAGCCGAGCTTGCTCGACTTGAGGTGAATCATGATAACTCCACGAATCGCACGGCCTCGCGCCGGCGATGTTTCTTTCAAATTTCTGCCCTATCAACTTTCGATGGTAGGATAGAGGCCTACCATGGTGGTAACGGGTGACGGAGGATTAGGGTTCGATTCCGGAGAGGGAGCCTGAGAAATGGCTACCACATCCAAGGAAGGCAGCAGGCGCGCAAATTACCCAATCCCGACACGGGGAGGTAGTGACAATAAATAACAATACCGGGCATTTTATGTCTGGTAATTGGAATGAGCACAATCTAAATCCCTTAACGAGGATCCATTGGAGGGCAAGTCTGGTGCCAGCAGCCGCGGTAATTCCAGCTCCAATAGCGTATATTTAAGTTGTTGCAGTTAAAAAGCTCGTAGTTGGATTTCGGATGGGTAGCAATGGTCCGGTTCGCTGTGTACTGTTGCTGCCTATCTTTCTGCCGGAAATGGGATCTTAGGCTTTACTGTCTGAGACCTAGAGTCGGCGAGGTTACTTTGAGTAAATTAGAGTGTTCAAAGCAAGCTTACGCTCTGAATACATTAGCATGGAATAACACAATAGGACTTCGGCCTATCTTGTTGGTCTGTAGGACTGAAGTAATGATTAAGAGGGACAGTCGGGGGCATTCGTATTTCATTGTCAGAGGTGAAATTCTTGGATTTATGAAAGACGAACTTCTGCGAAAGCATTTGCCAAGGATGNTTTCATTAATCNAGAACGAAAGTTGGGGGNTCGAA                                                                          '
p51
sg6
S'CAGTTATAGTTTATTTGATGATACTTACTACTCGGATAACCGTAGTAATTCTAGAGCTAATACGTGCGCACATCCCGACTTCTGGAAGGGACGTATTTATTAGATAAAAGGCCAGCCGAGCTTGCTCGACTTGAGGTGAATCATGATAACTCCACGAATCGCACGGCCTCGCGCCGGCGATGTTTCTTTCAAATTTCTGCCCTATCAACTTTCGATGGTAGGATAGAGGCCTACCATGGTGGTAACGGGTGACGGAGGATTAGGGTTCGATTCCGGAGAGGGAGCCTGAGAAATGGCTACCACATCCAAGGAAGGCAGCAGGCGCGCAAATTACCCAATCCCGACACGGGGAGGTAGTGACAATAAATAACAATACCGGGCATTTTATGTCTGGTAATTGGAATGAGCACAATCTAAATCCCTTAACGAGGATCCATTGGAGGGCAAGTCTGGTGCCAGCAGCCGCGGTAATTCCAGCTCCAATAGCGTATATTTAAGTTGTTGCAGTTAAAAAGCTCGTAGTTGGATTTCGGATGGGTAGCAATGGTCCGGTTCGCTGTGTACTGTTGCTGCCTATCTTTCTGCCGGAAATGGGATCTTAGGCTTTACTGTCTGAGACCTAGAGTCGGCGAGGTTACTTTGAGTAAATTAGAGTGTTCAAAGCAAGCTTACGCTCTGAATACATTAGCATGGAATAACACAATAGGACTTCGGCCTATCTTGTTGGTCTGTAGGACTGAAGTAATGATTAAGAGGGACAGTCGGGGGCATTCGTATTTCATTGTCAGAGGTGAAATTCTTGGATTTATGAAAGACGAACTTCTGCGAAAGCATTTGCCAAGGATGNTTTCATTAATCNAGAACGAAAGTTGGGGGNTCGAA'
p52
sg8
S'frwdrev'
p53
sg10
I01
sg11
g12
sg13
I01
sg14
(lp54
(dp55
g4
g12
sg6
g12
sg8
S'file'
p56
sg10
I00
sg11
g12
sg13
I00
sg14
(lp57
sg19
I00
sg20
I7
sg21
S'nowall_BAK1918_5-18L1-18SF.ab1'
p58
sa(dp59
g4
g12
sg6
g12
sg8
S'file'
p60
sg10
I00
sg11
g12
sg13
I00
sg14
(lp61
sg19
I01
sg20
I9
sg21
S'nowall_BAK1918_5-18L1-mid18SR.ab1'
p62
sasg19
I00
sg20
I14
sg21
S'nowall_BAK1918_5-18L1_18SA'
p63
sa(dp64
g4
g12
sg6
g12
sg8
S'file'
p65
sg10
I00
sg11
g12
sg13
I00
sg14
(lp66
sg19
I00
sg20
I8
sg21
S'nowall_BAK1918_5-18L1-mid18SF.ab1'
p67
sa(dp68
g4
S'                                           CAGTNATAGTTTATTTGATGATACTTACTACTCGGATAACCGTAGTAATTCTAGAGCTAATACGTGCGCACATCCCGACTTCTGGAAGGGACGTATTTATTAGATAAAAGGCCAGCCGAGCTTGCTCGACTTGAGGTGAATCATGATAACTCCACGAATCGCATGGCCTCGTGCCGGCGATGTTTCTTTCAAATTTCTGCCCTATCAACTTTCGATGGTAGGATAGAGGCCTACCATGGTGGTAACGGGTGACGGAGGATTAGGGTTCGATTCCGGAGAGGGAGCCTGAGAAATGGCTACCACATCCAAGGAAGGCAGCAGGCGCGCAAATTACCCAATCCCGACACGGGGAGGTAGTGACAATAAATAACAATACCGGGCATTTTATGTCTGGTAATTGGAATGAGCACAATCTAAATCCCTTAACGAGGATCCATTGGAGGGCAAGTCTGGTGCCAGCAGCCGCGGTAATTCCAGCTCCAATAGCGTATATTTAAGTTGTTGCAGTTAAAAAGCTCGTAGTTGGATTTCGGATGGGTAGCAATGGTCCGGTTCGCTGTGTACTGTTGCTGCCTATCTTTCTGCCGGAAATGGGATCTTAGGCTTTACTGTCTGAGACCTAGAGTCGGCGAGGTTACTTTGAGTAAATTAGAGTGTTCAAAGCAAGCTTACGCTCTGAATACATTAGCATGGAATAACACAATAGGACTTCGGCCTATCTTGTTGGTCTGTAGGACTGAAGTAATGATTAAGAGGGACAGTCGGGGGCATTCGTATTTCATTGTCAGAGGTGAAATTCTTGGATTTATGAAAGACGAACTTCTGCGAAAGCATTTGCCAAGGATGTTTTCATTAATCNAGAACGAAAGTTGGGGGNTCGAAGANNANTANNTANCGTCGNANTCTCNACCNTNANCGNNGNCGACTANGGATTN   '
p69
sg6
S'CAGTNATAGTTTATTTGATGATACTTACTACTCGGATAACCGTAGTAATTCTAGAGCTAATACGTGCGCACATCCCGACTTCTGGAAGGGACGTATTTATTAGATAAAAGGCCAGCCGAGCTTGCTCGACTTGAGGTGAATCATGATAACTCCACGAATCGCATGGCCTCGTGCCGGCGATGTTTCTTTCAAATTTCTGCCCTATCAACTTTCGATGGTAGGATAGAGGCCTACCATGGTGGTAACGGGTGACGGAGGATTAGGGTTCGATTCCGGAGAGGGAGCCTGAGAAATGGCTACCACATCCAAGGAAGGCAGCAGGCGCGCAAATTACCCAATCCCGACACGGGGAGGTAGTGACAATAAATAACAATACCGGGCATTTTATGTCTGGTAATTGGAATGAGCACAATCTAAATCCCTTAACGAGGATCCATTGGAGGGCAAGTCTGGTGCCAGCAGCCGCGGTAATTCCAGCTCCAATAGCGTATATTTAAGTTGTTGCAGTTAAAAAGCTCGTAGTTGGATTTCGGATGGGTAGCAATGGTCCGGTTCGCTGTGTACTGTTGCTGCCTATCTTTCTGCCGGAAATGGGATCTTAGGCTTTACTGTCTGAGACCTAGAGTCGGCGAGGTTACTTTGAGTAAATTAGAGTGTTCAAAGCAAGCTTACGCTCTGAATACATTAGCATGGAATAACACAATAGGACTTCGGCCTATCTTGTTGGTCTGTAGGACTGAAGTAATGATTAAGAGGGACAGTCGGGGGCATTCGTATTTCATTGTCAGAGGTGAAATTCTTGGATTTATGAAAGACGAACTTCTGCGAAAGCATTTGCCAAGGATGTTTTCATTAATCNAGAACGAAAGTTGGGGGNTCGAAGANNANTANNTANCGTCGNANTCTCNACCNTNANCGNNGNCGACTANGGATTN'
p70
sg8
S'frwdrev'
p71
sg10
I01
sg11
g12
sg13
I01
sg14
(lp72
(dp73
g4
g12
sg6
g12
sg8
S'file'
p74
sg10
I00
sg11
g12
sg13
I00
sg14
(lp75
sg19
I00
sg20
I10
sg21
S'spiky_ECH2201_6-21L1-18SF.ab1'
p76
sa(dp77
g4
g12
sg6
g12
sg8
S'file'
p78
sg10
I00
sg11
g12
sg13
I00
sg14
(lp79
sg19
I01
sg20
I12
sg21
S'spiky_ECH2201_6-21L1-mid18SR.ab1'
p80
sasg19
I00
sg20
I15
sg21
S'spiky_ECH2201_6-21L1_18SA'
p81
sa(dp82
g4
g12
sg6
g12
sg8
S'file'
p83
sg10
I00
sg11
g12
sg13
I00
sg14
(lp84
sg19
I00
sg20
I11
sg21
S'spiky_ECH2201_6-21L1-mid18SF.ab1'
p85
sasS'formatversion'
p86
S'0.9'
p87
sS'consseqsettings'
p88
(dp89
S'consensus_algorithm'
p90
S'Bayesian'
p91
sS'do_qualitytrim'
p92
I01
sS'qualitytrim_winsize'
p93
I10
sS'primermatch_threshold'
p94
F0.8
sS'trim_endgaps'
p95
I00
sS'min_confscore'
p96
I30
sS'forward_primer'
p97
g12
sS'reverse_primer'
p98
g12
sS'qualitytrim_basecnt'
p99
I8
sS'trim_consensus'
p100
I01
sS'trim_primers'
p101
I00
ssS'properties'
p102
(dp103
S'fwd_trace_searchstr'
p104
S'_F'
p105
sS'rev_trace_searchstr'
p106
S'_R'
p107
sS'trace_file_dir'
p108
S'.'
p109
ss.