(dp0
S'items'
p1
(lp2
(dp3
S'fullcons'
p4
S'                                                                                              TACGCTNTGAATACATTAGCATGGAATAACGCGATAGGACTCTGGCCTATCTTGTTGGTCTGTAGGACTGGAGTAATGATTAAGAGGGACAGTCGGGGGCATTCGTATTTCATTGTCAGAGGTGAAATTCTTGGATTTATGAAAGACGAACTTCTGCGAAAGCATTTGCCAAGGATGTTTTCATTAATCAAGAACGAAAGTTGGGGGCTCGAAGACGATTAGATACCGTCGTAGTCTCAACCATAAACGATGCCGACTAGGGATTGGCGGGTGTTTCGTTGATGACCCCGCCAGCACCTTATGAGAAATCAAAGTCTTTGGGTTCCGGGGGGAGTATGGTCGCAAGGCTGAAACTTAAAGGAATTGACGGAAGGGCACCACCAGGCGTGGAGCCTGCGGCTTAATTTGACTCAACACGGGAAAACTTACCAGGTCCAGACACGGGAAGGATTGACAGATTGAGAGCTCTTTCTTGATTCTGTGGGTGGTGGTGCATGGCCGTTCTTAGTTGGTGGGTTGCCTTGTCAGGTTGATTCCGGTAACGAACGAGACCTCAGCCTGCTAAATAGTCACAGTTGCCTCTGGCAGCTGGCTGACTTCTTAGAGGGACTATTGTCGTTTAGGCAATGGAAGTATGAGGCAATAACAGGTCTGTGATGCCCTTAGATGTTCTGGGCCGCACGCGCGCTACACTGATGCATTCAACAAGCCTATCCTTGGCCGAGAGGCCCGGGTAATCTTTGAAACTGCATCGTGA TGGGGATAGATTATTGCAATTATTAGTCTTCAACGAGGANNGCCTAGTAAGCGCGAGTCATCAGCTCGCN                    '
p5
sS'compactcons'
p6
S'TACGCTNTGAATACATTAGCATGGAATAACGCGATAGGACTCTGGCCTATCTTGTTGGTCTGTAGGACTGGAGTAATGATTAAGAGGGACAGTCGGGGGCATTCGTATTTCATTGTCAGAGGTGAAATTCTTGGATTTATGAAAGACGAACTTCTGCGAAAGCATTTGCCAAGGATGTTTTCATTAATCAAGAACGAAAGTTGGGGGCTCGAAGACGATTAGATACCGTCGTAGTCTCAACCATAAACGATGCCGACTAGGGATTGGCGGGTGTTTCGTTGATGACCCCGCCAGCACCTTATGAGAAATCAAAGTCTTTGGGTTCCGGGGGGAGTATGGTCGCAAGGCTGAAACTTAAAGGAATTGACGGAAGGGCACCACCAGGCGTGGAGCCTGCGGCTTAATTTGACTCAACACGGGAAAACTTACCAGGTCCAGACACGGGAAGGATTGACAGATTGAGAGCTCTTTCTTGATTCTGTGGGTGGTGGTGCATGGCCGTTCTTAGTTGGTGGGTTGCCTTGTCAGGTTGATTCCGGTAACGAACGAGACCTCAGCCTGCTAAATAGTCACAGTTGCCTCTGGCAGCTGGCTGACTTCTTAGAGGGACTATTGTCGTTTAGGCAATGGAAGTATGAGGCAATAACAGGTCTGTGATGCCCTTAGATGTTCTGGGCCGCACGCGCGCTACACTGATGCATTCAACAAGCCTATCCTTGGCCGAGAGGCCCGGGTAATCTTTGAAACTGCATCGTGATGGGGATAGATTATTGCAATTATTAGTCTTCAACGAGGANNGCCTAGTAAGCGCGAGTCATCAGCTCGCN'
p7
sS'itemtype'
p8
S'frwdrev'
p9
sS'useseq'
p10
I01
sS'notes'
p11
S''
p12
sS'hasseq'
p13
I01
sS'children'
p14
(lp15
(dp16
g4
g12
sg6
g12
sg8
S'file'
p17
sg10
I00
sg11
g12
sg13
I00
sg14
(lp18
sS'isreverse'
p19
I01
sS'id'
p20
I1
sS'name'
p21
S'bigSphere_BUG1902_7-21L1-snow18sSeqR.ab1'
p22
sa(dp23
g4
g12
sg6
g12
sg8
S'file'
p24
sg10
I00
sg11
g12
sg13
I00
sg14
(lp25
sg19
I00
sg20
I2
sg21
S'../CE_30-766753846/bigSphere_BUG1902_7-21L1-chloro18SMidF.ab1'
p26
sasg19
I00
sg20
I0
sg21
S'bigSphere_BUG1902_7-21L1_18SB'
p27
sa(dp28
g4
S'                                                                                                                                                                  NNACGCGATANNANTNNGGCNTATNTNGTTGGTNTGTAGGANNGGAGTAATGATTAAGAGGGACAGTCGGGGG CATTCGTATTTCATTGTCAGAGGTGAAATTCTTGGATTTATGAAAGACGAACTTCTGCGAAAGCATTTGCCAAGGATGTTTTCATTAATCAAGAACGAAAGTTGGGGGCTCGAAGACGATTAGATACCGTCGTAGTCTCAACCATAAACGATGCCGACTAGGGATTGGCGGGTGTTTCGTTGATGACCCCGCCAGCACCTTATGAGAAATCAAAGTCTTTGGGTTCCGGGGGGAGTATGGTCGCAAGGCTGAAACTTAAAGGAATTGACGGAAGGGCACCACCAGGCGTGGAGCCTGCGGCTTAATTTGACTCAACACGGGAAAACTTACCAGGTCCAGACACGGGAAGGATTGACAGATTGAGAGCTCTTTCTTGATTCTGTGGGTGGTGGTGCATGGCCGTTCTTAGTTGGTGGGTTGCCTTGTCAGGTTGATTCCGGTAACGAACGAGACCTCAGCCTGCTAAATAGTCACAGTTGCCTCTGGCAGCTGGCTGACTTCTTAGAGGGACTATTGTCGTTTAGGCAATGGAAGTATGAGGCAATAACAGGTCTGTGATGCCCTTAGATGTTCTGGGCCGCACGCGCGCTACACTGATGCATTCAACAAGCCTATCCTTGGCCGAGAGGCCCGGGTAATCTTTGAAACTGCATCNNGANGNGGATA                                                                                '
p29
sg6
S'NNACGCGATANNANTNNGGCNTATNTNGTTGGTNTGTAGGANNGGAGTAATGATTAAGAGGGACAGTCGGGGGCATTCGTATTTCATTGTCAGAGGTGAAATTCTTGGATTTATGAAAGACGAACTTCTGCGAAAGCATTTGCCAAGGATGTTTTCATTAATCAAGAACGAAAGTTGGGGGCTCGAAGACGATTAGATACCGTCGTAGTCTCAACCATAAACGATGCCGACTAGGGATTGGCGGGTGTTTCGTTGATGACCCCGCCAGCACCTTATGAGAAATCAAAGTCTTTGGGTTCCGGGGGGAGTATGGTCGCAAGGCTGAAACTTAAAGGAATTGACGGAAGGGCACCACCAGGCGTGGAGCCTGCGGCTTAATTTGACTCAACACGGGAAAACTTACCAGGTCCAGACACGGGAAGGATTGACAGATTGAGAGCTCTTTCTTGATTCTGTGGGTGGTGGTGCATGGCCGTTCTTAGTTGGTGGGTTGCCTTGTCAGGTTGATTCCGGTAACGAACGAGACCTCAGCCTGCTAAATAGTCACAGTTGCCTCTGGCAGCTGGCTGACTTCTTAGAGGGACTATTGTCGTTTAGGCAATGGAAGTATGAGGCAATAACAGGTCTGTGATGCCCTTAGATGTTCTGGGCCGCACGCGCGCTACACTGATGCATTCAACAAGCCTATCCTTGGCCGAGAGGCCCGGGTAATCTTTGAAACTGCATCNNGANGNGGATA'
p30
sg8
S'frwdrev'
p31
sg10
I01
sg11
g12
sg13
I01
sg14
(lp32
(dp33
g4
g12
sg6
g12
sg8
S'file'
p34
sg10
I00
sg11
g12
sg13
I00
sg14
(lp35
sg19
I01
sg20
I4
sg21
S'bigSphere_CAT20TR8_7-22L3-snow18sSeqR.ab1'
p36
sa(dp37
g4
g12
sg6
g12
sg8
S'file'
p38
sg10
I00
sg11
g12
sg13
I00
sg14
(lp39
sg19
I00
sg20
I5
sg21
S'../CE_30-794584119/7-22L3_bigSphere_CAT20TR8-chloro18sMidF.ab1'
p40
sasg19
I00
sg20
I3
sg21
S'bigSphere_CAT20TR8_7-22L3_18SB'
p41
sa(dp42
g4
S'                                    NNNNNAGGTTACTTTGAGTAAATTAGAGTGTTCAAAGCAAGCTTAGCGTCTGAATACATTAGCATGGAATAACACGNTAGGNNTCTGGCNTATCTTGTTGGTCNGTAGGACTGGAGTAATGATTAAGANGGACNGTCGNGGGCATTCGTATTTCATTGTCAGAGGTGAAATTCTTGGATTTATGAAAGACGAACTTCTGCGAAAGCATTTGCCAAGGATGTTTTCATTAATCAAGAACGAAAGTTGGGGGCTCGAAGACGATTAGATACCGTCGTAGTCTCAACCATAAACGATGCCGACTAGGGATTGGCAGGTGTTCTTTTGATGACCCTGCCAGCACCTTATGAGAAATCAAAGTTTTTGGGTTCCGGGGGGAGTATGGTCGCAAGGCTGAAACTTAAAGGAATTGACGGAAGGGCACCACCAGGCGTGGAGCCTGCGGCTTAATTTGACTCAACACGGGAAAACTTACCAGGTCCAGACACGGGGAGGATTGACAGATTGAGAGCTCTTTCTTGATTCTGTGGGTGGTGGTGCATGGCCGTTCTTAGTTGGTGGGTTGCCTTGTCAGGTTGATTCCGGTAACGAACGAGACCTCAGCCTGCTAAATAGTCACGTCTGCCTCTCGCAGACGGCCGACTTCTTAGAGGGACTATTGTCGTTTAGGCAATGGAAGTATGAGGCAATAACAGGTCTGTGATGCCCTTAGATGTTCTGGGCCGCACGCGCGCTACACTGATGCGTTCAACGAGCCTATCCTTGGCCGAGAGGCCCGGGTAATCTTCGAAACCGCATCGTGATGGGGANAGATTATTGCAATTATTAGTCTTCAACGAGGAATGCCTAGTAAGCGCGAGTCNTCAGCTCGCGNNNNNNNNNNNCCNNGNNNNNNATTACNTCCCTGCGTTGANTACGTCCCTGCGTTGANTACGTCCCNGCGTTGNNTACGTCCCNGNNTTGANTACGTCCCNGN                                                                                   '
p43
sg6
S'NNNNNAGGTTACTTTGAGTAAATTAGAGTGTTCAAAGCAAGCTTAGCGTCTGAATACATTAGCATGGAATAACACGNTAGGNNTCTGGCNTATCTTGTTGGTCNGTAGGACTGGAGTAATGATTAAGANGGACNGTCGNGGGCATTCGTATTTCATTGTCAGAGGTGAAATTCTTGGATTTATGAAAGACGAACTTCTGCGAAAGCATTTGCCAAGGATGTTTTCATTAATCAAGAACGAAAGTTGGGGGCTCGAAGACGATTAGATACCGTCGTAGTCTCAACCATAAACGATGCCGACTAGGGATTGGCAGGTGTTCTTTTGATGACCCTGCCAGCACCTTATGAGAAATCAAAGTTTTTGGGTTCCGGGGGGAGTATGGTCGCAAGGCTGAAACTTAAAGGAATTGACGGAAGGGCACCACCAGGCGTGGAGCCTGCGGCTTAATTTGACTCAACACGGGAAAACTTACCAGGTCCAGACACGGGGAGGATTGACAGATTGAGAGCTCTTTCTTGATTCTGTGGGTGGTGGTGCATGGCCGTTCTTAGTTGGTGGGTTGCCTTGTCAGGTTGATTCCGGTAACGAACGAGACCTCAGCCTGCTAAATAGTCACGTCTGCCTCTCGCAGACGGCCGACTTCTTAGAGGGACTATTGTCGTTTAGGCAATGGAAGTATGAGGCAATAACAGGTCTGTGATGCCCTTAGATGTTCTGGGCCGCACGCGCGCTACACTGATGCGTTCAACGAGCCTATCCTTGGCCGAGAGGCCCGGGTAATCTTCGAAACCGCATCGTGATGGGGANAGATTATTGCAATTATTAGTCTTCAACGAGGAATGCCTAGTAAGCGCGAGTCNTCAGCTCGCGNNNNNNNNNNNCCNNGNNNNNNATTACNTCCCTGCGTTGANTACGTCCCTGCGTTGANTACGTCCCNGCGTTGNNTACGTCCCNGNNTTGANTACGTCCCNGN'
p44
sg8
S'frwdrev'
p45
sg10
I01
sg11
g12
sg13
I01
sg14
(lp46
(dp47
g4
g12
sg6
g12
sg8
S'file'
p48
sg10
I00
sg11
g12
sg13
I00
sg14
(lp49
sg19
I01
sg20
I7
sg21
S'bigThickWall_BLU2203_9-28L1-snow18sSeqR.ab1'
p50
sa(dp51
g4
g12
sg6
g12
sg8
S'file'
p52
sg10
I00
sg11
g12
sg13
I00
sg14
(lp53
sg19
I00
sg20
I8
sg21
S'../CE_30-794584119/9-28L1_bigThickWall_BLU2203-chloro18sMidF.ab1'
p54
sasg19
I00
sg20
I6
sg21
S'bigThickWall_BLU2203_9-28L1_18SB'
p55
sa(dp56
g4
S'                                                                                                       GGGANNTATTTATTNNATAAAAGGCCGACCGGGCTTGCCCGACTCGCGGTGAATCATGATAACTTCACNAATCGCATGGCNTTCGTGCNGGCGATGTTTCATTCAAATTTNTGCCNTATCAACTTTCGATGGTAGGATAGAGGCNTACCATGGTGGTAACGGGTGACGGAGGATTAGGGTTCGATTCNGGAGAGGGAGCNTGNNAAANGGCTACCACATCCANNGAAGGCAGCAGGCGCGCAAATTACCCAATCNTGACACAGGGAGGTAGTGACAATAAATAACAATACCGGGCTTTTCAAGTCTGGTAATTGGAATGAGTACAATCTAAATCCCTTAACGAGGATCAATTGGAGGGCAAGTCNGGTGCCAGCANCCGCGGTAATTCCAGCTCCAATAGCGTATATTTAANTTGCTGCANTTAAAAAGCTCGTANTTGGATTTCGGANGGGTTCCGTCGGTCCGCCGTTTCGGTGTGCACTGACGGCGCCTATCTTGCTGNCGGGGACGGGCTCCTGGGCTTCACTGTCCGGGACTCGGAGTCGACGAGGTTACTTTGAGTAAATTAGAGTGTTCAAAGCANGCCTACGCTCTGAATACATTAGCATGGAATAACACGATAGGACTCTGGCCTATCTTGTTGGTCTGTAGGACCGGAGTAATGATTAAGAGGGACAGTC GGGGGCATTCGTATTT CATTGTCAGAGGTG AAATTCTTGGATTTATGAAAGACGAACTNCTGCGAAAGCATTTGCCAAGGN                   '
p57
sg6
S'GGGANNTATTTATTNNATAAAAGGCCGACCGGGCTTGCCCGACTCGCGGTGAATCATGATAACTTCACNAATCGCATGGCNTTCGTGCNGGCGATGTTTCATTCAAATTTNTGCCNTATCAACTTTCGATGGTAGGATAGAGGCNTACCATGGTGGTAACGGGTGACGGAGGATTAGGGTTCGATTCNGGAGAGGGAGCNTGNNAAANGGCTACCACATCCANNGAAGGCAGCAGGCGCGCAAATTACCCAATCNTGACACAGGGAGGTAGTGACAATAAATAACAATACCGGGCTTTTCAAGTCTGGTAATTGGAATGAGTACAATCTAAATCCCTTAACGAGGATCAATTGGAGGGCAAGTCNGGTGCCAGCANCCGCGGTAATTCCAGCTCCAATAGCGTATATTTAANTTGCTGCANTTAAAAAGCTCGTANTTGGATTTCGGANGGGTTCCGTCGGTCCGCCGTTTCGGTGTGCACTGACGGCGCCTATCTTGCTGNCGGGGACGGGCTCCTGGGCTTCACTGTCCGGGACTCGGAGTCGACGAGGTTACTTTGAGTAAATTAGAGTGTTCAAAGCANGCCTACGCTCTGAATACATTAGCATGGAATAACACGATAGGACTCTGGCCTATCTTGTTGGTCTGTAGGACCGGAGTAATGATTAAGAGGGACAGTCGGGGGCATTCGTATTTCATTGTCAGAGGTGAAATTCTTGGATTTATGAAAGACGAACTNCTGCGAAAGCATTTGCCAAGGN'
p58
sg8
S'frwdrev'
p59
sg10
I00
sg11
g12
sg13
I01
sg14
(lp60
(dp61
g4
g12
sg6
g12
sg8
S'file'
p62
sg10
I00
sg11
g12
sg13
I00
sg14
(lp63
sg19
I00
sg20
I10
sg21
S'cog_BLU2203_1-11L2-chloro18sF.ab1'
p64
sa(dp65
g4
g12
sg6
g12
sg8
S'file'
p66
sg10
I00
sg11
g12
sg13
I00
sg14
(lp67
sg19
I01
sg20
I11
sg21
S'cog_BLU2203_1-11L2-chloro18sMidR.ab1'
p68
sasg19
I00
sg20
I9
sg21
S'cog_BLU2203_1-11L2_18SA'
p69
sa(dp70
g4
S'                                                                                                                                                            TC GGGGCANTCGTATTTCATTGTCAGAGGTGAAATTCTTGGATTTATGAAAGACGAACTTNTGCGAAAGCATTTNGCCAAGGATGTTTTCATTAATCAAGAACGAAA GTTGGGGGCTC GAAGACGATTAGATACCGTCNTAGTCTCAACCATAAACGATGCC GACTAGGGATTGG NGGNTGNTTTNTTGATGACNTCNCCAGCACCTTATGAGAAATCAAAGTTTTTGGGTTCCGGGGNGANTATGGTCGCAAGGCTGAAACTTAAAGGAATTGACGGAAGGGCACCACCAGGCNTGNANCCTGCGGCTTAATTTGACTCAACACGGGAAAACTTACCAGGTCCAGACANNGNGAGGATTGACAGATTGAGAGCTCTTTCTTGATTCTNTGGGTGGTGGTGCATGGCCGTTCTTAGTTGGTGGGTTGCCTTGTCAGGTTGATTCCGGTAACGAACGAGACCTCANCCTGCTAAATAGTCACG TCNGNNTNTNNCNGNNGGCCGACTTCTTAGAGGGACTNTTGNCGNNTANNCAATGGAAGTNTGAGGCAATAACAGGTCTGTGATGCCCTTAGATGTTCTGGGCCGCACGCGCGTTACACTGATGCNTTCAACGAGCCTATCCTTGNCCGAGANGCCCGGGTAATCNNCNAAACNGCATCNTGATNGGG                                                                                   '
p71
sg6
S'TCGGGGCANTCGTATTTCATTGTCAGAGGTGAAATTCTTGGATTTATGAAAGACGAACTTNTGCGAAAGCATTTNGCCAAGGATGTTTTCATTAATCAAGAACGAAAGTTGGGGGCTCGAAGACGATTAGATACCGTCNTAGTCTCAACCATAAACGATGCCGACTAGGGATTGGNGGNTGNTTTNTTGATGACNTCNCCAGCACCTTATGAGAAATCAAAGTTTTTGGGTTCCGGGGNGANTATGGTCGCAAGGCTGAAACTTAAAGGAATTGACGGAAGGGCACCACCAGGCNTGNANCCTGCGGCTTAATTTGACTCAACACGGGAAAACTTACCAGGTCCAGACANNGNGAGGATTGACAGATTGAGAGCTCTTTCTTGATTCTNTGGGTGGTGGTGCATGGCCGTTCTTAGTTGGTGGGTTGCCTTGTCAGGTTGATTCCGGTAACGAACGAGACCTCANCCTGCTAAATAGTCACGTCNGNNTNTNNCNGNNGGCCGACTTCTTAGAGGGACTNTTGNCGNNTANNCAATGGAAGTNTGAGGCAATAACAGGTCTGTGATGCCCTTAGATGTTCTGGGCCGCACGCGCGTTACACTGATGCNTTCAACGAGCCTATCCTTGNCCGAGANGCCCGGGTAATCNNCNAAACNGCATCNTGATNGGG'
p72
sg8
S'frwdrev'
p73
sg10
I00
sg11
g12
sg13
I01
sg14
(lp74
(dp75
g4
g12
sg6
g12
sg8
S'file'
p76
sg10
I00
sg11
g12
sg13
I00
sg14
(lp77
sg19
I00
sg20
I13
sg21
S'cog_BLU2203_1-11L2-chloro18sMidF.ab1'
p78
sa(dp79
g4
g12
sg6
g12
sg8
S'file'
p80
sg10
I00
sg11
g12
sg13
I00
sg14
(lp81
sg19
I01
sg20
I14
sg21
S'cog_BLU2203_1-11L2-snow18sSeqR.ab1'
p82
sasg19
I00
sg20
I12
sg21
S'cog_BLU2203_1-11L2_18SB'
p83
sa(dp84
g4
S'                                                     TGCANNATTCCGTGAACCATCGAATTTTTGAACGCATATTGCGCTCANNNGCTTCGGCCANGAGCATGTCTGCNNCAGCGTCNGGTTCTCCATCANTCTCTCTTCTTCTCTCGAGAGGAACAGCGACGTGNANNCNCGCANTCCGATCCTCCNTTCTTCANTGAGCGTGGGTGAGGTCTGCCAAAGTGAAAGTAGCGCT CCNAGCANTGCCCGAGCNNTGCGTCAGCAATGGNGTGNGTCCGGGTATGTAGCCGCACTCGAGTAGATGTGATGATGTCATGCATGTGTTNACGCACATGNGTGTNTCTCTC CTTACCCGANCTATCCTACGCCTTGNTCGTCTTCTNTG TGTCGTCTTCATTGATGGCACTTAGACGAA ACCAGCCTATACAAGTATACNTCCCAACATGGANCCNTTCANTTCTCGACNTGANCTCAGGCANGATTACCCGCTGAACTTAAGCATATCAATAAGCGGAGGAAAAGAAACCAACCAGGATTCCCCTAGTAACGGCGAGCGAACCGGGANNAGCCCAACTTGAAAATCTCCNTCTTGGAGAATTGTAGTCTACAGAAGTGCNCTCTGTGGCCGTGGGAGCTCAAGTCCGCTGGAAGGCGGCGTCAAAGAGGGTGAGAACCCCGTCGGCTCCCATCTGGCCGCACCACGAGGTGCTTT CCACGAGTCGGGTTGTTTGNGGAATGCAGCCCAAAATTGNAGGTAANNCC                                                     '
p85
sg6
S'TGCANNATTCCGTGAACCATCGAATTTTTGAACGCATATTGCGCTCANNNGCTTCGGCCANGAGCATGTCTGCNNCAGCGTCNGGTTCTCCATCANTCTCTCTTCTTCTCTCGAGAGGAACAGCGACGTGNANNCNCGCANTCCGATCCTCCNTTCTTCANTGAGCGTGGGTGAGGTCTGCCAAAGTGAAAGTAGCGCTCCNAGCANTGCCCGAGCNNTGCGTCAGCAATGGNGTGNGTCCGGGTATGTAGCCGCACTCGAGTAGATGTGATGATGTCATGCATGTGTTNACGCACATGNGTGTNTCTCTCCTTACCCGANCTATCCTACGCCTTGNTCGTCTTCTNTGTGTCGTCTTCATTGATGGCACTTAGACGAAACCAGCCTATACAAGTATACNTCCCAACATGGANCCNTTCANTTCTCGACNTGANCTCAGGCANGATTACCCGCTGAACTTAAGCATATCAATAAGCGGAGGAAAAGAAACCAACCAGGATTCCCCTAGTAACGGCGAGCGAACCGGGANNAGCCCAACTTGAAAATCTCCNTCTTGGAGAATTGTAGTCTACAGAAGTGCNCTCTGTGGCCGTGGGAGCTCAAGTCCGCTGGAAGGCGGCGTCAAAGAGGGTGAGAACCCCGTCGGCTCCCATCTGGCCGCACCACGAGGTGCTTTCCACGAGTCGGGTTGTTTGNGGAATGCAGCCCAAAATTGNAGGTAANNCC'
p86
sg8
S'frwdrev'
p87
sg10
I01
sg11
g12
sg13
I01
sg14
(lp88
(dp89
g4
g12
sg6
g12
sg8
S'file'
p90
sg10
I00
sg11
g12
sg13
I00
sg14
(lp91
sg19
I00
sg20
I16
sg21
S'cog_BLU2203_1-11L2-chloroITS2F.ab1'
p92
sa(dp93
g4
g12
sg6
g12
sg8
S'file'
p94
sg10
I00
sg11
g12
sg13
I00
sg14
(lp95
sg19
I01
sg20
I17
sg21
S'cog_BLU2203_1-11L2-chloroITS2R.ab1'
p96
sasg19
I00
sg20
I15
sg21
S'cog_BLU2203_1-11L2-chloroITS2'
p97
sa(dp98
g4
S'                                                   GCNGAANTCCGTGAACCATCGAATTTTTGAACGCATATTGCGCTCAAGGCTTCGGCCAAGAGCATGTCTGCCTCAGCGTCGGGTTCTCCATCACTCTCTCTTCTTCTCTCGAGAGGAACAGCGACGTGGAAACTCGCAGTCCGATCCTCCGTTCTTCATTGAGCGTGGGTGAGGTCTGCCAAAGTGAAAGTAGCGCTCCGAGCATTGCCCGAGCATGCGTCAGCAATGGCGTGTGTCCGGGTATGTAGCCGCACTCGAGTAGATGTGATGATGTCATGCATGTGTTAACGCACANGTGTGTCTCTCTCCTTACCCGACTATCCTACGCCTTGCTCGTCTTCTCTGTGTCGTCTTCTTTGATGATGACACCTAGACGAAACCAGCCTATACAAGTATACCTCCCAACATGGAACCCTTCACTTCTCGACCTGAGCTCAGGCAAGATTACCCGCTGAACTTAAGCATATCAATAAGCGGAGGAAAAGAAACCAACCAGGATTCCCCTAGTAACGGCGAGCGAACCGGGATCAGCCCAACTTGAAAATCTCCCTCTTGGAGAATTGTAGTCTACAGAAGTGCCCTCTGTGGCCGNTGGGAGCTCAAGTCCGCTGGAAGGCGGCGTCAAAGAGGGTGAGAACCCCGTCGGCTCCCATCTGGCCGCACCACGAGGTGCTTTCCACGAGTCGNGGTTGTTTGGGAATGCAGCCCAAAATTGGAGGTAAATCNCNT                                                 '
p99
sg6
S'GCNGAANTCCGTGAACCATCGAATTTTTGAACGCATATTGCGCTCAAGGCTTCGGCCAAGAGCATGTCTGCCTCAGCGTCGGGTTCTCCATCACTCTCTCTTCTTCTCTCGAGAGGAACAGCGACGTGGAAACTCGCAGTCCGATCCTCCGTTCTTCATTGAGCGTGGGTGAGGTCTGCCAAAGTGAAAGTAGCGCTCCGAGCATTGCCCGAGCATGCGTCAGCAATGGCGTGTGTCCGGGTATGTAGCCGCACTCGAGTAGATGTGATGATGTCATGCATGTGTTAACGCACANGTGTGTCTCTCTCCTTACCCGACTATCCTACGCCTTGCTCGTCTTCTCTGTGTCGTCTTCTTTGATGATGACACCTAGACGAAACCAGCCTATACAAGTATACCTCCCAACATGGAACCCTTCACTTCTCGACCTGAGCTCAGGCAAGATTACCCGCTGAACTTAAGCATATCAATAAGCGGAGGAAAAGAAACCAACCAGGATTCCCCTAGTAACGGCGAGCGAACCGGGATCAGCCCAACTTGAAAATCTCCCTCTTGGAGAATTGTAGTCTACAGAAGTGCCCTCTGTGGCCGNTGGGAGCTCAAGTCCGCTGGAAGGCGGCGTCAAAGAGGGTGAGAACCCCGTCGGCTCCCATCTGGCCGCACCACGAGGTGCTTTCCACGAGTCGNGGTTGTTTGGGAATGCAGCCCAAAATTGGAGGTAAATCNCNT'
p100
sg8
S'frwdrev'
p101
sg10
I01
sg11
g12
sg13
I01
sg14
(lp102
(dp103
g4
g12
sg6
g12
sg8
S'file'
p104
sg10
I00
sg11
g12
sg13
I00
sg14
(lp105
sg19
I00
sg20
I19
sg21
S'cog_DON1901_1-10L2-chloroITS2F.ab1'
p106
sa(dp107
g4
g12
sg6
g12
sg8
S'file'
p108
sg10
I00
sg11
g12
sg13
I00
sg14
(lp109
sg19
I01
sg20
I20
sg21
S'cog_DON1901_1-10L2-chloroITS2R.ab1'
p110
sasg19
I00
sg20
I18
sg21
S'cog_DON1901_1-10L2-chloroITS2'
p111
sa(dp112
g4
S'                                        TTAGAGTGTTCAAAGCAAGCTTACGCTCTGAATACATTAGCATGGAATAACACGATAGGACTCTGGCCTATCTTGTTGGTCTGTAGGACTGGAGTAATGATTAAGAGGGACAGTCGGGGGCATTCGTATTTCATTGTCAGAGGTGAAATTCTTGGATTTATGAAAGACGAACTTCTGCGAAAGCATTTGCCAAGGATGTTTTCATTAATCAAGAACGAAAGTTGGGGGCTCGAAGACGATTAGATACCGTCGTAGTCTCAACCATAAACGATGCCGACTAGGGATTGGCAGGTGTTCTTTTGATGACCCTGCCAGCACCTTATGAGAAATCAAAGTTTTTGGGTTCCGGGGGGAGTATGGTCGCAAGGCTGAAACTTAAAGGAATTGACGGAAGGGCACCACCAGGCGTGGAGCCTGCGGCTTAATTTGACTCAACACGGGAAAACTTACCAGGTCCAGACACGGGGAGGATTGACAGATTGAGAGCTCTTTCTTGATTCTGTGGGTGGTGGTGCATGGCCGTTCTTAGTTGGTGGGTTGCCTTGTCAGGTTGATTCCGGTAACGAACGAGACCTCAGCCTGCTAAATAGTCACGTCTGCCTCTCGCAGACGGCCGACTTCTTAGAGGGACTATTGTCGTTTAGGCAATGGAAGTATGAGGCAATAACAGGTCTGTGATGCCCTTAGATGTTCTGGGCCGCACGCGCGCTACACTGATGCGTTCAACGAGCCTATCCTTGGCCGAGAGGCCCGGGTAATCTTCGAAACCGCATCGTGATGGGGATAGATTATTGCAATTATTAGTCTTCAACGAGGAATGCCTAGTAAGCGCGAGTCATCAGCTCGC                    '
p113
sg6
S'TTAGAGTGTTCAAAGCAAGCTTACGCTCTGAATACATTAGCATGGAATAACACGATAGGACTCTGGCCTATCTTGTTGGTCTGTAGGACTGGAGTAATGATTAAGAGGGACAGTCGGGGGCATTCGTATTTCATTGTCAGAGGTGAAATTCTTGGATTTATGAAAGACGAACTTCTGCGAAAGCATTTGCCAAGGATGTTTTCATTAATCAAGAACGAAAGTTGGGGGCTCGAAGACGATTAGATACCGTCGTAGTCTCAACCATAAACGATGCCGACTAGGGATTGGCAGGTGTTCTTTTGATGACCCTGCCAGCACCTTATGAGAAATCAAAGTTTTTGGGTTCCGGGGGGAGTATGGTCGCAAGGCTGAAACTTAAAGGAATTGACGGAAGGGCACCACCAGGCGTGGAGCCTGCGGCTTAATTTGACTCAACACGGGAAAACTTACCAGGTCCAGACACGGGGAGGATTGACAGATTGAGAGCTCTTTCTTGATTCTGTGGGTGGTGGTGCATGGCCGTTCTTAGTTGGTGGGTTGCCTTGTCAGGTTGATTCCGGTAACGAACGAGACCTCAGCCTGCTAAATAGTCACGTCTGCCTCTCGCAGACGGCCGACTTCTTAGAGGGACTATTGTCGTTTAGGCAATGGAAGTATGAGGCAATAACAGGTCTGTGATGCCCTTAGATGTTCTGGGCCGCACGCGCGCTACACTGATGCGTTCAACGAGCCTATCCTTGGCCGAGAGGCCCGGGTAATCTTCGAAACCGCATCGTGATGGGGATAGATTATTGCAATTATTAGTCTTCAACGAGGAATGCCTAGTAAGCGCGAGTCATCAGCTCGC'
p114
sg8
S'frwdrev'
p115
sg10
I01
sg11
g12
sg13
I01
sg14
(lp116
(dp117
g4
g12
sg6
g12
sg8
S'file'
p118
sg10
I00
sg11
g12
sg13
I00
sg14
(lp119
sg19
I00
sg20
I22
sg21
S'../CE_30-766753846/envelope_PAN1915_8-26L3-chloro18SMidF.ab1'
p120
sa(dp121
g4
g12
sg6
g12
sg8
S'file'
p122
sg10
I00
sg11
g12
sg13
I00
sg14
(lp123
sg19
I01
sg20
I23
sg21
S'friedEgg_PAN1915_8-26L3-snow18sSeqR.ab1'
p124
sasg19
I00
sg20
I21
sg21
S'friedEgg_PAN1915_8-26L3_18SB'
p125
sa(dp126
g4
S'                                                                                                                             GAATAACACGATAGGACTCTGGCCTATCTTGTTGGTCTGTAGGACTGGAGTAATGATTAAGAGGGACAGTCGGGGGCATTCGTATTTCATTGTCAGAGGTGAAATTCTTGGATTTATGAAAGACGAACTTCTGCGAAAGCATTTGCCAAGGATGTTTTCATTAATCAAGAACGAAAGTTGGGGGCTCGAAGACGATTAGATACCGTCGTAGTCTCAACCATAAACGATGCCGACTAGGGATTGGCAGGTGTTCTTTTGATGACCCTGCCAGCACCTTATGAGAAATCAAAGTTTTTGGGTTCCGGGGGGAGTATGGTCGCAAGGCTGAAACTTAAAGGAATTGACGGAAGGGCACCACCAGGCGTGGAGCCTGCGGCTTAATTTGACTCAACACGGGAAAACTTACCAGGTCCAGACACGGGGAGGATTGACAGATTGAGAGCTCTTTCTTGATTCTGTGGGTGGTGGTGCATGGCCGTTCTTAGTTGGTGGGTTGCCTTGTCAGGTTGATTCCGGTAACGAACGAGACCTCAGCCTGCTAAATAGTCACGTCTGCCTCTCGCAGACGGCCGACTTCTTAGAGGGACTATTGTCGTTTAGGCAATGGAAGTATGAGGCAATAACAGGTCTGTGATGCCCTTAGATGTTCTGGGCCGCACGCGCGCTACACTGATGCGTTCAACGAGCCTATCCTTGGCCGAGAGGCCCGGGTAATCTTCGAAACCGCATCNGTGATGGGGATAGATTATTGCAATTATTAGTCTTCAACGAGGAATGCCTAGTAAGCGCGAGTCATCAGCTCG                      '
p127
sg6
S'GAATAACACGATAGGACTCTGGCCTATCTTGTTGGTCTGTAGGACTGGAGTAATGATTAAGAGGGACAGTCGGGGGCATTCGTATTTCATTGTCAGAGGTGAAATTCTTGGATTTATGAAAGACGAACTTCTGCGAAAGCATTTGCCAAGGATGTTTTCATTAATCAAGAACGAAAGTTGGGGGCTCGAAGACGATTAGATACCGTCGTAGTCTCAACCATAAACGATGCCGACTAGGGATTGGCAGGTGTTCTTTTGATGACCCTGCCAGCACCTTATGAGAAATCAAAGTTTTTGGGTTCCGGGGGGAGTATGGTCGCAAGGCTGAAACTTAAAGGAATTGACGGAAGGGCACCACCAGGCGTGGAGCCTGCGGCTTAATTTGACTCAACACGGGAAAACTTACCAGGTCCAGACACGGGGAGGATTGACAGATTGAGAGCTCTTTCTTGATTCTGTGGGTGGTGGTGCATGGCCGTTCTTAGTTGGTGGGTTGCCTTGTCAGGTTGATTCCGGTAACGAACGAGACCTCAGCCTGCTAAATAGTCACGTCTGCCTCTCGCAGACGGCCGACTTCTTAGAGGGACTATTGTCGTTTAGGCAATGGAAGTATGAGGCAATAACAGGTCTGTGATGCCCTTAGATGTTCTGGGCCGCACGCGCGCTACACTGATGCGTTCAACGAGCCTATCCTTGGCCGAGAGGCCCGGGTAATCTTCGAAACCGCATCNGTGATGGGGATAGATTATTGCAATTATTAGTCTTCAACGAGGAATGCCTAGTAAGCGCGAGTCATCAGCTCG'
p128
sg8
S'frwdrev'
p129
sg10
I01
sg11
g12
sg13
I01
sg14
(lp130
(dp131
g4
g12
sg6
g12
sg8
S'file'
p132
sg10
I00
sg11
g12
sg13
I00
sg14
(lp133
sg19
I00
sg20
I25
sg21
S'../CE_30-766753846/envelope_WED2206_7-26L1-chloro18SMidF.ab1'
p134
sa(dp135
g4
g12
sg6
g12
sg8
S'file'
p136
sg10
I00
sg11
g12
sg13
I00
sg14
(lp137
sg19
I01
sg20
I26
sg21
S'friedEgg_WED2206_7-26L1-snow18sSeqR.ab1'
p138
sasg19
I00
sg20
I24
sg21
S'friedEgg_WED2206_7-26L1_18SB'
p139
sa(dp140
g4
S'                                         CGTANTGCGANTTGCAGAATTCAGTGAATCATCAAATCTTTGAACGCAAATTGCGCTTTTGGGTAGCCCTAGAAGCACGCCTCTCTCAGTATCGGTTCAAACACAAATCAGCAGCGTAGGTGAATGTGAGTNNNATCACAATTATTTATGTGTTGGCTGGAGAATGGGAGTCTGATGGTTGTAGTGAAGCTGCAATACTAGTCTCCTTAAATAATCGAGTGAGCATCTAACTACTTGTCAGTTCGTCGACGATTACTGAAATCGTCGACGATAGCCGATCTCTGTCTGTCCGATATCGAATTGTGACGTGAATACTGGCCGTTTATCGGTCTTCTTTTACGTGTTATCAATTCGAGTGTAAGATACTATAATGGACTAGGAAGAGCGAATCGATGAGCTAAGTAATGTTTGCGACAGCGTGAGTAATCACAATCGAATAATGTACGAGTACNCCTCGTTCTGTTATTCTGAATTTTGATCTGAGATGAAGCGAGACAACCCCCTGAATTTAAGCATATTAATAAGGGGAGGAAAAGAAACTAACAAGGATTCCCCCAGTAACGGCGAGTGAAGCGGGAAGAGCTCAATTTGAAAATCGATTACCCAAACGGGTCATCGAATTGTAGCCTAGAGACGTGCCATCAGCTGAAACCTGGGTATAAGTTCTTTGGAATGAGGCATCATAGAGGGTGAGAATCCCGTATATGACCCAAAGCTTTCAGCGTACGATGCATGTTCATCGAGTCGAGTTGTTTGGGATTGCAGCTCTAAATGGGTGGTAAGTTTCATCTAAAGCTAAATNA                                      '
p141
sg6
S'CGTANTGCGANTTGCAGAATTCAGTGAATCATCAAATCTTTGAACGCAAATTGCGCTTTTGGGTAGCCCTAGAAGCACGCCTCTCTCAGTATCGGTTCAAACACAAATCAGCAGCGTAGGTGAATGTGAGTNNNATCACAATTATTTATGTGTTGGCTGGAGAATGGGAGTCTGATGGTTGTAGTGAAGCTGCAATACTAGTCTCCTTAAATAATCGAGTGAGCATCTAACTACTTGTCAGTTCGTCGACGATTACTGAAATCGTCGACGATAGCCGATCTCTGTCTGTCCGATATCGAATTGTGACGTGAATACTGGCCGTTTATCGGTCTTCTTTTACGTGTTATCAATTCGAGTGTAAGATACTATAATGGACTAGGAAGAGCGAATCGATGAGCTAAGTAATGTTTGCGACAGCGTGAGTAATCACAATCGAATAATGTACGAGTACNCCTCGTTCTGTTATTCTGAATTTTGATCTGAGATGAAGCGAGACAACCCCCTGAATTTAAGCATATTAATAAGGGGAGGAAAAGAAACTAACAAGGATTCCCCCAGTAACGGCGAGTGAAGCGGGAAGAGCTCAATTTGAAAATCGATTACCCAAACGGGTCATCGAATTGTAGCCTAGAGACGTGCCATCAGCTGAAACCTGGGTATAAGTTCTTTGGAATGAGGCATCATAGAGGGTGAGAATCCCGTATATGACCCAAAGCTTTCAGCGTACGATGCATGTTCATCGAGTCGAGTTGTTTGGGATTGCAGCTCTAAATGGGTGGTAAGTTTCATCTAAAGCTAAATNA'
p142
sg8
S'frwdrev'
p143
sg10
I00
sg11
g12
sg13
I01
sg14
(lp144
(dp145
g4
g12
sg6
g12
sg8
S'file'
p146
sg10
I00
sg11
g12
sg13
I00
sg14
(lp147
sg19
I00
sg20
I28
sg21
S'friedEgg_WED2236_1-18L4-chloroITS2F.ab1'
p148
sa(dp149
g4
g12
sg6
g12
sg8
S'file'
p150
sg10
I00
sg11
g12
sg13
I00
sg14
(lp151
sg19
I01
sg20
I29
sg21
S'friedEgg_WED2236_1-18L4-chloroITS2R.ab1'
p152
sasg19
I00
sg20
I27
sg21
S'friedEgg_WED2236_1-18L4-chloroITS2'
p153
sa(dp154
g4
S'                                                  TTCAAAGCCAGNNNNCGCTCNGANTACATTAGCATGGAATAACACGATAGGACTCTGGCCTATCTTGTTGGTCTGTAGGACTGGAGTAATGATTAAGAGGGACAGTCGGGGGCATTCGTATTTCATTGTCAGAGGTGAAATTCTTGGATTTATGAAAGACGAACTTCTGCGAAAGCATTTGCCAAGGATGTTTTCATTAATCAAGAACGAAAGTTGGGGGCTCGAAGACGATTAGATACCGTCGTAGTCTCAACCATAAACGATGCCGACTAGGGATTGGCAGGTGTTCTTTTGATGACCCTGCCAGCACCTTATGAGAAATCAAAGTTTTTGGGTTCCGGGGGGAGTATGGTCGCAAGGCTGAAACTTAAAGGAATTGACGGAAGGGCACCACCAGGCGTGGAGCCTGCGGCTTAATTTGACTCAACACGGGAAAACTTACCAGGTCCAGACACGGGGAGGATTGACAGATTGAGAGCTCTTTCTTGATTCTGTGGGTGGTGGTGCATGGCCGTTCTTAGTTGGTGGGTTGCCTTGTCAGGTTGATTCCGGTAACGAACGAGACCTCAGCCTGCTAAATAGTCACGTCTGCCTCTCGCAGACGGCCGACTTCTTAGAGGGACTATTGTCGTTTAGGCAATGGAAGTATGAGGCAATAACAGGTCTGTGATGCCCTTAGATGTTCTGGGCCGCACGCGCGCTACACTGATGCGTTCAACGAGCCTATCCTTGGCCGAGAGGCCCGGGTAATCTTCGAAACCGCATC GTGATGGGGATAGATTATTGCAATTATTAGTCTTCAACGAGGAATGCCTAGTAAGCGCGAGTCATCANCTCNC                   '
p155
sg6
S'TTCAAAGCCAGNNNNCGCTCNGANTACATTAGCATGGAATAACACGATAGGACTCTGGCCTATCTTGTTGGTCTGTAGGACTGGAGTAATGATTAAGAGGGACAGTCGGGGGCATTCGTATTTCATTGTCAGAGGTGAAATTCTTGGATTTATGAAAGACGAACTTCTGCGAAAGCATTTGCCAAGGATGTTTTCATTAATCAAGAACGAAAGTTGGGGGCTCGAAGACGATTAGATACCGTCGTAGTCTCAACCATAAACGATGCCGACTAGGGATTGGCAGGTGTTCTTTTGATGACCCTGCCAGCACCTTATGAGAAATCAAAGTTTTTGGGTTCCGGGGGGAGTATGGTCGCAAGGCTGAAACTTAAAGGAATTGACGGAAGGGCACCACCAGGCGTGGAGCCTGCGGCTTAATTTGACTCAACACGGGAAAACTTACCAGGTCCAGACACGGGGAGGATTGACAGATTGAGAGCTCTTTCTTGATTCTGTGGGTGGTGGTGCATGGCCGTTCTTAGTTGGTGGGTTGCCTTGTCAGGTTGATTCCGGTAACGAACGAGACCTCAGCCTGCTAAATAGTCACGTCTGCCTCTCGCAGACGGCCGACTTCTTAGAGGGACTATTGTCGTTTAGGCAATGGAAGTATGAGGCAATAACAGGTCTGTGATGCCCTTAGATGTTCTGGGCCGCACGCGCGCTACACTGATGCGTTCAACGAGCCTATCCTTGGCCGAGAGGCCCGGGTAATCTTCGAAACCGCATCGTGATGGGGATAGATTATTGCAATTATTAGTCTTCAACGAGGAATGCCTAGTAAGCGCGAGTCATCANCTCNC'
p156
sg8
S'frwdrev'
p157
sg10
I01
sg11
g12
sg13
I01
sg14
(lp158
(dp159
g4
g12
sg6
g12
sg8
S'file'
p160
sg10
I00
sg11
g12
sg13
I00
sg14
(lp161
sg19
I00
sg20
I31
sg21
S'../CE_30-766753846/envelope_WED2236_8-31L3-chloro18SMidF.ab1'
p162
sa(dp163
g4
g12
sg6
g12
sg8
S'file'
p164
sg10
I00
sg11
g12
sg13
I00
sg14
(lp165
sg19
I01
sg20
I32
sg21
S'friedEgg_WED2236_8-31L3-snow18sSeqR.ab1'
p166
sasg19
I00
sg20
I30
sg21
S'friedEgg_WED2236_8-31L3_18SB'
p167
sa(dp168
g4
S'                  TTACTTTGAGTAAATTAGAGTGTTCAAAGCAAGCTTACGCTCTGAATACATTAGCATGGAATAACACGATAGGACTCTGGCCTATCTTGTTGGTCTGTAGGACTGGAGTAATGATTAAGAGGGACAGTCGGGGGCATTCGTATTTCATTGTCAGAGGTGAAATTCTTGGATTTATGAAAGACGAACTTCTGCGAAAGCATTTGCCAAGGATGTTTTCATTAATCAAGAACGAAAGTTGGGGGCTCGAAGACGATTAGATACCGTCGTAGTCTCAACCATAAACGATGCCGACTAGGGATTGGCAGGTGTTCTTTTGATGACCCTGCCAGCACCTTATGAGAAATCAAAGTTTTTGGGTTCCGGGGGGAGTATGGTCGCAAGGCTGAAACTTAAAGGAATTGACGGAAGGGCACCACCAGGCGTGGAGCCTGCGGCTTAATTTGACTCAACACGGGAAAACTTACCAGGTCCAGACACGGGGAGGATTGACAGATTGAGAGCTCTTTCTTGATTCTGTGGGTGGTGGTGCATGGCCGTTCTTAGTTGGTGGGTTGCCTTGTCAGGTTGATTCCGGTAACGAACGAGACCTCAGCCTGCTAAATAGTCACGTCTGCCTCTCGCAGACGGCCGACTTCTTAGAGGGACTATTGTCGTTTAGGCAATGGAAGTATGAGGCAATAACAGGTCTGTGATGCCCTTAGATGTTCTGGGCCGCACGCGCGCTACACTGATGCGTTCAACGAGCCTATCCTTGGCCGAGAGGCCCGGGTAATCTTCGAAACCGCATC GTGATGGGGATAGATTATTGCAATTATTAGTCTTCAACGANGAATGCCTAGTAAGCGCGAGTCATCAGCTCGC                     '
p169
sg6
S'TTACTTTGAGTAAATTAGAGTGTTCAAAGCAAGCTTACGCTCTGAATACATTAGCATGGAATAACACGATAGGACTCTGGCCTATCTTGTTGGTCTGTAGGACTGGAGTAATGATTAAGAGGGACAGTCGGGGGCATTCGTATTTCATTGTCAGAGGTGAAATTCTTGGATTTATGAAAGACGAACTTCTGCGAAAGCATTTGCCAAGGATGTTTTCATTAATCAAGAACGAAAGTTGGGGGCTCGAAGACGATTAGATACCGTCGTAGTCTCAACCATAAACGATGCCGACTAGGGATTGGCAGGTGTTCTTTTGATGACCCTGCCAGCACCTTATGAGAAATCAAAGTTTTTGGGTTCCGGGGGGAGTATGGTCGCAAGGCTGAAACTTAAAGGAATTGACGGAAGGGCACCACCAGGCGTGGAGCCTGCGGCTTAATTTGACTCAACACGGGAAAACTTACCAGGTCCAGACACGGGGAGGATTGACAGATTGAGAGCTCTTTCTTGATTCTGTGGGTGGTGGTGCATGGCCGTTCTTAGTTGGTGGGTTGCCTTGTCAGGTTGATTCCGGTAACGAACGAGACCTCAGCCTGCTAAATAGTCACGTCTGCCTCTCGCAGACGGCCGACTTCTTAGAGGGACTATTGTCGTTTAGGCAATGGAAGTATGAGGCAATAACAGGTCTGTGATGCCCTTAGATGTTCTGGGCCGCACGCGCGCTACACTGATGCGTTCAACGAGCCTATCCTTGGCCGAGAGGCCCGGGTAATCTTCGAAACCGCATCGTGATGGGGATAGATTATTGCAATTATTAGTCTTCAACGANGAATGCCTAGTAAGCGCGAGTCATCAGCTCGC'
p170
sg8
S'frwdrev'
p171
sg10
I01
sg11
g12
sg13
I01
sg14
(lp172
(dp173
g4
g12
sg6
g12
sg8
S'file'
p174
sg10
I00
sg11
g12
sg13
I00
sg14
(lp175
sg19
I00
sg20
I34
sg21
S'../CE_30-766753846/cog_BAK1912_8-26L1-chloro18SMidF.ab1'
p176
sa(dp177
g4
g12
sg6
g12
sg8
S'file'
p178
sg10
I00
sg11
g12
sg13
I00
sg14
(lp179
sg19
I01
sg20
I35
sg21
S'gear_BAK1912_8-26L1-snow18sSeqR.ab1'
p180
sasg19
I00
sg20
I33
sg21
S'gear_BAK1912_8-26L1_18SB'
p181
sa(dp182
g4
S'                                               GTAGTAANTTCTAGAGCTAATACGTGCGTAAATCCNGACNTCTGGAAGGGACGTATTTATTAGATAAAAGGCCAGCC GAGCTTGCTCGACTTTAGGTGAATCATGATAACTCC ACGAATCGCATGGCCTTGTGCCGGCGATGTTTCATTCAAATTTCTGCCCTATCAACTTT CGATGGTAGGATAGAGGCCTACCATGGTGGTAACGGGTGACGGAGGATTAGGGTTCGATTCCGGAGAGGGAGCCTGAGAAATGGCTACCACATCCAAGGAAGGCAGCAGGCGCGCAAATTACCCAATCCCGACACGGGGAGGTAGTGACAATAAATAACAATGCCGAGCATTTTATGTTTGGCAATTGGAATGAGCACAATCTAAACCCCTTAACGAGGATCCATTGGAGGGCAAGTCTGGTGCCAGCAGCCGCGGTAATTCCAGCTCCAATAGCGTATATTTAAGTTGTTGCAGTTAAAAAGCTCGTAGTTGGATTTCGGGTGGGTTGTAGT GGTCCGGTTCG CTGTGTACTGCTACGGCCTTCCTTTCTGCCGGAA ACGGGCTCTTGGGCTTTACTGTCTGGGACC CGGAGT CGGCGAGGTTACTTTG AGTAAATTAGAGTGTTCAAAG CAAGCTTACGCTCTGAATACATTAGCATGGAATAACACGATA GGACTCTG GCCTATCTTGTTGGTCTGTAGGACTGGA GTAATGATTA AGAGGGACAGTCGGGGGCATTCGTA TTTCA TTGTCAGAGGTG AAATTCTTGG ATTTATGA AAGAC  GAACTTCTGCGAAAGCATTTGCCAAGGAN                     '
p183
sg6
S'GTAGTAANTTCTAGAGCTAATACGTGCGTAAATCCNGACNTCTGGAAGGGACGTATTTATTAGATAAAAGGCCAGCCGAGCTTGCTCGACTTTAGGTGAATCATGATAACTCCACGAATCGCATGGCCTTGTGCCGGCGATGTTTCATTCAAATTTCTGCCCTATCAACTTTCGATGGTAGGATAGAGGCCTACCATGGTGGTAACGGGTGACGGAGGATTAGGGTTCGATTCCGGAGAGGGAGCCTGAGAAATGGCTACCACATCCAAGGAAGGCAGCAGGCGCGCAAATTACCCAATCCCGACACGGGGAGGTAGTGACAATAAATAACAATGCCGAGCATTTTATGTTTGGCAATTGGAATGAGCACAATCTAAACCCCTTAACGAGGATCCATTGGAGGGCAAGTCTGGTGCCAGCAGCCGCGGTAATTCCAGCTCCAATAGCGTATATTTAAGTTGTTGCAGTTAAAAAGCTCGTAGTTGGATTTCGGGTGGGTTGTAGTGGTCCGGTTCGCTGTGTACTGCTACGGCCTTCCTTTCTGCCGGAAACGGGCTCTTGGGCTTTACTGTCTGGGACCCGGAGTCGGCGAGGTTACTTTGAGTAAATTAGAGTGTTCAAAGCAAGCTTACGCTCTGAATACATTAGCATGGAATAACACGATAGGACTCTGGCCTATCTTGTTGGTCTGTAGGACTGGAGTAATGATTAAGAGGGACAGTCGGGGGCATTCGTATTTCATTGTCAGAGGTGAAATTCTTGGATTTATGAAAGACGAACTTCTGCGAAAGCATTTGCCAAGGAN'
p184
sg8
S'frwdrev'
p185
sg10
I01
sg11
g12
sg13
I01
sg14
(lp186
(dp187
g4
g12
sg6
g12
sg8
S'file'
p188
sg10
I00
sg11
g12
sg13
I00
sg14
(lp189
sg19
I00
sg20
I37
sg21
S'gear_P6618_6-29L1-chloro18sF.ab1'
p190
sa(dp191
g4
g12
sg6
g12
sg8
S'file'
p192
sg10
I00
sg11
g12
sg13
I00
sg14
(lp193
sg19
I01
sg20
I38
sg21
S'gear_P6618_6-29L1-chloro18sMidR.ab1'
p194
sasg19
I00
sg20
I36
sg21
S'gear_P6618_6-29L1_18SA'
p195
sa(dp196
g4
S'                                                                                                  TGAGTAANTTAGAGTGTTCAAAGCAAGCTTACGCTCTGAATACATTAGCATGGAATAACACGATAGGACTCTGGCNTATCTTGTTGGTCTGTAGGACTGGAGTAATGATTAAGAGGGACAGTCGGGGGCATTCGTATTTCATTGTCAGAGGTGAAATTCTTGGATTTATGAAAGACGAACTTCTGCGAAAGCATTTGCCAAGGATGTTTTCATTAATCAAGAACGAAAGTTGGGGGCTCGAAGACGATTAGATACCGTCGTAGTCTCAACCATAAACGATGCCGACTAGGGATTGGCAGGTGTTCTTTTGATGACCCTGCCAGCACCTTATGAGAAATCAAAGTTTTTGGGTTCCGGGGGGAGTATGGTCGCAAGGCTGAAACTTAAAGGAATTGACGGAAGGGCACCACCAGGCGTGGAGCCTGCGGCTTAATTTGACTCAACACGGGAAAACTTACCAGGTCCAGACACGGGGAGGATTGACAGATTGAGAGCTCTTTCTTGATTCTGTGGGTGGTGGTGCATGGCCGTTCTTAGTTGGTGGGTTGCCTTGTCAGGTTGATTCCGGTAACGAACGAGACCTCAGCCTGCTAAATAGTCACGTCTGCCTCTCGCAGACGGCCGACTTCTTAGAGGGACTATTGTCGTTTAGGCAATGGAAGTATGAGGCAATAACAGGTCTGTGATGCCCTTAGATGTTCTGGGCCGCACGCGCGCTACACTGATGCGTTCAACGAGCCTATCCTTGGCCGAGAGGCCCGGGTAATCTTCGAAACCGCATCGTGATGGNNATAGATTATTGCAATTATTAGTCTTCAACGAGGAATGCCTAGTAAGCGCGAGTCATCAGCTCGCN                    '
p197
sg6
S'TGAGTAANTTAGAGTGTTCAAAGCAAGCTTACGCTCTGAATACATTAGCATGGAATAACACGATAGGACTCTGGCNTATCTTGTTGGTCTGTAGGACTGGAGTAATGATTAAGAGGGACAGTCGGGGGCATTCGTATTTCATTGTCAGAGGTGAAATTCTTGGATTTATGAAAGACGAACTTCTGCGAAAGCATTTGCCAAGGATGTTTTCATTAATCAAGAACGAAAGTTGGGGGCTCGAAGACGATTAGATACCGTCGTAGTCTCAACCATAAACGATGCCGACTAGGGATTGGCAGGTGTTCTTTTGATGACCCTGCCAGCACCTTATGAGAAATCAAAGTTTTTGGGTTCCGGGGGGAGTATGGTCGCAAGGCTGAAACTTAAAGGAATTGACGGAAGGGCACCACCAGGCGTGGAGCCTGCGGCTTAATTTGACTCAACACGGGAAAACTTACCAGGTCCAGACACGGGGAGGATTGACAGATTGAGAGCTCTTTCTTGATTCTGTGGGTGGTGGTGCATGGCCGTTCTTAGTTGGTGGGTTGCCTTGTCAGGTTGATTCCGGTAACGAACGAGACCTCAGCCTGCTAAATAGTCACGTCTGCCTCTCGCAGACGGCCGACTTCTTAGAGGGACTATTGTCGTTTAGGCAATGGAAGTATGAGGCAATAACAGGTCTGTGATGCCCTTAGATGTTCTGGGCCGCACGCGCGCTACACTGATGCGTTCAACGAGCCTATCCTTGGCCGAGAGGCCCGGGTAATCTTCGAAACCGCATCGTGATGGNNATAGATTATTGCAATTATTAGTCTTCAACGAGGAATGCCTAGTAAGCGCGAGTCATCAGCTCGCN'
p198
sg8
S'frwdrev'
p199
sg10
I01
sg11
g12
sg13
I01
sg14
(lp200
(dp201
g4
g12
sg6
g12
sg8
S'file'
p202
sg10
I00
sg11
g12
sg13
I00
sg14
(lp203
sg19
I00
sg20
I40
sg21
S'gear_P6618_6-29L1-chloro18sMidF.ab1'
p204
sa(dp205
g4
g12
sg6
g12
sg8
S'file'
p206
sg10
I00
sg11
g12
sg13
I00
sg14
(lp207
sg19
I01
sg20
I41
sg21
S'gear_P6618_6-29L1-snow18sSeqR.ab1'
p208
sasg19
I00
sg20
I39
sg21
S'gear_P6618_6-29L1_18SB'
p209
sa(dp210
g4
S'                                                                                                                         GGCACCACCAGGCGTGGAGCCTGCGGCTTAATTTGACTCAACACGGGAAAACTTACCAGGTCCAGACACGGGGAGGATTGACAGATTGAGAGCTCTTTCTTGATTCTGTGGGTGGTGGTGCATGGCCGTTCTTAGTTGGTGGGTTGCCTTGTCAGGTTGATTCCGGTAACGAACGAGACCTCAGCCTGCTAAATAGTCACGTCTGCCTCTCGCAGACGGCCGACTTCTTAGAGGGACTATTGTCGTTTAGGCAATGGAAGTATGAGGCAATAACAGGTCTGTGATGCCCTTAGATGTTCTGGGCCGCACGCGCGCTACACTGATGCGTTCAACGAGCCTATCCTTGGCCGAGAGGCCCGGGTAATCTTCGAAACCGCATCGTGATGGGGATAGATTATTGCAATTATTAGTCTTCAACGAGGAATGCCTAGTAAGCGCGAGTCATCAGCTCGCGTTGATTACGTCCCTGCCCTTTGTACACACCGCCCGTCGCTCCTACCGATTGAGTGTGCTGTG             '
p211
sg6
S'GGCACCACCAGGCGTGGAGCCTGCGGCTTAATTTGACTCAACACGGGAAAACTTACCAGGTCCAGACACGGGGAGGATTGACAGATTGAGAGCTCTTTCTTGATTCTGTGGGTGGTGGTGCATGGCCGTTCTTAGTTGGTGGGTTGCCTTGTCAGGTTGATTCCGGTAACGAACGAGACCTCAGCCTGCTAAATAGTCACGTCTGCCTCTCGCAGACGGCCGACTTCTTAGAGGGACTATTGTCGTTTAGGCAATGGAAGTATGAGGCAATAACAGGTCTGTGATGCCCTTAGATGTTCTGGGCCGCACGCGCGCTACACTGATGCGTTCAACGAGCCTATCCTTGGCCGAGAGGCCCGGGTAATCTTCGAAACCGCATCGTGATGGGGATAGATTATTGCAATTATTAGTCTTCAACGAGGAATGCCTAGTAAGCGCGAGTCATCAGCTCGCGTTGATTACGTCCCTGCCCTTTGTACACACCGCCCGTCGCTCCTACCGATTGAGTGTGCTGTG'
p212
sg8
S'frwdrev'
p213
sg10
I01
sg11
g12
sg13
I01
sg14
(lp214
(dp215
g4
g12
sg6
g12
sg8
S'file'
p216
sg10
I00
sg11
g12
sg13
I00
sg14
(lp217
sg19
I00
sg20
I43
sg21
S'../BR_30-753374637/gear_PAN1918_5-25T3-18s_mid_BR_F.ab1'
p218
sa(dp219
g4
g12
sg6
g12
sg8
S'file'
p220
sg10
I00
sg11
g12
sg13
I00
sg14
(lp221
sg19
I01
sg20
I44
sg21
S'gear_PAN1918_5-25T3-snow18sSeqR.ab1'
p222
sasg19
I00
sg20
I42
sg21
S'gear_PAN1918_5-25T3_18SB'
p223
sa(dp224
g4
S'                                                                                                                   TAGCATGGAATAACACGATAGGACTCTGGCNTATCTTGTTGGTCTGTAGGACNGGAGTAATGATTAAGAGGGACNGTCGGGGGCATTCGTATTTCATTGTCAGAGGTGAAATTCTTGGATTTATGAAAGACGAACTTCTGCGAAAGCATTTGCCAAGGATGTTTTCATTAATCAAGAACGAAAGTTGGGGGCTCGAAGACGATTAGATACCGTCGTAGTCTCAACCATAAACGATGCCGACTAGGGATTGGCAGGTGTTCTTTTGATGACCCTGCCAGCACCTTATGAGAAATCAAAGTTTTTGGGTTCCGGGGGGAGTATGGTCGCAAGGCTGAAACTTAAAGGAATTGACGGAAGGGCACCACCAGGCGTGGAGCCTGCGGCTTAATTTGACTCAACACGGGAAAACTTACCAGGTCCAGACACGGGGAGGATTGACAGATTGAGAGCTCTTTCTTGATTCTGTGGGTGGTGGTGCATGGCCGTTCTTAGTTGGTGGGTTGCCTTGTCAGGTTGATTCCGGTAACGAACGAGACCTCAGCCTGCTAAATAGTCACGTCTGCCTCTCGCAGACGGCCGACTTCTTAGAGGGACTATTGTCGTTTAGGCAATGGAAGTATGAGGCAATAACAGGTCTGTGATGCCCTTAGATGTTCTGGGCCGCACGCGCGCTACACTGATGCGTTCAACGAGCCTATCCTTGGCCGAGAGGCCCGGGTAATCTTCGAAACCGCATC GTGATGGGGATAGATTATTGCAATTATTAGTCTTCAACGAGGAATGCCTAGTAAGCGCGAGTCATCAGCTCGC                      '
p225
sg6
S'TAGCATGGAATAACACGATAGGACTCTGGCNTATCTTGTTGGTCTGTAGGACNGGAGTAATGATTAAGAGGGACNGTCGGGGGCATTCGTATTTCATTGTCAGAGGTGAAATTCTTGGATTTATGAAAGACGAACTTCTGCGAAAGCATTTGCCAAGGATGTTTTCATTAATCAAGAACGAAAGTTGGGGGCTCGAAGACGATTAGATACCGTCGTAGTCTCAACCATAAACGATGCCGACTAGGGATTGGCAGGTGTTCTTTTGATGACCCTGCCAGCACCTTATGAGAAATCAAAGTTTTTGGGTTCCGGGGGGAGTATGGTCGCAAGGCTGAAACTTAAAGGAATTGACGGAAGGGCACCACCAGGCGTGGAGCCTGCGGCTTAATTTGACTCAACACGGGAAAACTTACCAGGTCCAGACACGGGGAGGATTGACAGATTGAGAGCTCTTTCTTGATTCTGTGGGTGGTGGTGCATGGCCGTTCTTAGTTGGTGGGTTGCCTTGTCAGGTTGATTCCGGTAACGAACGAGACCTCAGCCTGCTAAATAGTCACGTCTGCCTCTCGCAGACGGCCGACTTCTTAGAGGGACTATTGTCGTTTAGGCAATGGAAGTATGAGGCAATAACAGGTCTGTGATGCCCTTAGATGTTCTGGGCCGCACGCGCGCTACACTGATGCGTTCAACGAGCCTATCCTTGGCCGAGAGGCCCGGGTAATCTTCGAAACCGCATCGTGATGGGGATAGATTATTGCAATTATTAGTCTTCAACGAGGAATGCCTAGTAAGCGCGAGTCATCAGCTCGC'
p226
sg8
S'frwdrev'
p227
sg10
I01
sg11
g12
sg13
I01
sg14
(lp228
(dp229
g4
g12
sg6
g12
sg8
S'file'
p230
sg10
I00
sg11
g12
sg13
I00
sg14
(lp231
sg19
I00
sg20
I46
sg21
S'../CE_30-766753846/cog_TEM2003_7-27L8-chloro18SMidF.ab1'
p232
sa(dp233
g4
g12
sg6
g12
sg8
S'file'
p234
sg10
I00
sg11
g12
sg13
I00
sg14
(lp235
sg19
I01
sg20
I47
sg21
S'gear_TEM2003_7-27L8-snow18sSeqR.ab1'
p236
sasg19
I00
sg20
I45
sg21
S'gear_TEM2003_7-27L8_18SB'
p237
sa(dp238
g4
S'                                                          ACTTNGAGTAAATTAGAGTGTTCAAAGCAAGCNTACGCTCTGAATACATTAGCATGGAATAACGCGATAGGACTCTGGCCTATCTTGTTGGTCTGTAGGACTGGAGTAATGATTAAGAGGGACAGTCGGGGGCATTCGTATTTCATTGTCAGAGGTGAAATTCTTGGATTTATGAAAGACGAACTTCTGCGAAAGCATTTGCCAAGGATGTTTTCATTAATCAAGAACGAAAGTTGGGGGCTCGAAGACGATTAGATACCGTCGTAGTCTCAACCATAAACGATGCCGACTAGGGATTGGCGGGTGTTTCGTTGATGACCCCGCCAGCACCTTATGAGAAATCAAAGTCTTTGGGTTCCGGGGGGAGTATGGTCGCAAGGCTGAAACTTAAAGGAATTGACGGAAGGGCACCACCAGGCGTGGAGCCTGCGGCTTAATTTGACTCAACACGGGAAAACTTACCAGGTCCAGACACGGGAAGGATTGACAGATTGAGAGCTCTTTCTTGATTCTGTGGGTGGTGGTGCATGGCCGTTCTTAGTTGGTGGGTTGCCTTGTCAGGTTGATTCCGGTAACGAACGAGACCTCAGCCTGCTAAATAGTCACAGTTGCCTCTGGCAGCTGGCTGACTTCTTAGAGGGACTATTGTCGTTTAGGCAATGGAAGTATGAGGCAATAACAGGTCTGTGATGCCCTTAGATGTTCTGGGCCGCACGCGCGCTACACTGATGCATTCAACAAGCCTATCCTTGGCCGAGAGGCCCGGGTAATCTTTGAAACTGCATCGTGATGGGGATAGATTATTGCAATTATTAGTCTTCAACGANGAATGCCTAGTAAGCGCGAGTCATCAGCTCG                    '
p239
sg6
S'ACTTNGAGTAAATTAGAGTGTTCAAAGCAAGCNTACGCTCTGAATACATTAGCATGGAATAACGCGATAGGACTCTGGCCTATCTTGTTGGTCTGTAGGACTGGAGTAATGATTAAGAGGGACAGTCGGGGGCATTCGTATTTCATTGTCAGAGGTGAAATTCTTGGATTTATGAAAGACGAACTTCTGCGAAAGCATTTGCCAAGGATGTTTTCATTAATCAAGAACGAAAGTTGGGGGCTCGAAGACGATTAGATACCGTCGTAGTCTCAACCATAAACGATGCCGACTAGGGATTGGCGGGTGTTTCGTTGATGACCCCGCCAGCACCTTATGAGAAATCAAAGTCTTTGGGTTCCGGGGGGAGTATGGTCGCAAGGCTGAAACTTAAAGGAATTGACGGAAGGGCACCACCAGGCGTGGAGCCTGCGGCTTAATTTGACTCAACACGGGAAAACTTACCAGGTCCAGACACGGGAAGGATTGACAGATTGAGAGCTCTTTCTTGATTCTGTGGGTGGTGGTGCATGGCCGTTCTTAGTTGGTGGGTTGCCTTGTCAGGTTGATTCCGGTAACGAACGAGACCTCAGCCTGCTAAATAGTCACAGTTGCCTCTGGCAGCTGGCTGACTTCTTAGAGGGACTATTGTCGTTTAGGCAATGGAAGTATGAGGCAATAACAGGTCTGTGATGCCCTTAGATGTTCTGGGCCGCACGCGCGCTACACTGATGCATTCAACAAGCCTATCCTTGGCCGAGAGGCCCGGGTAATCTTTGAAACTGCATCGTGATGGGGATAGATTATTGCAATTATTAGTCTTCAACGANGAATGCCTAGTAAGCGCGAGTCATCAGCTCG'
p240
sg8
S'frwdrev'
p241
sg10
I01
sg11
g12
sg13
I01
sg14
(lp242
(dp243
g4
g12
sg6
g12
sg8
S'file'
p244
sg10
I00
sg11
g12
sg13
I00
sg14
(lp245
sg19
I00
sg20
I49
sg21
S'../CE_30-794584119/7-27L7_halo_PAN1930-chloro18sMidF.ab1'
p246
sa(dp247
g4
g12
sg6
g12
sg8
S'file'
p248
sg10
I00
sg11
g12
sg13
I00
sg14
(lp249
sg19
I01
sg20
I50
sg21
S'halo_PAN1930_7-27L7-snow18sSeqR.ab1'
p250
sasg19
I00
sg20
I48
sg21
S'halo_PAN1930_7-27L7_18SB'
p251
sa(dp252
g4
S'                                                  GTNTNCAAAGCANNNNACGCTCTGANTACATNAGCATGGAATAACNCGATAGGACTCTGGCNTATCTTGTTGGTCTGTAGGACTGGAGTAATGATTAAGAGGGACAGTCGGGGGCATTCGTATTTCATTGTCAGAGGTGAAATTCTTGGATTTATGAAAGACGAACTTCTGCGAAAGCATTTGCCAAGGATGTTTTCATTAATCAAGAACGAAAGTTGGGGGCTCGAAGACGATTAGATACCGTCGTAGTCTCAACCATAAACGATGCCGACTAGGGATTGGCGGGTGTTTCGTTGATGACCCCGCCAGCACCTTATGAGAAATCAAAGTCTTTGGGTTCCGGGGGGAGTATGGTCGCAAGGCTGAAACTTAAAGGAATTGACGGAAGGGCACCACCAGGCGTGGAGCCTGCGGCTTAATTTGACTCAACACGGGAAAACTTACCAGGTCCAGACACGGGAAGGATTGACAGATTGAGAGCTCTTTCTTGATTCTGTGGGTGGTGGTGCATGGCCGTTCTTAGTTGGTGGGTTGCCTTGTCAGGTTGATTCCGGTAACGAACGAGACCTCAGCCTGCTAAATAGTCACAGTTGCCTCTGGCAGCTGGCTGACTTCTTAGAGGGACTATTGTCGTTTAGGCAATGGAAGTATGAGGCAATAACAGGTCTGTGATGCCCTTAGATGTTCTGGGCCGCACGCGCGCTACACTGATGCATTCAACAAGCCTATCCTTGGCCGAGAGGCCCGGGTAATCTTTGAAACTGCAT CGTGATGGGGATAGANTATTGCAATTATTAGTCTTCAACGAGGAATGCCTAGTAAGCGCGAGTCATCAGCTC                       '
p253
sg6
S'GTNTNCAAAGCANNNNACGCTCTGANTACATNAGCATGGAATAACNCGATAGGACTCTGGCNTATCTTGTTGGTCTGTAGGACTGGAGTAATGATTAAGAGGGACAGTCGGGGGCATTCGTATTTCATTGTCAGAGGTGAAATTCTTGGATTTATGAAAGACGAACTTCTGCGAAAGCATTTGCCAAGGATGTTTTCATTAATCAAGAACGAAAGTTGGGGGCTCGAAGACGATTAGATACCGTCGTAGTCTCAACCATAAACGATGCCGACTAGGGATTGGCGGGTGTTTCGTTGATGACCCCGCCAGCACCTTATGAGAAATCAAAGTCTTTGGGTTCCGGGGGGAGTATGGTCGCAAGGCTGAAACTTAAAGGAATTGACGGAAGGGCACCACCAGGCGTGGAGCCTGCGGCTTAATTTGACTCAACACGGGAAAACTTACCAGGTCCAGACACGGGAAGGATTGACAGATTGAGAGCTCTTTCTTGATTCTGTGGGTGGTGGTGCATGGCCGTTCTTAGTTGGTGGGTTGCCTTGTCAGGTTGATTCCGGTAACGAACGAGACCTCAGCCTGCTAAATAGTCACAGTTGCCTCTGGCAGCTGGCTGACTTCTTAGAGGGACTATTGTCGTTTAGGCAATGGAAGTATGAGGCAATAACAGGTCTGTGATGCCCTTAGATGTTCTGGGCCGCACGCGCGCTACACTGATGCATTCAACAAGCCTATCCTTGGCCGAGAGGCCCGGGTAATCTTTGAAACTGCATCGTGATGGGGATAGANTATTGCAATTATTAGTCTTCAACGAGGAATGCCTAGTAAGCGCGAGTCATCAGCTC'
p254
sg8
S'frwdrev'
p255
sg10
I01
sg11
g12
sg13
I01
sg14
(lp256
(dp257
g4
g12
sg6
g12
sg8
S'file'
p258
sg10
I00
sg11
g12
sg13
I00
sg14
(lp259
sg19
I00
sg20
I52
sg21
S'../CE_30-794584119/7-27L4_honeycomb_BDW1915-chloro18sMidF.ab1'
p260
sa(dp261
g4
g12
sg6
g12
sg8
S'file'
p262
sg10
I00
sg11
g12
sg13
I00
sg14
(lp263
sg19
I01
sg20
I53
sg21
S'honeycomb_BDW1915_7-27L4-snow18sSeqR.ab1'
p264
sasg19
I00
sg20
I51
sg21
S'honeycomb_BDW1915_7-27L4_18SB'
p265
sa(dp266
g4
S'                       ACGCAGCGAANTGCGATAC GTAGTGTGAATTGCAGAATTCCGTGAACCATCGAATTTTTGAACGCATATTGCGCTCAAGGCCTCGGCTAAGAGCATGTCTGCCTCAGCGTCGGGTTCCACGTCTCCCACTCTCATCTCATCTTTGATTTCGGAGTTTGGGAGGACCGATGGCAGTCTGGGCATTTATTTGCACGGTCTGCCCAAATGACATGTGGTGTTTCCTTGTGTGGGCGAGATAGTTCATTCAATCACGTCCATTCAAGCCGCACTCGAGTATTCATCTTGTATGTCTCTCGACCTCGACGGTTTGCACACTGAACTTGAGTTTAAAACCCTCACGCACCCCTCCACATAGCATTGGAAACCCAACACTTCTCGACCTGAGCTCAGGCAAGATTACCCGCTGAACTTAAGCATATCAATAAGCGGAGGAAAAGAAACCAACCAGGATTCCCCTAGTAACGGCGAGCGAACCGGGAAAAGCCCAACTTGAAAATCTCCCTCTTGGAGAATTGTAGTCTACAGAAGTGCCCTCTGCGGTCAGGGGAGCTCAAGTCCGCTGGAAGGCGGCGTCAAAGAGGGTGAGAACCCCGTCAGCTCCCACTTGGCTGCATCACGAGGTGCTTTCCACGAGTCGGGTTGTTTGGGAATGCAGCCCAAAATTGGAGGTAAATCCCTTCTAAGGCTAAATAATGGCGAGAGA                          '
p267
sg6
S'ACGCAGCGAANTGCGATACGTAGTGTGAATTGCAGAATTCCGTGAACCATCGAATTTTTGAACGCATATTGCGCTCAAGGCCTCGGCTAAGAGCATGTCTGCCTCAGCGTCGGGTTCCACGTCTCCCACTCTCATCTCATCTTTGATTTCGGAGTTTGGGAGGACCGATGGCAGTCTGGGCATTTATTTGCACGGTCTGCCCAAATGACATGTGGTGTTTCCTTGTGTGGGCGAGATAGTTCATTCAATCACGTCCATTCAAGCCGCACTCGAGTATTCATCTTGTATGTCTCTCGACCTCGACGGTTTGCACACTGAACTTGAGTTTAAAACCCTCACGCACCCCTCCACATAGCATTGGAAACCCAACACTTCTCGACCTGAGCTCAGGCAAGATTACCCGCTGAACTTAAGCATATCAATAAGCGGAGGAAAAGAAACCAACCAGGATTCCCCTAGTAACGGCGAGCGAACCGGGAAAAGCCCAACTTGAAAATCTCCCTCTTGGAGAATTGTAGTCTACAGAAGTGCCCTCTGCGGTCAGGGGAGCTCAAGTCCGCTGGAAGGCGGCGTCAAAGAGGGTGAGAACCCCGTCAGCTCCCACTTGGCTGCATCACGAGGTGCTTTCCACGAGTCGGGTTGTTTGGGAATGCAGCCCAAAATTGGAGGTAAATCCCTTCTAAGGCTAAATAATGGCGAGAGA'
p268
sg8
S'frwdrev'
p269
sg10
I01
sg11
g12
sg13
I01
sg14
(lp270
(dp271
g4
g12
sg6
g12
sg8
S'file'
p272
sg10
I00
sg11
g12
sg13
I00
sg14
(lp273
sg19
I00
sg20
I55
sg21
S'lemon_BLU2204_1-18L3-chloroITS2F.ab1'
p274
sa(dp275
g4
g12
sg6
g12
sg8
S'file'
p276
sg10
I00
sg11
g12
sg13
I00
sg14
(lp277
sg19
I01
sg20
I56
sg21
S'lemon_BLU2204_1-18L3-chloroITS2R.ab1'
p278
sasg19
I00
sg20
I54
sg21
S'lemon_BLU2204_1-18L3-chloroITS2'
p279
sa(dp280
g4
S'                                                                                                                                         TACGNTCNGAATNCATTAGCNNGGAANNACNCGATNNGANTCNNNNNTATCNTGTTGGTCTGTAGGANNGGAGTAATGATNNAGAGGGACAGTCGGGNGCATTCGTATTTCATTGTCAGAGGTGAAATTCTTGGATTTATGAAAGACGAACTTCTGCGAAAGCATTTGCCAAGGATGTTTTCATTAATCAAGAACGAAAGTTGGGGGCTCGAAGACGATTAGATACCGTCGTAGTCTCAACCATAAACGATGCCGACTAGGGATTGGCAGGTGTTCTTTTGATGACCCTGCCAGCACCTTATGAGAAATCAAAGTTTTTGGGTTCCGGGGGGAGTATGGTCGCAAGGCTGGAACTTAAAGGAATTGACGGAAGGGCACCACCAGGCGTGGAGCCTGCGGCTTAATTTGACTCAACACGGGAAAACTTACCAGGTCCAGACACGGGGAGGATTGACAGATTGAGAGCTCTTTCTTGATTCTGTGGGTGGTGGTGCATGGCCGTTCTTAGTTGGTGGGTTGCCTTGTCAGGTTGATTCCGGTAACGAACGAGACCTCAGCCTGCTAAATAGTCACGTCTGCCTCTCGCAGACGGCCGACTTCTTAGAGGGACTATTGTCGTTTAGGCAATGGAAGTATGAGGCAATAACAGGTCTGTGATGCCCTTAGATGTTCTGGGCCGCACGCGCGCTACACTGATGCGTTCAACGAGCCTATCCTTGGCCGAGAGGCCCGGGTAATCTTCGAAACCGC ATCGTGATGGGGATAGATTATTGCAATTATTAGTCTTCAACGAGGAATGCCTAGTAAGCGCGAGTCATCAGCTCGC                   '
p281
sg6
S'TACGNTCNGAATNCATTAGCNNGGAANNACNCGATNNGANTCNNNNNTATCNTGTTGGTCTGTAGGANNGGAGTAATGATNNAGAGGGACAGTCGGGNGCATTCGTATTTCATTGTCAGAGGTGAAATTCTTGGATTTATGAAAGACGAACTTCTGCGAAAGCATTTGCCAAGGATGTTTTCATTAATCAAGAACGAAAGTTGGGGGCTCGAAGACGATTAGATACCGTCGTAGTCTCAACCATAAACGATGCCGACTAGGGATTGGCAGGTGTTCTTTTGATGACCCTGCCAGCACCTTATGAGAAATCAAAGTTTTTGGGTTCCGGGGGGAGTATGGTCGCAAGGCTGGAACTTAAAGGAATTGACGGAAGGGCACCACCAGGCGTGGAGCCTGCGGCTTAATTTGACTCAACACGGGAAAACTTACCAGGTCCAGACACGGGGAGGATTGACAGATTGAGAGCTCTTTCTTGATTCTGTGGGTGGTGGTGCATGGCCGTTCTTAGTTGGTGGGTTGCCTTGTCAGGTTGATTCCGGTAACGAACGAGACCTCAGCCTGCTAAATAGTCACGTCTGCCTCTCGCAGACGGCCGACTTCTTAGAGGGACTATTGTCGTTTAGGCAATGGAAGTATGAGGCAATAACAGGTCTGTGATGCCCTTAGATGTTCTGGGCCGCACGCGCGCTACACTGATGCGTTCAACGAGCCTATCCTTGGCCGAGAGGCCCGGGTAATCTTCGAAACCGCATCGTGATGGGGATAGATTATTGCAATTATTAGTCTTCAACGAGGAATGCCTAGTAAGCGCGAGTCATCAGCTCGC'
p282
sg8
S'frwdrev'
p283
sg10
I01
sg11
g12
sg13
I01
sg14
(lp284
(dp285
g4
g12
sg6
g12
sg8
S'file'
p286
sg10
I00
sg11
g12
sg13
I00
sg14
(lp287
sg19
I00
sg20
I58
sg21
S'martian_DOG1906_1-10L1-chloro18sMidF.ab1'
p288
sa(dp289
g4
g12
sg6
g12
sg8
S'file'
p290
sg10
I00
sg11
g12
sg13
I00
sg14
(lp291
sg19
I01
sg20
I59
sg21
S'martian_DOG1906_1-10L1-snow18sSeqR.ab1'
p292
sasg19
I00
sg20
I57
sg21
S'martian_DOG1906_1-10L1_18SB'
p293
sa(dp294
g4
S'                                                       GTANNTCTAGAGNTAATACGTGCGTAAATCCCGACNTCTGGAAGGGACGTATTTATTAGATAAAAGGCCAGCCGAGCTTGCTCGACTTTAGGTGAATCATGATAACTCCACGAATCGCATGGCCTTGCGCCGGCGATGTTTCATTCAAATTTCTGCCCTATCAACTTTCGATGGTAGGATAGAGGCCTACCATGGTGGTAACGGGTGACGGAGGATTAGGGTTCGATTCCGGAGAGGGAGCCTGAGAAATGGCTACCACATCCAAGGAAGGCAGCAGGCGCGCAAATTACCCAATCCCGACACGGGGAGGTAGTGACAATAAATAACAATGCCGAGCATTTTATGTTTGGCAATTGGAATGAGCACAATCTAAACCCCTTAACGAGGATCCATTGGAGGGCAAGTCTGGTGCCAGCAGCCGCGGTAATTCCAGCTCCAATAGCGTATATTTAAGTTGTTGCAGTTAAAAAGCTCGTAGTTGGATTTCGGGTGGGTTGTAGTGGTCCGGTTCGCTGTGTACTGCTACGGCCTTCCTTTCTGCCGGAAACAGGCTCTTGGGCTTTACTGTCTGGGACCTGGAGTCGGCGAGGTTACTTTGAGTAAATTAGAGTGTTCAAAGCAAGCTTACGCTCTGAATACATTAGCATGGAATAACACGATAGGACTCTGGCCTATCTTGTTGGTCTGTAGGACTGGAGTAATGATTAAGAGGGACAGTCGGGGGCATTCGTATTTCATTGTCAGAGGTGAAATTCTTGGATTTATGAAAGACGAACTTCTGCGAAAGCATTNGCCAAGG                      '
p295
sg6
S'GTANNTCTAGAGNTAATACGTGCGTAAATCCCGACNTCTGGAAGGGACGTATTTATTAGATAAAAGGCCAGCCGAGCTTGCTCGACTTTAGGTGAATCATGATAACTCCACGAATCGCATGGCCTTGCGCCGGCGATGTTTCATTCAAATTTCTGCCCTATCAACTTTCGATGGTAGGATAGAGGCCTACCATGGTGGTAACGGGTGACGGAGGATTAGGGTTCGATTCCGGAGAGGGAGCCTGAGAAATGGCTACCACATCCAAGGAAGGCAGCAGGCGCGCAAATTACCCAATCCCGACACGGGGAGGTAGTGACAATAAATAACAATGCCGAGCATTTTATGTTTGGCAATTGGAATGAGCACAATCTAAACCCCTTAACGAGGATCCATTGGAGGGCAAGTCTGGTGCCAGCAGCCGCGGTAATTCCAGCTCCAATAGCGTATATTTAAGTTGTTGCAGTTAAAAAGCTCGTAGTTGGATTTCGGGTGGGTTGTAGTGGTCCGGTTCGCTGTGTACTGCTACGGCCTTCCTTTCTGCCGGAAACAGGCTCTTGGGCTTTACTGTCTGGGACCTGGAGTCGGCGAGGTTACTTTGAGTAAATTAGAGTGTTCAAAGCAAGCTTACGCTCTGAATACATTAGCATGGAATAACACGATAGGACTCTGGCCTATCTTGTTGGTCTGTAGGACTGGAGTAATGATTAAGAGGGACAGTCGGGGGCATTCGTATTTCATTGTCAGAGGTGAAATTCTTGGATTTATGAAAGACGAACTTCTGCGAAAGCATTNGCCAAGG'
p296
sg8
S'frwdrev'
p297
sg10
I01
sg11
g12
sg13
I01
sg14
(lp298
(dp299
g4
g12
sg6
g12
sg8
S'file'
p300
sg10
I00
sg11
g12
sg13
I00
sg14
(lp301
sg19
I00
sg20
I61
sg21
S'martian_DOG1906_1-10L1-chloro18sF.ab1'
p302
sa(dp303
g4
g12
sg6
g12
sg8
S'file'
p304
sg10
I00
sg11
g12
sg13
I00
sg14
(lp305
sg19
I01
sg20
I62
sg21
S'martian_DOG1906_1-10L1-chloro18sMidR.ab1'
p306
sasg19
I00
sg20
I60
sg21
S'martian_DOG1906_1-10L1_chloro18SA'
p307
sa(dp308
g4
S'                                AGCGNAATGCGATACGTAGTGTGAATTGCAGAATTCCGTGAACCATCGAATTTTTGAACGCATATTGCGCTCAAGGCTTCGGCCAAGAGCATGTCTGCCTCAGCGTCGGGTTCTCCATCATTGACTCCTCCCTCCTCACAGAGAGAGTAGCCATGGAAACTCGCAGTCCGATCCTCTGTTCTTGACCGAACGTTGGTGAGGTCTGCCAAAGTGAAAGTAGCGCTCCGAGCATCACCCATTCGTCTGTCAGCAATGGCGGGCGAGTGGGTATGTAGCCGCACTCGAGTAGTTGCGAATTCGCATGTTCACATGTGTTTTTCCTACCCGACTATCCTACACTTGCCCGGCTTCTCACTGATCCTCATCGGTCTTCTTCACGGAACGCCTTTGATTTCAGCTAGGAAGAACCAGCCTATATATACCTCCCAACATGGAACCCTTCACTTCTCGACCTGAGCTCAGGCAAGATTACCCGCTGAACTTAAGCATATCAATAAGCGGAGGAAAAGAAACCAACCAGGATTCCCCTAGTAACGGCGAGCGAACCGGGATCAGCCCAACTTGAAAATCTCCCTCTTGGAGAATTGTAGTCTACAGAAGTGCCCTCTGTGGTCATGCGAACTCAAGTCCGCTGGAAAGCGGCGTCAGAGAGGGTGAGAACCCCGTCGGTTCGCATTTGACCGCACCACGAGGTNCTTTCCACGAGTCGGGTTGTTTGGGAATGCAGCCCAAAATTGGAGGTAAATCCCTTCTAANNNNNNNNNNCGGCGANAGN                           '
p309
sg6
S'AGCGNAATGCGATACGTAGTGTGAATTGCAGAATTCCGTGAACCATCGAATTTTTGAACGCATATTGCGCTCAAGGCTTCGGCCAAGAGCATGTCTGCCTCAGCGTCGGGTTCTCCATCATTGACTCCTCCCTCCTCACAGAGAGAGTAGCCATGGAAACTCGCAGTCCGATCCTCTGTTCTTGACCGAACGTTGGTGAGGTCTGCCAAAGTGAAAGTAGCGCTCCGAGCATCACCCATTCGTCTGTCAGCAATGGCGGGCGAGTGGGTATGTAGCCGCACTCGAGTAGTTGCGAATTCGCATGTTCACATGTGTTTTTCCTACCCGACTATCCTACACTTGCCCGGCTTCTCACTGATCCTCATCGGTCTTCTTCACGGAACGCCTTTGATTTCAGCTAGGAAGAACCAGCCTATATATACCTCCCAACATGGAACCCTTCACTTCTCGACCTGAGCTCAGGCAAGATTACCCGCTGAACTTAAGCATATCAATAAGCGGAGGAAAAGAAACCAACCAGGATTCCCCTAGTAACGGCGAGCGAACCGGGATCAGCCCAACTTGAAAATCTCCCTCTTGGAGAATTGTAGTCTACAGAAGTGCCCTCTGTGGTCATGCGAACTCAAGTCCGCTGGAAAGCGGCGTCAGAGAGGGTGAGAACCCCGTCGGTTCGCATTTGACCGCACCACGAGGTNCTTTCCACGAGTCGGGTTGTTTGGGAATGCAGCCCAAAATTGGAGGTAAATCCCTTCTAANNNNNNNNNNCGGCGANAGN'
p310
sg8
S'frwdrev'
p311
sg10
I01
sg11
g12
sg13
I01
sg14
(lp312
(dp313
g4
g12
sg6
g12
sg8
S'file'
p314
sg10
I00
sg11
g12
sg13
I00
sg14
(lp315
sg19
I00
sg20
I64
sg21
S'martian_DOG1906_1-10L1-chloroITS2F.ab1'
p316
sa(dp317
g4
g12
sg6
g12
sg8
S'file'
p318
sg10
I00
sg11
g12
sg13
I00
sg14
(lp319
sg19
I01
sg20
I65
sg21
S'martian_DOG1906_1-10L1-chloroITS2R.ab1'
p320
sasg19
I00
sg20
I63
sg21
S'martian_DOG1906_1-10L1-chloroITS2'
p321
sa(dp322
g4
S'                                                                                                               GTCNGTAGGACTGGAGTAATGATTAAGAGGGACAGTCGGGGGCATTCGTATTTCATTGTCAGAGGTGAAATTCTTGGATTTATGAAAGACGAACTTCTGCGAAAGCATTTGCCAAGGATGTTTTCATTAATCAAGAACGAAAGTTGGGGGCTCGAAGACGATTAGATACCGTCGTAGTCTCAACCATAAACGATGCCGACTAGGGATTGGCAGGTGTTCTTTTGATGACCCTGCCAGCACCTTATGAGAAATCAAAGTTTTTGGGTTCCGGGGGGAGTATGGTCGCAAGGCTGAAACTTAAAGGAATTGACGGAAGGGCACCACCAGGCGTGGAGCCTGCGGCTTAATTTGACTCAACACGGGAAAACTTACCAGGTCCAGACACGGGGAGGATTGACAGATTGAGAGCTCTTTCTTGATTCTGTGGGTGGTGGTGCATGGCCGTTCTTAGTTGGTGGGTTGCCTTGTCAGGTTGATTCCGGTAACGAACGAGACCTCAGCCTGCTAAATAGTCACGTCTGCCTCTCGCAGACGGCCGACTTCTTAGAGGGACTATTGTCGTTTAGGCAATGGAAGTATGAGGCAATAACAGGTCTGTGATGCCCTTAGATGTTCTGGGCCGCACGCGCGCTACACTGATGCGTTCAACGAGCCTATCCTTGGCCGAGAGGCCCGGGTAATCTTCGAAACCGCAT CGTGATGGGGATAGATTATTGCAATTATTAGTCTTCAACGAGGAATGCCTAGTAAGCGCGAGTCATCAGCTCGCGT                    '
p323
sg6
S'GTCNGTAGGACTGGAGTAATGATTAAGAGGGACAGTCGGGGGCATTCGTATTTCATTGTCAGAGGTGAAATTCTTGGATTTATGAAAGACGAACTTCTGCGAAAGCATTTGCCAAGGATGTTTTCATTAATCAAGAACGAAAGTTGGGGGCTCGAAGACGATTAGATACCGTCGTAGTCTCAACCATAAACGATGCCGACTAGGGATTGGCAGGTGTTCTTTTGATGACCCTGCCAGCACCTTATGAGAAATCAAAGTTTTTGGGTTCCGGGGGGAGTATGGTCGCAAGGCTGAAACTTAAAGGAATTGACGGAAGGGCACCACCAGGCGTGGAGCCTGCGGCTTAATTTGACTCAACACGGGAAAACTTACCAGGTCCAGACACGGGGAGGATTGACAGATTGAGAGCTCTTTCTTGATTCTGTGGGTGGTGGTGCATGGCCGTTCTTAGTTGGTGGGTTGCCTTGTCAGGTTGATTCCGGTAACGAACGAGACCTCAGCCTGCTAAATAGTCACGTCTGCCTCTCGCAGACGGCCGACTTCTTAGAGGGACTATTGTCGTTTAGGCAATGGAAGTATGAGGCAATAACAGGTCTGTGATGCCCTTAGATGTTCTGGGCCGCACGCGCGCTACACTGATGCGTTCAACGAGCCTATCCTTGGCCGAGAGGCCCGGGTAATCTTCGAAACCGCATCGTGATGGGGATAGATTATTGCAATTATTAGTCTTCAACGAGGAATGCCTAGTAAGCGCGAGTCATCAGCTCGCGT'
p324
sg8
S'frwdrev'
p325
sg10
I01
sg11
g12
sg13
I01
sg14
(lp326
(dp327
g4
g12
sg6
g12
sg8
S'file'
p328
sg10
I00
sg11
g12
sg13
I00
sg14
(lp329
sg19
I00
sg20
I67
sg21
S'petal_BUG1901_1-18L1-chloro18sMidF.ab1'
p330
sa(dp331
g4
g12
sg6
g12
sg8
S'file'
p332
sg10
I00
sg11
g12
sg13
I00
sg14
(lp333
sg19
I01
sg20
I68
sg21
S'petal_BUG1901_1-18L1-snow18sSeqR.ab1'
p334
sasg19
I00
sg20
I66
sg21
S'petal_BUG1901_1-18L1_18SB'
p335
sa(dp336
g4
S'                                                                      ANGGGACGTATTTATTAGATAAAAGGCCAGCCGAGCTTGCTCGACTTTAGGTGAATCATGATAACTCCACGAATCGCATGGCCTTGTGCCGGCGATGTTTCATTCAAATTTCTGCCCTATCAACTTTCGATGGTAGGATAGAGGCCTACCATGGTGGTAACGGGTGACGGAGGATTAGGGTTCGATTCCGGAGAGGGAGCCTGAGAAATGGCTACCACATCCAAGGAAGNNNGCAGGCGCGCAAATTACCCAATCCCGACACGGGGAGGTAGTGACAATAAATAACAATGCCGAGCATTTTATGTTTGGCAATTGGAATGAGCACAATCTAAACCCCTTAACGAGGATCCATTGGAGGGCAAGTCTGGTGCCAGCAGCCGCGGTAATTCCAGCTCCAATAGCGTATATTTAAGTTGTTGCAGTTAAAAAGCTCGTAGTTGGATTTCGGGTGGGTTGTAGTGGTCCGGTTCGCTGTGTACTGCTACGGCCTTCCTTTCTGCCGGAAACGGGCTCTTGGGCTTTACTGTCTGGGACTCGGAGTCGGCGAGGTTACTTTGAGTAAATTAGAGTGTTCAAAGCAAGCTTACGCTCTGAATACATTAGCATGGAATAACACGANNGGACTCTGGCCTATCTTGTTGGTCTGTAGGACTGGAGTAATGATTAAGAGGGACAGTCGGGGGCATTCGTATTTCATTGTCAGAGGTGAAATTCTTGGATTTATGAAAGACGAACTTCTGCGAAAGCATTNGCCAAGG                     '
p337
sg6
S'ANGGGACGTATTTATTAGATAAAAGGCCAGCCGAGCTTGCTCGACTTTAGGTGAATCATGATAACTCCACGAATCGCATGGCCTTGTGCCGGCGATGTTTCATTCAAATTTCTGCCCTATCAACTTTCGATGGTAGGATAGAGGCCTACCATGGTGGTAACGGGTGACGGAGGATTAGGGTTCGATTCCGGAGAGGGAGCCTGAGAAATGGCTACCACATCCAAGGAAGNNNGCAGGCGCGCAAATTACCCAATCCCGACACGGGGAGGTAGTGACAATAAATAACAATGCCGAGCATTTTATGTTTGGCAATTGGAATGAGCACAATCTAAACCCCTTAACGAGGATCCATTGGAGGGCAAGTCTGGTGCCAGCAGCCGCGGTAATTCCAGCTCCAATAGCGTATATTTAAGTTGTTGCAGTTAAAAAGCTCGTAGTTGGATTTCGGGTGGGTTGTAGTGGTCCGGTTCGCTGTGTACTGCTACGGCCTTCCTTTCTGCCGGAAACGGGCTCTTGGGCTTTACTGTCTGGGACTCGGAGTCGGCGAGGTTACTTTGAGTAAATTAGAGTGTTCAAAGCAAGCTTACGCTCTGAATACATTAGCATGGAATAACACGANNGGACTCTGGCCTATCTTGTTGGTCTGTAGGACTGGAGTAATGATTAAGAGGGACAGTCGGGGGCATTCGTATTTCATTGTCAGAGGTGAAATTCTTGGATTTATGAAAGACGAACTTCTGCGAAAGCATTNGCCAAGG'
p338
sg8
S'file'
p339
sg10
I01
sg11
g12
sg13
I01
sg14
(lp340
sg19
I01
sg20
I69
sg21
S'petal_BUG1901_1-18L1-chloro18sMidR.ab1'
p341
sa(dp342
g4
S'              NGAGAACGCAGCGAANTGCGATACGTAGTGTGANTTGCAGAATTCCGTGAACCATCGAATTTTTGAACGCATATTGCGCTCAAGGCTTCGGCCAAGAGCATGTCTGCCTCAGCGTCGGGTTCTCCATCATGGACTCTCCTCTCTTCTTTCGATTAGAGTGGCGAGTCGTGGAAACTCGCAGTCCGATCCTCCGTTCTTCATTGAGCGTTGGTGAGGTCTGCCAAAGTGAAAGTAGTGCTCCGAGCATCGCCCATCCATGTGTCAGCAATGGCGTGTGTTTGGGTATGTAGCCGCACTCGAGTAGTTGTGATCTCACATGTGTTCACTCACGTGTGTTTTTCCTATTCGACTATCCTACAATTTGCTCGGCTTCTCTTTGTTGTCATCACCATGTGTGATAGCAACATCCGAGACGACCCCAGCCCTATATTAGTATACCTCCCAACATGGAACCCTTCACTTCTCGACCTGAGCTCAGGCAAGATTACCCGCTGAACTTAAGCATATCAATAAGCGGAGGAAAAGAAACCAACCAGGATTCCCCTAGTAACGGCGAGCGAACCGGGATCAGCCCAACTTGAAAATCTCCCTCTTGGAGAATTGTAGTCTACAGAAGTGCCCTCTGTGGCCGTGGGAGCTCAAGTTCGCTGGAAGGCGACGTCAAAGAGGGTGAGAACCCCGTCGGCTCCCATCTGGCTGCACCACGAGGTGCTTTCCACGAGTCGGGTTGTTTGGGAATGCAGCCCAAAATTGGAGGTAAATCCCTTCTAANGCTNAATANCGGCN                                     '
p343
sg6
S'NGAGAACGCAGCGAANTGCGATACGTAGTGTGANTTGCAGAATTCCGTGAACCATCGAATTTTTGAACGCATATTGCGCTCAAGGCTTCGGCCAAGAGCATGTCTGCCTCAGCGTCGGGTTCTCCATCATGGACTCTCCTCTCTTCTTTCGATTAGAGTGGCGAGTCGTGGAAACTCGCAGTCCGATCCTCCGTTCTTCATTGAGCGTTGGTGAGGTCTGCCAAAGTGAAAGTAGTGCTCCGAGCATCGCCCATCCATGTGTCAGCAATGGCGTGTGTTTGGGTATGTAGCCGCACTCGAGTAGTTGTGATCTCACATGTGTTCACTCACGTGTGTTTTTCCTATTCGACTATCCTACAATTTGCTCGGCTTCTCTTTGTTGTCATCACCATGTGTGATAGCAACATCCGAGACGACCCCAGCCCTATATTAGTATACCTCCCAACATGGAACCCTTCACTTCTCGACCTGAGCTCAGGCAAGATTACCCGCTGAACTTAAGCATATCAATAAGCGGAGGAAAAGAAACCAACCAGGATTCCCCTAGTAACGGCGAGCGAACCGGGATCAGCCCAACTTGAAAATCTCCCTCTTGGAGAATTGTAGTCTACAGAAGTGCCCTCTGTGGCCGTGGGAGCTCAAGTTCGCTGGAAGGCGACGTCAAAGAGGGTGAGAACCCCGTCGGCTCCCATCTGGCTGCACCACGAGGTGCTTTCCACGAGTCGGGTTGTTTGGGAATGCAGCCCAAAATTGGAGGTAAATCCCTTCTAANGCTNAATANCGGCN'
p344
sg8
S'frwdrev'
p345
sg10
I01
sg11
g12
sg13
I01
sg14
(lp346
(dp347
g4
g12
sg6
g12
sg8
S'file'
p348
sg10
I00
sg11
g12
sg13
I00
sg14
(lp349
sg19
I00
sg20
I71
sg21
S'petal_BUG1901_1-18L1-chloroITS2F.ab1'
p350
sa(dp351
g4
g12
sg6
g12
sg8
S'file'
p352
sg10
I00
sg11
g12
sg13
I00
sg14
(lp353
sg19
I01
sg20
I72
sg21
S'petal_BUG1901_1-18L1-chloroITS2R.ab1'
p354
sasg19
I00
sg20
I70
sg21
S'petal_BUG1901_1-18L1-chloroITS2'
p355
sa(dp356
g4
S'                                                                                                                                                 CACGATAGGACTCTGGCCTATCTTGTTGGTCTGTAGGACTGGAGTAATGATTAAGAGGGACAGTC  GGGGGCATTCGTATTTCATTGTCAGAGGTGAAATTCTTGGATTTATGAAAGACGAACTTCTGCGAAAGCATTTGCCAAGGATGTTTTCATTAATCAAGAACGAAAGTTGGGGGCTCGAAGACGATTAGATACCGTCGTAGTCTCAACCATAAACGATGCCGACTAGGGATTGGCAGGTGTTCTTTTGATGACCCTGCCAGCACCTTATGAGAAATCAAAGTTTTTGGGTTCCGGGGGGAGTATGGTCGCAAGGCTGAAACTTAAAGGAATTGACGGAAGGGCACCACCAGGCGTGGAGCCTGCGGCTTAATTTGACTCAACACGGGAAAACTTACCAGGTCCAGACACGGGGAGGATTGACAGATTGAGAGCTCTTTCTTGATTCTGTGGGTGGTGGTGCATGGCCGTTCTTAGTTGGTGGGTTGCCTTGTCAGGTTGATTCCGGTAACGAACGAGACCTCAGCCTGCTAAATAGTCACGTCTGCCTCTCGCAGACGGCCGACTTCTTAGAGGGACTATTGTCGTTTAGGCAATGGAAGTATGAGGCAATAACAGGTCTGTGATGCCCTTAGATGTTCTGGGCCGCACGCGCGCTACACTGATGCGTTCAACGAGCCTATCCTTGGCCGAGAGGCCCGGGTAATCTTCGAAACCGCATCGTGATGGGGATAGATTATTGCAATTATTAGTCTTCAACGAGGAATGCCTAGTAAGCGCGAGTCATCAGCTCGC                     '
p357
sg6
S'CACGATAGGACTCTGGCCTATCTTGTTGGTCTGTAGGACTGGAGTAATGATTAAGAGGGACAGTCGGGGGCATTCGTATTTCATTGTCAGAGGTGAAATTCTTGGATTTATGAAAGACGAACTTCTGCGAAAGCATTTGCCAAGGATGTTTTCATTAATCAAGAACGAAAGTTGGGGGCTCGAAGACGATTAGATACCGTCGTAGTCTCAACCATAAACGATGCCGACTAGGGATTGGCAGGTGTTCTTTTGATGACCCTGCCAGCACCTTATGAGAAATCAAAGTTTTTGGGTTCCGGGGGGAGTATGGTCGCAAGGCTGAAACTTAAAGGAATTGACGGAAGGGCACCACCAGGCGTGGAGCCTGCGGCTTAATTTGACTCAACACGGGAAAACTTACCAGGTCCAGACACGGGGAGGATTGACAGATTGAGAGCTCTTTCTTGATTCTGTGGGTGGTGGTGCATGGCCGTTCTTAGTTGGTGGGTTGCCTTGTCAGGTTGATTCCGGTAACGAACGAGACCTCAGCCTGCTAAATAGTCACGTCTGCCTCTCGCAGACGGCCGACTTCTTAGAGGGACTATTGTCGTTTAGGCAATGGAAGTATGAGGCAATAACAGGTCTGTGATGCCCTTAGATGTTCTGGGCCGCACGCGCGCTACACTGATGCGTTCAACGAGCCTATCCTTGGCCGAGAGGCCCGGGTAATCTTCGAAACCGCATCGTGATGGGGATAGATTATTGCAATTATTAGTCTTCAACGAGGAATGCCTAGTAAGCGCGAGTCATCAGCTCGC'
p358
sg8
S'frwdrev'
p359
sg10
I01
sg11
g12
sg13
I01
sg14
(lp360
(dp361
g4
g12
sg6
g12
sg8
S'file'
p362
sg10
I00
sg11
g12
sg13
I00
sg14
(lp363
sg19
I00
sg20
I74
sg21
S'../CE_30-766753846/petal_CAT20TR8_7-22L2-chloro18SMidF.ab1'
p364
sa(dp365
g4
g12
sg6
g12
sg8
S'file'
p366
sg10
I00
sg11
g12
sg13
I00
sg14
(lp367
sg19
I01
sg20
I75
sg21
S'petal_CAT20TR8_7-22L2-snow18sSeqR.ab1'
p368
sasg19
I00
sg20
I73
sg21
S'petal_CAT20TR8_7-22L2_18SB'
p369
sa(dp370
g4
S'                                                                                              TNACACGATAGGACTCTGGCNTATCTTGTTGGTCTGTAGGACTGGAGTAATGATTAAGAGGGACAGTCGGGGGCATTCGTATTTCATTGTCAGAGGTGAAATTCTTGGATTTATGAAAGACGAACTTCTGCGAAAGCATTTGCCAAGGATGTTTTCATTAATCAAGAACGAAAGTTGGGGGCTCGAAGACGATTAGATACCGTCGTAGTCTCAACCATAAACGATGCCGACTAGGGATTGGCAGGTGTTCTTTTGATGACCCTGCCAGCACCTTATGAGAAATCAAAGTTTTTGGGTTCCGGGGGGAGTATGGTCGCAAGGCTGAAACTTAAAGGAATTGACGGAAGGGCACCACCAGGCGTGGAGCCTGCGGCTTAATTTGACTCAACACGGGAAAACTTACCAGGTCCAGACACGGGGAGGATTGACAGATTGAGAGCTCTTTCTTGATTCTGTGGGTGGTGGTGCATGGCCGTTCTTAGTTGGTGGGTTGCCTTGTCAGGTTGATTCCGGTAACGAACGAGACCTCAGCCTGCTAAATAGTCACGTCTGCCTCTCGCAGACGGCCGACTTCTTAGAGGGACTATTGTCGTTTAGGCAATGGAAGTATGAGGCAATAACAGGTCTGTGATGCCCTTAGATGTTCTGGGCCGCACGCGCGCTACACTGATGCGTTCAACGAGCCTATCCTTGGCCGAGAGGCCCGGGTAATCTTCGAAACCGCATCGTGATGGGGATAGATTATTGCAATTATTAGTCTTCAACGAGGAATGCCTAGTAAGCGCGAGTCATCAGCTCG                       '
p371
sg6
S'TNACACGATAGGACTCTGGCNTATCTTGTTGGTCTGTAGGACTGGAGTAATGATTAAGAGGGACAGTCGGGGGCATTCGTATTTCATTGTCAGAGGTGAAATTCTTGGATTTATGAAAGACGAACTTCTGCGAAAGCATTTGCCAAGGATGTTTTCATTAATCAAGAACGAAAGTTGGGGGCTCGAAGACGATTAGATACCGTCGTAGTCTCAACCATAAACGATGCCGACTAGGGATTGGCAGGTGTTCTTTTGATGACCCTGCCAGCACCTTATGAGAAATCAAAGTTTTTGGGTTCCGGGGGGAGTATGGTCGCAAGGCTGAAACTTAAAGGAATTGACGGAAGGGCACCACCAGGCGTGGAGCCTGCGGCTTAATTTGACTCAACACGGGAAAACTTACCAGGTCCAGACACGGGGAGGATTGACAGATTGAGAGCTCTTTCTTGATTCTGTGGGTGGTGGTGCATGGCCGTTCTTAGTTGGTGGGTTGCCTTGTCAGGTTGATTCCGGTAACGAACGAGACCTCAGCCTGCTAAATAGTCACGTCTGCCTCTCGCAGACGGCCGACTTCTTAGAGGGACTATTGTCGTTTAGGCAATGGAAGTATGAGGCAATAACAGGTCTGTGATGCCCTTAGATGTTCTGGGCCGCACGCGCGCTACACTGATGCGTTCAACGAGCCTATCCTTGGCCGAGAGGCCCGGGTAATCTTCGAAACCGCATCGTGATGGGGATAGATTATTGCAATTATTAGTCTTCAACGAGGAATGCCTAGTAAGCGCGAGTCATCAGCTCG'
p372
sg8
S'frwdrev'
p373
sg10
I01
sg11
g12
sg13
I01
sg14
(lp374
(dp375
g4
g12
sg6
g12
sg8
S'file'
p376
sg10
I00
sg11
g12
sg13
I00
sg14
(lp377
sg19
I00
sg20
I77
sg21
S'../CE_30-766753846/petal_WED2236_8-31L2-chloro18SMidF.ab1'
p378
sa(dp379
g4
g12
sg6
g12
sg8
S'file'
p380
sg10
I00
sg11
g12
sg13
I00
sg14
(lp381
sg19
I01
sg20
I78
sg21
S'petal_WED2236_8-31L2-snow18sSeqR.ab1'
p382
sasg19
I00
sg20
I76
sg21
S'petal_WED2236_8-31L2_18SB'
p383
sa(dp384
g4
S'                        TGTCAGAGGTGAAATTCTTGGATTTATGAAAGACGAACTTCTGCGAAAGCATTTGCCAAGGATGTTTTCATTAATCAAGAACGAAAGTTGGGGGCTCGAAGACGATTAGATACCGTCGTAGTCTCAACCATAAACGATGCCGACTAGGGATTGGCAGGTGTTCTTTTGATGACCCTGCCAGCACCTTATGAGAAATCAAAGTTTTTGGGTTCCGGGGGGAGTATGGTCGCAAGGCTGAAACTTAAAGGAATTGACGGAAGGGCACCACCAGGCGTGGAGCCTGCGGCTTAATTTGACTCAACACGGGAAAACTTACCAGGTCCAGACACGGGGAGGATTGACAGATTGAGAGCTCTTTCTTGATTCTGTGGGTGGTGGTGCATGGCCGTTCTTAGTTGGTGGGTTGCCTTGTCAGGTTGATTCCGGTAACGAACGAGACCTCAGCCTGCTAAATAGTCACGTCTGCCTCTCGCAGACGGCCGACTTCTTAGAGGGACTATTGTCGTTTAGGCAATGGAAGTATGAGGCAATAACAGGTCTGTGATGCCCTTAGATGTTCTGGGCCGCACGCGCGCTACACTGATGCGTTCAACGAGCCTATCCTTGGCCGAGAGGCCCGGGTAATCTTCGAAACCGCATCNGTGATGGGGATAGATTATTGCAATTATTAGTCTTCAACGAGGAATGCCTAGTAAGCGCGAGTCATCAGCTCGC                     '
p385
sg6
S'TGTCAGAGGTGAAATTCTTGGATTTATGAAAGACGAACTTCTGCGAAAGCATTTGCCAAGGATGTTTTCATTAATCAAGAACGAAAGTTGGGGGCTCGAAGACGATTAGATACCGTCGTAGTCTCAACCATAAACGATGCCGACTAGGGATTGGCAGGTGTTCTTTTGATGACCCTGCCAGCACCTTATGAGAAATCAAAGTTTTTGGGTTCCGGGGGGAGTATGGTCGCAAGGCTGAAACTTAAAGGAATTGACGGAAGGGCACCACCAGGCGTGGAGCCTGCGGCTTAATTTGACTCAACACGGGAAAACTTACCAGGTCCAGACACGGGGAGGATTGACAGATTGAGAGCTCTTTCTTGATTCTGTGGGTGGTGGTGCATGGCCGTTCTTAGTTGGTGGGTTGCCTTGTCAGGTTGATTCCGGTAACGAACGAGACCTCAGCCTGCTAAATAGTCACGTCTGCCTCTCGCAGACGGCCGACTTCTTAGAGGGACTATTGTCGTTTAGGCAATGGAAGTATGAGGCAATAACAGGTCTGTGATGCCCTTAGATGTTCTGGGCCGCACGCGCGCTACACTGATGCGTTCAACGAGCCTATCCTTGGCCGAGAGGCCCGGGTAATCTTCGAAACCGCATCNGTGATGGGGATAGATTATTGCAATTATTAGTCTTCAACGAGGAATGCCTAGTAAGCGCGAGTCATCAGCTCGC'
p386
sg8
S'frwdrev'
p387
sg10
I01
sg11
g12
sg13
I01
sg14
(lp388
(dp389
g4
g12
sg6
g12
sg8
S'file'
p390
sg10
I00
sg11
g12
sg13
I00
sg14
(lp391
sg19
I00
sg20
I80
sg21
S'raisin_DON1901_1-10L3-chloro18sMidF.ab1'
p392
sa(dp393
g4
g12
sg6
g12
sg8
S'file'
p394
sg10
I00
sg11
g12
sg13
I00
sg14
(lp395
sg19
I01
sg20
I81
sg21
S'raisin_DON1901_1-10L3-snow18sSeqR.ab1'
p396
sasg19
I00
sg20
I79
sg21
S'raisin_DON1901_1-10L3_18SA'
p397
sa(dp398
g4
S'                            GATNGGTACTTACTACTCGGATAACCGTAGTAATTCTAGAGCTAATACGTGCGTAAATCCCGACTTCTGGAAGGGACGTATTTATTAGATAAAAGGCCAGCCGAGCTTGCTCGACTTTAGGTGAATCATGATAACTNCACGAATCGCATGGCCTTGCGCCGGCGATGTTTCATTCAAATTTCTGCCCTATCAACTTTCGATGGTAGGATAGAGGCCTACCATGGTGGTAACGGGTGACGGAGGATTAGGGTTCGATTCCGGAGAGGGAGCCTGAGAAATGGCTACCACATCCAAGGAAGGCAGCAGGCGCGCAAATTACCCAATCCCGACACGGGGAGGTAGTGACAATAAATAACAATGCCGAGCATTTTATGTTTGGCAATTGGAATGAGCACAATCTAAACCCCTTAACGAGGATCCATTGGAGGGCAAGTCTGGTGCCAGCAGCCGCGGTAATTCCAGCTCCAATAGCGTATATTTAAGTTGTTGCAGTTAAAAAGCTCGTAGTTGGATTTCGGGTGGGTTGTAGTGGTCCGGTTCGCTGTGTACTGCTACGGCCTTCCTTTCTGCCGGAAACGGGCTCTTGGGCTTNANTGTCTGGGACNCGGAGTCGGCGAGGTTACTTTGAGTAAATTAGAGTG TTCAAAGC AAGCTTACGCTCTGAA TACATTAGCATGG AATAACACGA TAGGACTCTGGCCTATCTTGTTGG TCTGTA GGACTGGAGTAATGATTAAGAGGGACAGTCGGGGGCA TTCGTA TTTCATTGTCAGAGGTGAAA TTCTT GGA TTTA TG AAAG ACGAAC TTC TGCGAAAGCATTTGCCAAGGAN                    '
p399
sg6
S'GATNGGTACTTACTACTCGGATAACCGTAGTAATTCTAGAGCTAATACGTGCGTAAATCCCGACTTCTGGAAGGGACGTATTTATTAGATAAAAGGCCAGCCGAGCTTGCTCGACTTTAGGTGAATCATGATAACTNCACGAATCGCATGGCCTTGCGCCGGCGATGTTTCATTCAAATTTCTGCCCTATCAACTTTCGATGGTAGGATAGAGGCCTACCATGGTGGTAACGGGTGACGGAGGATTAGGGTTCGATTCCGGAGAGGGAGCCTGAGAAATGGCTACCACATCCAAGGAAGGCAGCAGGCGCGCAAATTACCCAATCCCGACACGGGGAGGTAGTGACAATAAATAACAATGCCGAGCATTTTATGTTTGGCAATTGGAATGAGCACAATCTAAACCCCTTAACGAGGATCCATTGGAGGGCAAGTCTGGTGCCAGCAGCCGCGGTAATTCCAGCTCCAATAGCGTATATTTAAGTTGTTGCAGTTAAAAAGCTCGTAGTTGGATTTCGGGTGGGTTGTAGTGGTCCGGTTCGCTGTGTACTGCTACGGCCTTCCTTTCTGCCGGAAACGGGCTCTTGGGCTTNANTGTCTGGGACNCGGAGTCGGCGAGGTTACTTTGAGTAAATTAGAGTGTTCAAAGCAAGCTTACGCTCTGAATACATTAGCATGGAATAACACGATAGGACTCTGGCCTATCTTGTTGGTCTGTAGGACTGGAGTAATGATTAAGAGGGACAGTCGGGGGCATTCGTATTTCATTGTCAGAGGTGAAATTCTTGGATTTATGAAAGACGAACTTCTGCGAAAGCATTTGCCAAGGAN'
p400
sg8
S'frwdrev'
p401
sg10
I01
sg11
g12
sg13
I01
sg14
(lp402
(dp403
g4
g12
sg6
g12
sg8
S'file'
p404
sg10
I00
sg11
g12
sg13
I00
sg14
(lp405
sg19
I00
sg20
I83
sg21
S'raisin_DON1901_1-10L3-chloro18sF.ab1'
p406
sa(dp407
g4
g12
sg6
g12
sg8
S'file'
p408
sg10
I00
sg11
g12
sg13
I00
sg14
(lp409
sg19
I01
sg20
I84
sg21
S'raisin_DON1901_1-10L3-chloro18sMidR.ab1'
p410
sasg19
I00
sg20
I82
sg21
S'raisin_DON1901_1-10L3_18SA'
p411
sa(dp412
g4
S'                                   NAACGCAGCGAAATGCGATANCGTNGTGTGAANNGCAGAATTCCGTGAACCATCGAATTTTTGAACGCATATTGCGCTCAAGGCTTCGGCCAAGAGCATGTCTGCCTCAGCGTCGGGTTCTCCATCATNTACTCCTCTTNTCTTTCGAAGANAGAAGTCGTGGAAACTCGCAGTCCGATCCTTCGTTCTTCATTGAACATCGGTGAGGTCTGCCAAAGTGAAAGTAGCGCTCCGAGCATTGCCCATCTATTCGTCAGCAATGGCGAGTGGATGGGTATGTAGCCGCACTCGAGTAGTTGTACTTCGTATTCNCGTATGCTGTACTTGCTTGACTATCNTACAACTTGCTTGGCTTCTCTTCGAATTCATCGGTCTTCCTTTGCTTTCGATAGAGNCGAATACCAGCCTATACATCCCTACATGGAACCCTTCACTTCTCGACCTGAGCTCAGGCAAGATTACCCGCTGAACTTAAGCATATCAATAAGCGGAGGAAAAGAAACCAACCAGGATTCCCCTAGTAACGGCGAGCGAACCGGGATCAGCCCAACTTGAAAATCTCCCTCTTGGAGAATTGTAGTCTACAGAAGTGCCCTCTGTGGNCGTGCGAGCTCAAGTCCGCTGGAAGGCGGCGTCAAAGAGGGTGAGAACCCCGTCGGCTCNCATCTGACCGCACCACGAGGTGCTTTCCACGAGTCGGGTTGTTTGGGAATGCAGCCCAAAATTGGAGGTAAATCCCTTC                                                                    '
p413
sg6
S'NAACGCAGCGAAATGCGATANCGTNGTGTGAANNGCAGAATTCCGTGAACCATCGAATTTTTGAACGCATATTGCGCTCAAGGCTTCGGCCAAGAGCATGTCTGCCTCAGCGTCGGGTTCTCCATCATNTACTCCTCTTNTCTTTCGAAGANAGAAGTCGTGGAAACTCGCAGTCCGATCCTTCGTTCTTCATTGAACATCGGTGAGGTCTGCCAAAGTGAAAGTAGCGCTCCGAGCATTGCCCATCTATTCGTCAGCAATGGCGAGTGGATGGGTATGTAGCCGCACTCGAGTAGTTGTACTTCGTATTCNCGTATGCTGTACTTGCTTGACTATCNTACAACTTGCTTGGCTTCTCTTCGAATTCATCGGTCTTCCTTTGCTTTCGATAGAGNCGAATACCAGCCTATACATCCCTACATGGAACCCTTCACTTCTCGACCTGAGCTCAGGCAAGATTACCCGCTGAACTTAAGCATATCAATAAGCGGAGGAAAAGAAACCAACCAGGATTCCCCTAGTAACGGCGAGCGAACCGGGATCAGCCCAACTTGAAAATCTCCCTCTTGGAGAATTGTAGTCTACAGAAGTGCCCTCTGTGGNCGTGCGAGCTCAAGTCCGCTGGAAGGCGGCGTCAAAGAGGGTGAGAACCCCGTCGGCTCNCATCTGACCGCACCACGAGGTGCTTTCCACGAGTCGGGTTGTTTGGGAATGCAGCCCAAAATTGGAGGTAAATCCCTTC'
p414
sg8
S'frwdrev'
p415
sg10
I01
sg11
g12
sg13
I01
sg14
(lp416
(dp417
g4
g12
sg6
g12
sg8
S'file'
p418
sg10
I00
sg11
g12
sg13
I00
sg14
(lp419
sg19
I00
sg20
I86
sg21
S'raisin_DON1901_1-10L3-chloroITS2F.ab1'
p420
sa(dp421
g4
g12
sg6
g12
sg8
S'file'
p422
sg10
I00
sg11
g12
sg13
I00
sg14
(lp423
sg19
I01
sg20
I87
sg21
S'raisin_DON1901_1-10L3-chloroITS2R.ab1'
p424
sasg19
I00
sg20
I85
sg21
S'raisin_DON1901_1-10L3-chloroITS2'
p425
sa(dp426
g4
S'                                                                                                                                    CCTATCTTGTNGGTNTGTAGGANTGGAGTAATGATTAAGAGGGACAGTC GGGGGCATTCGTATTTCATTGTCAGAGGTGAAATTCTTGGATTTATGAAAGACGAACTTCTGCGAAAGCATTTGCCAAGGATGTTTTCATTAATCAAGAACGAAAGTTGGGGGCTCGAAGACGATTAGATACCGTCGTAGTCTCAACCATAAACGATGCCGACTAGGGATTGGCGGGTGTTTCGTTGATGACCCCGCCAGCACCTTATGAGAAATCAAAGTCTTTGGGTTCCGGGGGGAGTATGGTCGCAAGGCTGAAACTTAAAGGAATTGACGGAAGGGCACCACCAGGCGTGGAGCCTGCGGCTTAATTTGACTCAACACGGGAAAACTTACCAGGTCCAGACACGGGAAGGATTGACAGATTGAGAGCTCTTTCTTGATTCTGTGGGTGGTGGTGCATGGCCGTTCTTAGTTGGTGGGTTGCCTTGTCAGGTTGATTCCGGTAACGAACGAGACCTCAGCCTGCTAAATAGTCACAGTTGCCTCTGGCAGCTGGCTGACTTCTTAGAGGGACTATTGTCGTTTAGGCAATGGAAGTATGAGGCAATAACAGGTCTGTGATGCCCTTAGATGTTCTGGGCCGCACGCGCGCTACACTGATGCATTCAACAAGCCTATCCTTGGCCGAGAGGCCCGGGTAATCTTNGAAACTGCAT CGTGATG                                                                                       '
p427
sg6
S'CCTATCTTGTNGGTNTGTAGGANTGGAGTAATGATTAAGAGGGACAGTCGGGGGCATTCGTATTTCATTGTCAGAGGTGAAATTCTTGGATTTATGAAAGACGAACTTCTGCGAAAGCATTTGCCAAGGATGTTTTCATTAATCAAGAACGAAAGTTGGGGGCTCGAAGACGATTAGATACCGTCGTAGTCTCAACCATAAACGATGCCGACTAGGGATTGGCGGGTGTTTCGTTGATGACCCCGCCAGCACCTTATGAGAAATCAAAGTCTTTGGGTTCCGGGGGGAGTATGGTCGCAAGGCTGAAACTTAAAGGAATTGACGGAAGGGCACCACCAGGCGTGGAGCCTGCGGCTTAATTTGACTCAACACGGGAAAACTTACCAGGTCCAGACACGGGAAGGATTGACAGATTGAGAGCTCTTTCTTGATTCTGTGGGTGGTGGTGCATGGCCGTTCTTAGTTGGTGGGTTGCCTTGTCAGGTTGATTCCGGTAACGAACGAGACCTCAGCCTGCTAAATAGTCACAGTTGCCTCTGGCAGCTGGCTGACTTCTTAGAGGGACTATTGTCGTTTAGGCAATGGAAGTATGAGGCAATAACAGGTCTGTGATGCCCTTAGATGTTCTGGGCCGCACGCGCGCTACACTGATGCATTCAACAAGCCTATCCTTGGCCGAGAGGCCCGGGTAATCTTNGAAACTGCATCGTGATG'
p428
sg8
S'frwdrev'
p429
sg10
I01
sg11
g12
sg13
I01
sg14
(lp430
(dp431
g4
g12
sg6
g12
sg8
S'file'
p432
sg10
I00
sg11
g12
sg13
I00
sg14
(lp433
sg19
I00
sg20
I89
sg21
S'../CE_30-794584119/7-27L5_smallSphere_BUG1902-chloro18sMidF.ab1'
p434
sa(dp435
g4
g12
sg6
g12
sg8
S'file'
p436
sg10
I00
sg11
g12
sg13
I00
sg14
(lp437
sg19
I01
sg20
I90
sg21
S'smallSphere_BUG1902_7-27L5-snow18sSeqR.ab1'
p438
sasg19
I00
sg20
I88
sg21
S'smallSphere_BUG1902_7-27L5_18SB'
p439
sa(dp440
g4
S'                                                                 CATTAGCATGGAATAACACGATAGGACTCTGGCNTATCTTGTTGGTCTGTANGACTGGAGTAATGATTAAGAGGGACNGTCGGGGGCATTCGTATTTCATTGTCAGAGGTGAAATTCTTGGATTTATGAAAGACGAACTTCTGCGAAAGCATTTGCCAAGGATGTTTTCATTAATCAAGAACGAAAGTTGGGGGCTCGAAGACGATTAGATACCGTCGTAGTCTCAACCATAAACGATGCCGACTAGGGATTGGCAGGTGTTCTTTTGATGACCCTGCCAGCACCTTATGAGAAATCAAAGTTTTTGGGTTCCGGGGGGAGTATGGTCGCAAGGCTGAAACTTAAAGGAATTGACGGAAGGGCACCACCAGGCGTGGAGCCTGCGGCTTAATTTGACTCAACACGGGAAAACTTACCAGGTCCAGACACGGGGAGGATTGACAGATTGAGAGCTCTTTCTTGATTCTGTGGGTGGTGGTGCATGGCCGTTCTTAGTTGGTGGGTTGCCTTGTCAGGTTGATTCCGGTAACGAACGAGACCTCAGCCTGCTAAATAGTCACGTCTGCCTCTCGCAGACGGCCGACTTCTTAGAGGGACTATTGTCGTTTAGGCAATGGAAGTATGAGGCAATAACAGGTCTGTGATGCCCTTAGATGTTCTGGGCCGCACGCGCGCTACACTGATGCGTTCAACGAGCCTATCCTTGGCCGAGAGGCCCGGGTAATCTTCGAAACCGCATC GTGATGGGGATAGATTATTGCAATTATTAGTCTTCAACGAGGAATGCCTAGTAAGCGCGAGTCATCAGCTCGC                     '
p441
sg6
S'CATTAGCATGGAATAACACGATAGGACTCTGGCNTATCTTGTTGGTCTGTANGACTGGAGTAATGATTAAGAGGGACNGTCGGGGGCATTCGTATTTCATTGTCAGAGGTGAAATTCTTGGATTTATGAAAGACGAACTTCTGCGAAAGCATTTGCCAAGGATGTTTTCATTAATCAAGAACGAAAGTTGGGGGCTCGAAGACGATTAGATACCGTCGTAGTCTCAACCATAAACGATGCCGACTAGGGATTGGCAGGTGTTCTTTTGATGACCCTGCCAGCACCTTATGAGAAATCAAAGTTTTTGGGTTCCGGGGGGAGTATGGTCGCAAGGCTGAAACTTAAAGGAATTGACGGAAGGGCACCACCAGGCGTGGAGCCTGCGGCTTAATTTGACTCAACACGGGAAAACTTACCAGGTCCAGACACGGGGAGGATTGACAGATTGAGAGCTCTTTCTTGATTCTGTGGGTGGTGGTGCATGGCCGTTCTTAGTTGGTGGGTTGCCTTGTCAGGTTGATTCCGGTAACGAACGAGACCTCAGCCTGCTAAATAGTCACGTCTGCCTCTCGCAGACGGCCGACTTCTTAGAGGGACTATTGTCGTTTAGGCAATGGAAGTATGAGGCAATAACAGGTCTGTGATGCCCTTAGATGTTCTGGGCCGCACGCGCGCTACACTGATGCGTTCAACGAGCCTATCCTTGGCCGAGAGGCCCGGGTAATCTTCGAAACCGCATCGTGATGGGGATAGATTATTGCAATTATTAGTCTTCAACGAGGAATGCCTAGTAAGCGCGAGTCATCAGCTCGC'
p442
sg8
S'frwdrev'
p443
sg10
I01
sg11
g12
sg13
I01
sg14
(lp444
(dp445
g4
g12
sg6
g12
sg8
S'file'
p446
sg10
I00
sg11
g12
sg13
I00
sg14
(lp447
sg19
I00
sg20
I92
sg21
S'../CE_30-794584119/8-17L1_star_BLU1901-chloro18sMidF.ab1'
p448
sa(dp449
g4
g12
sg6
g12
sg8
S'file'
p450
sg10
I00
sg11
g12
sg13
I00
sg14
(lp451
sg19
I01
sg20
I93
sg21
S'star_BLU1901_8-17L1-snow18sSeqR.ab1'
p452
sasg19
I00
sg20
I91
sg21
S'star_BLU1901_8-17L1_18SB'
p453
sa(dp454
g4
S'                                          ATTAGAGTGTTCAAAGCAAGCTNACGCTCNGAATACANTAGCATGGAATAACACGATAGGACTCTGGCCTATCTTGTTGGTCTGTAGGACTGGAGTAATGATTAAGAGGGACAGTCGGGGGCATTCGTATTTCATTGTCAGAGGTGAAATTCTTGGATTTATGAAAGACGAACTTCTGCGAAAGCATTTGCCAAGGATGTTTTCATTAATCAAGAACGAAAGTTGGGGGCTCGAAGACGATTAGATACCGTCGTAGTCTCAACCATAAACGATGCCGACTAGGGATTGGCAGGTGTTCTTTTGATGACCCTGCCAGCACCTTATGAGAAATCAAAGTTTTTGGGTTCCGGGGGGAGTATGGTCGCAAGGCTGAAACTTAAAGGAATTGACGGAAGGGCACCACCAGGCGTGGAGCCTGCGGCTTAATTTGACTCAACACGGGAAAACTTACCAGGTCCAGACACGGGGAGGATTGACAGATTGAGAGCTCTTTCTTGATTCTGTGGGTGGTGGTGCATGGCCGTTCTTAGTTGGTGGGTTGCCTTGTCAGGTTGATTCCGGTAACGAACGAGACCTCAGCCTGCTAAATAGTCACGTCTGCCTCTCGCAGACGGCCGACTTCTTAGAGGGACTATTGTCGTTTAGGCAATGGAAGTATGAGGCAATAACAGGTCTGTGATGCCCTTAGATGTTCTGGGCCGCACGCGCGCTACACTGATGCGTTCAACGAGCCTATCCTTGGCCGAGAGGCCCGGGTAATCTTCGAAACCGCATC GTGATGGGGATAGATTATTGCAATTATTAGTCTTCAACGAGGAATGCCTAGTAAGCGCGAGTCATCAGCTCGC                      '
p455
sg6
S'ATTAGAGTGTTCAAAGCAAGCTNACGCTCNGAATACANTAGCATGGAATAACACGATAGGACTCTGGCCTATCTTGTTGGTCTGTAGGACTGGAGTAATGATTAAGAGGGACAGTCGGGGGCATTCGTATTTCATTGTCAGAGGTGAAATTCTTGGATTTATGAAAGACGAACTTCTGCGAAAGCATTTGCCAAGGATGTTTTCATTAATCAAGAACGAAAGTTGGGGGCTCGAAGACGATTAGATACCGTCGTAGTCTCAACCATAAACGATGCCGACTAGGGATTGGCAGGTGTTCTTTTGATGACCCTGCCAGCACCTTATGAGAAATCAAAGTTTTTGGGTTCCGGGGGGAGTATGGTCGCAAGGCTGAAACTTAAAGGAATTGACGGAAGGGCACCACCAGGCGTGGAGCCTGCGGCTTAATTTGACTCAACACGGGAAAACTTACCAGGTCCAGACACGGGGAGGATTGACAGATTGAGAGCTCTTTCTTGATTCTGTGGGTGGTGGTGCATGGCCGTTCTTAGTTGGTGGGTTGCCTTGTCAGGTTGATTCCGGTAACGAACGAGACCTCAGCCTGCTAAATAGTCACGTCTGCCTCTCGCAGACGGCCGACTTCTTAGAGGGACTATTGTCGTTTAGGCAATGGAAGTATGAGGCAATAACAGGTCTGTGATGCCCTTAGATGTTCTGGGCCGCACGCGCGCTACACTGATGCGTTCAACGAGCCTATCCTTGGCCGAGAGGCCCGGGTAATCTTCGAAACCGCATCGTGATGGGGATAGATTATTGCAATTATTAGTCTTCAACGAGGAATGCCTAGTAAGCGCGAGTCATCAGCTCGC'
p456
sg8
S'frwdrev'
p457
sg10
I01
sg11
g12
sg13
I01
sg14
(lp458
(dp459
g4
g12
sg6
g12
sg8
S'file'
p460
sg10
I00
sg11
g12
sg13
I00
sg14
(lp461
sg19
I00
sg20
I95
sg21
S'../CE_30-794584119/8-19L2_thickWall_BLU1901-chloro18sMidF.ab1'
p462
sa(dp463
g4
g12
sg6
g12
sg8
S'file'
p464
sg10
I00
sg11
g12
sg13
I00
sg14
(lp465
sg19
I01
sg20
I96
sg21
S'thickWall_BLU1901_8-19L2-snow18sSeqR.ab1'
p466
sasg19
I00
sg20
I94
sg21
S'thickWall_BLU1901_8-18L2_18SB'
p467
sa(dp468
g4
S'                                                 CGTAGTAATTCTNGAGCTAATACGTGCGTAAATCCCGACTTCTGGAAGGGACGTATTTATTAGATAAAAGGCCAGCCGAGCTTGCTCGACTTTAGGTGAATCATGATAACTCCACGAATCGCATGGCCTCGTGCCGGCGATGTTTCATTCAAATTTCTGCCCTATCAACTTTCGATGGTAGGATAGAGGCCTACCATGGTGGTAACGGGTGACGGAGGATTAGGGTTCGATTCCGGAGAGGGAGCCTGAGAAATGGCTACCACATCCAAGGAAGGCAGCAGGCGCGCAAATTACCCAATCCCGACACGGGGAGGTAGTGACAATAAATAACAATGCCGAGCATTTTATGTTTGGCAATTGGAATGAGCACAATCTAAACCCCTTAACGAGGATCCATTGGAGGGCAAGTCTGGTGCCAGCAGCCGCGGTAATTCCAGCTCCAATAGCGTATATTTAAGTTGTTGCAGTTAAAAAGCTCGTAGTTGGATTTCGGGTGGGTTGTAGTGGTCCGGTTCGCTGTGTACTGCTACGGCCTTCCTTTCTGCCGGAA ACGGGCTCTTGGGCTTTACTGTCTGGGACCCGGAGTCGGCGAGGTTACTTTGAGT AAATTAGAGTG TTCAAAGCAAGCTTACGCTCTGAATACATTAGCATGGAATAACACGATAGGACTCTGGCCTATCTTGTTGGTCTGTAGGACTGGAGTAATGATTAAGAGGGACAGTCGGGGGCATTCGTATTTCATT GTCA GAGG TGAAATTCT T GGATTTATGAAAG ACGAA CT TCTGCGAAAGCATT TGCCAAGGA                   '
p469
sg6
S'CGTAGTAATTCTNGAGCTAATACGTGCGTAAATCCCGACTTCTGGAAGGGACGTATTTATTAGATAAAAGGCCAGCCGAGCTTGCTCGACTTTAGGTGAATCATGATAACTCCACGAATCGCATGGCCTCGTGCCGGCGATGTTTCATTCAAATTTCTGCCCTATCAACTTTCGATGGTAGGATAGAGGCCTACCATGGTGGTAACGGGTGACGGAGGATTAGGGTTCGATTCCGGAGAGGGAGCCTGAGAAATGGCTACCACATCCAAGGAAGGCAGCAGGCGCGCAAATTACCCAATCCCGACACGGGGAGGTAGTGACAATAAATAACAATGCCGAGCATTTTATGTTTGGCAATTGGAATGAGCACAATCTAAACCCCTTAACGAGGATCCATTGGAGGGCAAGTCTGGTGCCAGCAGCCGCGGTAATTCCAGCTCCAATAGCGTATATTTAAGTTGTTGCAGTTAAAAAGCTCGTAGTTGGATTTCGGGTGGGTTGTAGTGGTCCGGTTCGCTGTGTACTGCTACGGCCTTCCTTTCTGCCGGAAACGGGCTCTTGGGCTTTACTGTCTGGGACCCGGAGTCGGCGAGGTTACTTTGAGTAAATTAGAGTGTTCAAAGCAAGCTTACGCTCTGAATACATTAGCATGGAATAACACGATAGGACTCTGGCCTATCTTGTTGGTCTGTAGGACTGGAGTAATGATTAAGAGGGACAGTCGGGGGCATTCGTATTTCATTGTCAGAGGTGAAATTCTTGGATTTATGAAAGACGAACTTCTGCGAAAGCATTTGCCAAGGA'
p470
sg8
S'frwdrev'
p471
sg10
I01
sg11
g12
sg13
I01
sg14
(lp472
(dp473
g4
g12
sg6
g12
sg8
S'file'
p474
sg10
I00
sg11
g12
sg13
I00
sg14
(lp475
sg19
I00
sg20
I98
sg21
S'thickWall_BLU2203_1-11L1-chloro18sF.ab1'
p476
sa(dp477
g4
g12
sg6
g12
sg8
S'file'
p478
sg10
I00
sg11
g12
sg13
I00
sg14
(lp479
sg19
I01
sg20
I99
sg21
S'thickWall_BLU2203_1-11L1-chloro18sMidR.ab1'
p480
sasg19
I00
sg20
I97
sg21
S'thickWall_BLU2203_1-11L1_18SA'
p481
sa(dp482
g4
S'                                                                                           CAAAGCNAGCTTACGCTCTGAATACATTAGCATGGAATAACACGATAGGACTCTGGCCTATCTTGTTGGTCTGTAGGACTGGAGTAATGATTAAGAGGGACAGTCGGGGGCATTCGTATTTCATTGTCAGAGGTGAAATTCTTGGATTTATGAAAGACGAACTTCTGCGAAAGCATTTGCCAAGGATGTTTTCATTAATCAAGAACGAAAGTTGGGGGCTCGAAGACGATTAGATACCGTCGTAGTCTCAACCATAAACGATGCCGACTAGGGATTGGCAGGTGTTCTTTTGATGACCCTGCCAGCACCTTATGAGAAATCAAAGTTTTTGGGTTCCGGGGGGAGTATGGTCGCAAGGCTGAAACTTAAAGGAATTGACGGAAGGGCACCACCAGGCGTGGAGCCTGCGGCTTAATTTGACTCAACACGGGAAAACTTACCAGGTCCAGACACGGGGAGGATTGACAGATTGAGAGCTCTTTCTTGATTCTGTGGGTGGTGGTGCATGGCCGTTCTTAGTTGGTGGGTTGCCTTGTCAGGTTGATTCCGGTAACGAACGAGACCTCAGCCTGCTAAATAGTCACGTCTGCCTCTCGCAGACGGCCGACTTCTTAGAGGGACTATTGTCGTTTAGGCAATGGAAGTATGAGGCAATAACAGGTCTGTGATGCCCTTAGATGTTCTGGGCCGCACGCGCGCTACACTGATGCGTTCAACGAGCCTATCCTTGGCCGAGAGGCCCGGGTAATCTTCGAAACCGCATCNGTGATGGGGATAGATTATTGCAATTATTAGTCTTCAACGAGGAATGCCTAGTAAGCGCGAGTCATCAGCTCG                           '
p483
sg6
S'CAAAGCNAGCTTACGCTCTGAATACATTAGCATGGAATAACACGATAGGACTCTGGCCTATCTTGTTGGTCTGTAGGACTGGAGTAATGATTAAGAGGGACAGTCGGGGGCATTCGTATTTCATTGTCAGAGGTGAAATTCTTGGATTTATGAAAGACGAACTTCTGCGAAAGCATTTGCCAAGGATGTTTTCATTAATCAAGAACGAAAGTTGGGGGCTCGAAGACGATTAGATACCGTCGTAGTCTCAACCATAAACGATGCCGACTAGGGATTGGCAGGTGTTCTTTTGATGACCCTGCCAGCACCTTATGAGAAATCAAAGTTTTTGGGTTCCGGGGGGAGTATGGTCGCAAGGCTGAAACTTAAAGGAATTGACGGAAGGGCACCACCAGGCGTGGAGCCTGCGGCTTAATTTGACTCAACACGGGAAAACTTACCAGGTCCAGACACGGGGAGGATTGACAGATTGAGAGCTCTTTCTTGATTCTGTGGGTGGTGGTGCATGGCCGTTCTTAGTTGGTGGGTTGCCTTGTCAGGTTGATTCCGGTAACGAACGAGACCTCAGCCTGCTAAATAGTCACGTCTGCCTCTCGCAGACGGCCGACTTCTTAGAGGGACTATTGTCGTTTAGGCAATGGAAGTATGAGGCAATAACAGGTCTGTGATGCCCTTAGATGTTCTGGGCCGCACGCGCGCTACACTGATGCGTTCAACGAGCCTATCCTTGGCCGAGAGGCCCGGGTAATCTTCGAAACCGCATCNGTGATGGGGATAGATTATTGCAATTATTAGTCTTCAACGAGGAATGCCTAGTAAGCGCGAGTCATCAGCTCG'
p484
sg8
S'frwdrev'
p485
sg10
I01
sg11
g12
sg13
I01
sg14
(lp486
(dp487
g4
g12
sg6
g12
sg8
S'file'
p488
sg10
I00
sg11
g12
sg13
I00
sg14
(lp489
sg19
I00
sg20
I101
sg21
S'thickWall_BLU2203_1-11L1-chloro18sMidF.ab1'
p490
sa(dp491
g4
g12
sg6
g12
sg8
S'file'
p492
sg10
I00
sg11
g12
sg13
I00
sg14
(lp493
sg19
I01
sg20
I102
sg21
S'thickWall_BLU2203_1-11L1-snow18sSeqR.ab1'
p494
sasg19
I00
sg20
I100
sg21
S'thickWall_BLU2203_1-11L1_18SB'
p495
sa(dp496
g4
S'                    AGAACGCAGCGAAATGCGATACGTAGTGTGAATTGCAGAATTCCGTGAACCATCGAATTTTTGAACGCATATTGCGCTCAAGGCTTCGGCCAAGAGCATGTCTGCCTCAGCGTCGGGTTCTCCATCATTGACCCTCCCTCCTCATCGAGAGAACGGTCATGGAAACTCGCAGTCCGATCCTTCGTTCCTAACCGACCGTTGGTGAGGTCTGCCAAAGTGAAAGTAGCGCTCCGAGCATTGCCCATTCGTCCGTCAGCAATGGCGGGTGAGTGGGTATGTAGCCGCACTCGAGTAGTTGCGAATTCGCATGTTCACATGTGTTTTTCCTACCCGACTATCCTACACTTGCCCGGCTTCTCACTGATCCTCGAATGCCTTCTTAACCGAACGCCTTAGATTTCAGCTAGGAAGAACCAGCCCTATACAAGTATACCTCCCAACATGGAACCCTTCACTTCTCGACCTGAGCTCAGGCAAGATTACCCGCTGAACTTAAGCATATCAATAAGCGGAGGAAAAGAAACCAACCAGGATTCCCCTAGTAACGGCGAGCGAACCGGGATCAGCCCAACTTGAAAATCTCCCTCTTGGAGAATTGTAGTCTACAGAAGTGCCCTCTGTGGTCATGCGAGCTCAAGTTCGCTGGAAGGCGACGTCAAAGAGGGTGAGAACCCCGTCGGCTCGCATTCGACCGCACCACGAGGTGCTTTCCACGAGTCGGGTTGTTTGGGAATGCAGCCCAAAATTGGAGGTAAANCCCTTCN                                                '
p497
sg6
S'AGAACGCAGCGAAATGCGATACGTAGTGTGAATTGCAGAATTCCGTGAACCATCGAATTTTTGAACGCATATTGCGCTCAAGGCTTCGGCCAAGAGCATGTCTGCCTCAGCGTCGGGTTCTCCATCATTGACCCTCCCTCCTCATCGAGAGAACGGTCATGGAAACTCGCAGTCCGATCCTTCGTTCCTAACCGACCGTTGGTGAGGTCTGCCAAAGTGAAAGTAGCGCTCCGAGCATTGCCCATTCGTCCGTCAGCAATGGCGGGTGAGTGGGTATGTAGCCGCACTCGAGTAGTTGCGAATTCGCATGTTCACATGTGTTTTTCCTACCCGACTATCCTACACTTGCCCGGCTTCTCACTGATCCTCGAATGCCTTCTTAACCGAACGCCTTAGATTTCAGCTAGGAAGAACCAGCCCTATACAAGTATACCTCCCAACATGGAACCCTTCACTTCTCGACCTGAGCTCAGGCAAGATTACCCGCTGAACTTAAGCATATCAATAAGCGGAGGAAAAGAAACCAACCAGGATTCCCCTAGTAACGGCGAGCGAACCGGGATCAGCCCAACTTGAAAATCTCCCTCTTGGAGAATTGTAGTCTACAGAAGTGCCCTCTGTGGTCATGCGAGCTCAAGTTCGCTGGAAGGCGACGTCAAAGAGGGTGAGAACCCCGTCGGCTCGCATTCGACCGCACCACGAGGTGCTTTCCACGAGTCGGGTTGTTTGGGAATGCAGCCCAAAATTGGAGGTAAANCCCTTCN'
p498
sg8
S'frwdrev'
p499
sg10
I01
sg11
g12
sg13
I01
sg14
(lp500
(dp501
g4
g12
sg6
g12
sg8
S'file'
p502
sg10
I00
sg11
g12
sg13
I00
sg14
(lp503
sg19
I00
sg20
I104
sg21
S'thickWall_BLU2203_1-11L1-chloroITS2F.ab1'
p504
sa(dp505
g4
g12
sg6
g12
sg8
S'file'
p506
sg10
I00
sg11
g12
sg13
I00
sg14
(lp507
sg19
I01
sg20
I105
sg21
S'thickWall_BLU2203_1-11L1-chloroITS2R.ab1'
p508
sasg19
I00
sg20
I103
sg21
S'thickWall_BLU2203_1-11L1-chloroITS2'
p509
sa(dp510
g4
S'                       ANGGTACTTACTACTCGGATAACCGTAGTAATTCTAGAGCTAATACGTGCGTAAATCCCGACTCTTGGAAGGGACGTATTTATTAGATAAAAGGCCAGCCGGGCTTGCCCGACTTGAGGTGAATCATGATAACTCCACGAATCGCATGGCCTTGTGCCGGCGATGTTTCATTCAAATTTCTGCCCTATCAACTTTCGATGGTAGGATAGAGGCCTACCATGGTGGTAACGGGTGACGGAGGATTAGGGTTCGATTCCGGAGAGGGAGCCTGAGAAATGGCTACCACATCCAAGGAAGGCAGCAGGCGCGCAAATTACCCAATCCCGACACGGGGAGGTAGTGACAATAAATAACAATACCGGGCATTTTATGTCTGGTAATTGGAATGAGCACAATCTAAATCCCTTAACGAGGATCCATTGGAGGGCAAGTCTGGTGCCAGCAGCCGCGGTAATTCCAGCTCCAATAGCGTATATTTAAGTTGTTGCAGTTAAAAAGCTCGTAGTTGGATTTCGGGTGGGTTGCAACGGTCCGGTTCGCTGTGTACTGTTGCGGCCTTCCTTTCTGCCGGGGACGGGCTCTTGGGCTTCACTGTCTGGGATCCGGAGTCGGCGAGGTTACTTTGAGTAAATTAGAGTGTTCAAAGCAAGCTTACGCTCTGAATACATTAGCATGGAATAACACGATAGGACTCTGGCCTATCTTGTTGGTCTGTAGGACTGGAGTAATGATTAAGAGGGACAGTCGGGGGCATTCGTATTTCATTGTCAGAGGTGAAATTCTTGGATTT ATGAAAGACGAACTTCTGCGAAAGCATTTGCCAAGGAN                   '
p511
sg6
S'ANGGTACTTACTACTCGGATAACCGTAGTAATTCTAGAGCTAATACGTGCGTAAATCCCGACTCTTGGAAGGGACGTATTTATTAGATAAAAGGCCAGCCGGGCTTGCCCGACTTGAGGTGAATCATGATAACTCCACGAATCGCATGGCCTTGTGCCGGCGATGTTTCATTCAAATTTCTGCCCTATCAACTTTCGATGGTAGGATAGAGGCCTACCATGGTGGTAACGGGTGACGGAGGATTAGGGTTCGATTCCGGAGAGGGAGCCTGAGAAATGGCTACCACATCCAAGGAAGGCAGCAGGCGCGCAAATTACCCAATCCCGACACGGGGAGGTAGTGACAATAAATAACAATACCGGGCATTTTATGTCTGGTAATTGGAATGAGCACAATCTAAATCCCTTAACGAGGATCCATTGGAGGGCAAGTCTGGTGCCAGCAGCCGCGGTAATTCCAGCTCCAATAGCGTATATTTAAGTTGTTGCAGTTAAAAAGCTCGTAGTTGGATTTCGGGTGGGTTGCAACGGTCCGGTTCGCTGTGTACTGTTGCGGCCTTCCTTTCTGCCGGGGACGGGCTCTTGGGCTTCACTGTCTGGGATCCGGAGTCGGCGAGGTTACTTTGAGTAAATTAGAGTGTTCAAAGCAAGCTTACGCTCTGAATACATTAGCATGGAATAACACGATAGGACTCTGGCCTATCTTGTTGGTCTGTAGGACTGGAGTAATGATTAAGAGGGACAGTCGGGGGCATTCGTATTTCATTGTCAGAGGTGAAATTCTTGGATTTATGAAAGACGAACTTCTGCGAAAGCATTTGCCAAGGAN'
p512
sg8
S'frwdrev'
p513
sg10
I01
sg11
g12
sg13
I01
sg14
(lp514
(dp515
g4
g12
sg6
g12
sg8
S'file'
p516
sg10
I00
sg11
g12
sg13
I00
sg14
(lp517
sg19
I00
sg20
I107
sg21
S'thickWall_BUG1903_1-18L2-chloro18sF.ab1'
p518
sa(dp519
g4
g12
sg6
g12
sg8
S'file'
p520
sg10
I00
sg11
g12
sg13
I00
sg14
(lp521
sg19
I01
sg20
I108
sg21
S'thickWall_BUG1903_1-18L2-chloro18sMidR.ab1'
p522
sasg19
I00
sg20
I106
sg21
S'thickWall_BUG1903_1-18L2_18SA'
p523
sa(dp524
g4
S'                                                                                                                         CAAGCTTACGCTNTGAATACATTAGCATGGAATAACACGATAGGACTCTGGCNTATCTTGTTGGTCTGTAGGACTGGAGTAATGATTAAGAGGGACAGTCGGGGGCATTCGTATTTCATTGTCAGAGGTGAAATTCTTGGATTTATGAAAGACGAACTTCTGCGAAAGCATTTGCCAAGGATGTTTTCATTAATCAAGAACGAAAGTTGGGGGCTCGAAGACGATTAGATACCGTCGTAGTCTCAACCATAAACGATGCCGACTAGGGATTGGCAGGTGTTCTTTTGATGACCCTGCCAGCACCTTATGAGAAATCAAAGTTTTTGGGTTCCGGGGGGAGTATGGTCGCAAGGCTGAAACTTAAAGGAATTGACGGAAGGGCACCACCAGGCGTGGAGCCTGCGGCTTAATTTGACTCAACACGGGAAAACTTACCAGGTCCAGACACGGGGAGGATTGACAGATTGAGAGCTCTTTCTTGATTCTGTGGGTGGTGGTGCATGGCCGTTCTTAGTTGGTGGGTTGCCTTGTCAGGTTGATTCCGGTAACGAACGAGACCTCAGCCTGCTAAATAGTCACATCTGCCTCTCGCAGCTGGCCGACTTCTTAGAGGGACTATTGTCGTTTAGGCAATGGAAGTATGAGGCAATAACAGGTCTGTGATGCCCTTAGATGTTCTGGGCCGCACGCGCGCTACACTGATGCGTTCAACGAGCCTATCCTTGGCCGAGAGGCCCGGGTAATCTTCGAAACCGCATC GTGATGGGGATAGATTATTGCAATTATTAGTCTTCAACGAGGAATGCCTAGTAAGCGCGAGTCATCAGCTCGCG                     '
p525
sg6
S'CAAGCTTACGCTNTGAATACATTAGCATGGAATAACACGATAGGACTCTGGCNTATCTTGTTGGTCTGTAGGACTGGAGTAATGATTAAGAGGGACAGTCGGGGGCATTCGTATTTCATTGTCAGAGGTGAAATTCTTGGATTTATGAAAGACGAACTTCTGCGAAAGCATTTGCCAAGGATGTTTTCATTAATCAAGAACGAAAGTTGGGGGCTCGAAGACGATTAGATACCGTCGTAGTCTCAACCATAAACGATGCCGACTAGGGATTGGCAGGTGTTCTTTTGATGACCCTGCCAGCACCTTATGAGAAATCAAAGTTTTTGGGTTCCGGGGGGAGTATGGTCGCAAGGCTGAAACTTAAAGGAATTGACGGAAGGGCACCACCAGGCGTGGAGCCTGCGGCTTAATTTGACTCAACACGGGAAAACTTACCAGGTCCAGACACGGGGAGGATTGACAGATTGAGAGCTCTTTCTTGATTCTGTGGGTGGTGGTGCATGGCCGTTCTTAGTTGGTGGGTTGCCTTGTCAGGTTGATTCCGGTAACGAACGAGACCTCAGCCTGCTAAATAGTCACATCTGCCTCTCGCAGCTGGCCGACTTCTTAGAGGGACTATTGTCGTTTAGGCAATGGAAGTATGAGGCAATAACAGGTCTGTGATGCCCTTAGATGTTCTGGGCCGCACGCGCGCTACACTGATGCGTTCAACGAGCCTATCCTTGGCCGAGAGGCCCGGGTAATCTTCGAAACCGCATCGTGATGGGGATAGATTATTGCAATTATTAGTCTTCAACGAGGAATGCCTAGTAAGCGCGAGTCATCAGCTCGCG'
p526
sg8
S'frwdrev'
p527
sg10
I01
sg11
g12
sg13
I01
sg14
(lp528
(dp529
g4
g12
sg6
g12
sg8
S'file'
p530
sg10
I00
sg11
g12
sg13
I00
sg14
(lp531
sg19
I00
sg20
I110
sg21
S'thickWall_BUG1903_1-18L2-chloro18sMidF.ab1'
p532
sa(dp533
g4
g12
sg6
g12
sg8
S'file'
p534
sg10
I00
sg11
g12
sg13
I00
sg14
(lp535
sg19
I01
sg20
I111
sg21
S'thickWall_BUG1903_1-18L2-snow18sSeqR.ab1'
p536
sasg19
I00
sg20
I109
sg21
S'thickWall_BUG1903_1-18L2_18SB'
p537
sa(dp538
g4
S'                     ACGCAGCGAAATGCGATA CGTAGTGTGAATTGCAGAATTCCGTGAACCATCGAATTTTTGAACGCATATTGCGCTCAAGGCTTCGGCCAAGAGCATGTCTGCCTCAGCGTCGGGTTCTCCATCATTGACTCCTCCCTCCTCACAGAGAGAGCAGCCATGGAAACTCGCAGTCCGATCCTCTGTTCTTAACCGAANGTTGGTGAGGTCTGCCAAAGTGAAAGTAGCGCTCCGAGCATCACCCGTTCGTCTGCCAGCAATGGCGGGCGAGTGGGTATGTAGCCGCACTCGAGTAGTTGCGAATTCGCATGTTCACATGTGTTTTTCCTACCCGACTATCCTACACTTGCCCGGCTTCTCACTGATCCTCATCGGTCTTCTTCACGGAACGCCTTTGATTTCAGCTAGGAAGAACCAGCCTATATACCTCCCAACATGGAACCCTTCACTTCTCGACCTGAGCTCAGGCAAGATTACCCGCTGAACTTAAGCATATCAATAAGCGGAGGAAAAGAAACCAACCAGGATTCCCCTAGTAACGGCGAGCGAACCGGGATCAGCCCAACTTGAAAATCTCCCTCTTGGAGAATTGTAGTCTACAGAAGTGCCCTCTGTGGTCATGCGAACTCAAGTCCGCTGGAAAGCGGCGTCAGAGAGGGTGAGAACCCCGTCGGTTCGCATTTGACTGCACCACGAGGTGCTTTCCACGAGTCGGGTTGTTTGGGAATGCAGCCCAAAATTGGAGGTAAATCCCTTCNNANNNTAAATAACGGCNN                                 '
p539
sg6
S'ACGCAGCGAAATGCGATACGTAGTGTGAATTGCAGAATTCCGTGAACCATCGAATTTTTGAACGCATATTGCGCTCAAGGCTTCGGCCAAGAGCATGTCTGCCTCAGCGTCGGGTTCTCCATCATTGACTCCTCCCTCCTCACAGAGAGAGCAGCCATGGAAACTCGCAGTCCGATCCTCTGTTCTTAACCGAANGTTGGTGAGGTCTGCCAAAGTGAAAGTAGCGCTCCGAGCATCACCCGTTCGTCTGCCAGCAATGGCGGGCGAGTGGGTATGTAGCCGCACTCGAGTAGTTGCGAATTCGCATGTTCACATGTGTTTTTCCTACCCGACTATCCTACACTTGCCCGGCTTCTCACTGATCCTCATCGGTCTTCTTCACGGAACGCCTTTGATTTCAGCTAGGAAGAACCAGCCTATATACCTCCCAACATGGAACCCTTCACTTCTCGACCTGAGCTCAGGCAAGATTACCCGCTGAACTTAAGCATATCAATAAGCGGAGGAAAAGAAACCAACCAGGATTCCCCTAGTAACGGCGAGCGAACCGGGATCAGCCCAACTTGAAAATCTCCCTCTTGGAGAATTGTAGTCTACAGAAGTGCCCTCTGTGGTCATGCGAACTCAAGTCCGCTGGAAAGCGGCGTCAGAGAGGGTGAGAACCCCGTCGGTTCGCATTTGACTGCACCACGAGGTGCTTTCCACGAGTCGGGTTGTTTGGGAATGCAGCCCAAAATTGGAGGTAAATCCCTTCNNANNNTAAATAACGGCNN'
p540
sg8
S'frwdrev'
p541
sg10
I01
sg11
g12
sg13
I01
sg14
(lp542
(dp543
g4
g12
sg6
g12
sg8
S'file'
p544
sg10
I00
sg11
g12
sg13
I00
sg14
(lp545
sg19
I00
sg20
I113
sg21
S'thickWall_BUG1903_1-18L2-chloroITS2F.ab1'
p546
sa(dp547
g4
g12
sg6
g12
sg8
S'file'
p548
sg10
I00
sg11
g12
sg13
I00
sg14
(lp549
sg19
I01
sg20
I114
sg21
S'thickWall_BUG1903_1-18L2-chloroITS2R.ab1'
p550
sasg19
I00
sg20
I112
sg21
S'thickWall_BUG1903_1-18L2-chloroITS2'
p551
sasS'formatversion'
p552
S'0.9'
p553
sS'consseqsettings'
p554
(dp555
S'consensus_algorithm'
p556
S'Bayesian'
p557
sS'do_qualitytrim'
p558
I01
sS'qualitytrim_winsize'
p559
I10
sS'primermatch_threshold'
p560
F0.8
sS'trim_endgaps'
p561
I00
sS'min_confscore'
p562
I30
sS'forward_primer'
p563
g12
sS'reverse_primer'
p564
g12
sS'qualitytrim_basecnt'
p565
I8
sS'trim_consensus'
p566
I01
sS'trim_primers'
p567
I00
ssS'properties'
p568
(dp569
S'fwd_trace_searchstr'
p570
S'F.ab1'
p571
sS'rev_trace_searchstr'
p572
S'R.ab1'
p573
sS'trace_file_dir'
p574
S'.'
p575
ss.