(dp0
S'items'
p1
(lp2
(dp3
S'fullcons'
p4
S'                  GATGCCGACTAGGGATTGGCNGGTGTT TNNTTGAT GACCCNGCCATGG  CAC C TTATGAGAAATCAAAGTCTTTGGGTTCCGGGGGGAGTATCGGTCGCAAGGACTGAAACTTAAAG GAATGTGACGGAAGGGCACCACCA GGCGTGGAGCCTGCGGCTTAATTTGACTCAACACGGGAAAACTTACCAGGTCCAGACACGGGAAGGATTGACAGATTGAGAGCTCTTTCTTGATTCTGTGGGTGGTGGTGCATGGCCGTTCTTAGTTGGTGGGTTGCCTTGTCAGGTTGATTCCGGTAACGAACGAGACCTCAGCCTGCTAAATAGTCACAGTTGCCTCTGGCAGNNNGGCTGACTTCTTAGAGGGACTATTGTCGTTTAGGCAATGGAAGTATGAGGCAATAACAGGTCTGTGATGCCCTTAGATGTTCTGGGCCGCACGCGCGCTACACTGATGCATTCAACAAGCCTATCCTTGGCCGAGAGGCCCGGGTAA  TCTTTGAAACNGC ATCGTGATGG   GGATAGATTATT  GCAATTATTAGTCTT C  AA CGA GGAATGCCTAG  TAAGCGCGAGT CATCAGC TC    G CGTTGATTACGT CCCTGCCCTTTGTACACACCGCCCGTCGCTCCTACCGATTG                        '
p5
sS'compactcons'
p6
S'GATGCCGACTAGGGATTGGCNGGTGTTTNNTTGATGACCCNGCCATGGCACCTTATGAGAAATCAAAGTCTTTGGGTTCCGGGGGGAGTATCGGTCGCAAGGACTGAAACTTAAAGGAATGTGACGGAAGGGCACCACCAGGCGTGGAGCCTGCGGCTTAATTTGACTCAACACGGGAAAACTTACCAGGTCCAGACACGGGAAGGATTGACAGATTGAGAGCTCTTTCTTGATTCTGTGGGTGGTGGTGCATGGCCGTTCTTAGTTGGTGGGTTGCCTTGTCAGGTTGATTCCGGTAACGAACGAGACCTCAGCCTGCTAAATAGTCACAGTTGCCTCTGGCAGNNNGGCTGACTTCTTAGAGGGACTATTGTCGTTTAGGCAATGGAAGTATGAGGCAATAACAGGTCTGTGATGCCCTTAGATGTTCTGGGCCGCACGCGCGCTACACTGATGCATTCAACAAGCCTATCCTTGGCCGAGAGGCCCGGGTAATCTTTGAAACNGCATCGTGATGGGGATAGATTATTGCAATTATTAGTCTTCAACGAGGAATGCCTAGTAAGCGCGAGTCATCAGCTCGCGTTGATTACGTCCCTGCCCTTTGTACACACCGCCCGTCGCTCCTACCGATTG'
p7
sS'itemtype'
p8
S'frwdrev'
p9
sS'useseq'
p10
I01
sS'notes'
p11
S''
p12
sS'hasseq'
p13
I01
sS'children'
p14
(lp15
(dp16
g4
g12
sg6
g12
sg8
S'file'
p17
sg10
I00
sg11
g12
sg13
I00
sg14
(lp18
sS'isreverse'
p19
I00
sS'id'
p20
I1
sS'name'
p21
S'callous_BLU1901_3-25T3-18s_mid_BR_F.ab1'
p22
sa(dp23
g4
g12
sg6
g12
sg8
S'file'
p24
sg10
I00
sg11
g12
sg13
I00
sg14
(lp25
sg19
I01
sg20
I2
sg21
S'callous_BLU1901_3-25T3-18s_mid_BR_R.ab1'
p26
sasg19
I00
sg20
I0
sg21
S'callous_BLU1901_3-25T3-18s_mid_BR.ab1'
p27
sa(dp28
g4
g12
sg6
g12
sg8
S'frwdrev'
p29
sg10
I00
sg11
g12
sg13
I00
sg14
(lp30
(dp31
g4
g12
sg6
g12
sg8
S'file'
p32
sg10
I00
sg11
g12
sg13
I00
sg14
(lp33
sg19
I00
sg20
I4
sg21
S'callous_BLU1901_3-25T3a-18s_mid_BR_F.ab1'
p34
sa(dp35
g4
g12
sg6
g12
sg8
S'file'
p36
sg10
I00
sg11
g12
sg13
I00
sg14
(lp37
sg19
I01
sg20
I5
sg21
S'callous_BLU1901_3-25T3a-18s_mid_BR_R.ab1'
p38
sasg19
I00
sg20
I3
sg21
S'callous_BLU1901_3-25T3a-18s_mid_BR.ab1'
p39
sa(dp40
g4
S'                        GATGCCGACTAGGGATTGGCAGGTGTTCTTTTGATGACCCTGCCAGCA CCTTATGAGANNTGNNNAGTTTNTNGGTTCCGGNGGGAGTATGGTCGCAAGTNCTGAAACTGTAAAGTGAATGTGNNGGANGGGCNNNNNNNG GNGTGGANCCTGCGGCTTAATTTGACTCANCACGGGAAAACTTACCAGGTCCAGACACGGGGAGGATTGACAGATTGAGAGCTCTTTCTTGATTCTGTGGGTGGTGGTGCATGGCCGTTCTTAGTTGGTGGGTTGCCTTGTCAGGTTGATTCCGGTAACGAACGANACCTCAGCCTGNTAAATAGTCACGTNNGCCTCTNGCAGACGGCCGACTTCTTAGAGGGACTATTGTCGTTTAGGCAATGGAAGTATGAGGCAATAACAGGTCTGTGATGCCCTTAGATGTTCTGGGCCGCACGCGCGCTACACTGATGCGTTCAACGAGCCTATCCTTGGCCGAGAGGCCCGGGTAATCTTCNNNNNAACCGCATNNNNGATG  NNGATNNNTTATTGCAATTATTA GTCTTCAACGAGGAATGCCTAGTAAGCGCGAGTCATCAGNTCGCGTTGATTACGTCCCTGC CCTTTGTACACACCGCCCGTNNNCGCTCCTACCGATTGAGTGTGCTNN              '
p41
sg6
S'GATGCCGACTAGGGATTGGCAGGTGTTCTTTTGATGACCCTGCCAGCACCTTATGAGANNTGNNNAGTTTNTNGGTTCCGGNGGGAGTATGGTCGCAAGTNCTGAAACTGTAAAGTGAATGTGNNGGANGGGCNNNNNNNGGNGTGGANCCTGCGGCTTAATTTGACTCANCACGGGAAAACTTACCAGGTCCAGACACGGGGAGGATTGACAGATTGAGAGCTCTTTCTTGATTCTGTGGGTGGTGGTGCATGGCCGTTCTTAGTTGGTGGGTTGCCTTGTCAGGTTGATTCCGGTAACGAACGANACCTCAGCCTGNTAAATAGTCACGTNNGCCTCTNGCAGACGGCCGACTTCTTAGAGGGACTATTGTCGTTTAGGCAATGGAAGTATGAGGCAATAACAGGTCTGTGATGCCCTTAGATGTTCTGGGCCGCACGCGCGCTACACTGATGCGTTCAACGAGCCTATCCTTGGCCGAGAGGCCCGGGTAATCTTCNNNNNAACCGCATNNNNGATGNNGATNNNTTATTGCAATTATTAGTCTTCAACGAGGAATGCCTAGTAAGCGCGAGTCATCAGNTCGCGTTGATTACGTCCCTGCCCTTTGTACACACCGCCCGTNNNCGCTCCTACCGATTGAGTGTGCTNN'
p42
sg8
S'frwdrev'
p43
sg10
I01
sg11
g12
sg13
I01
sg14
(lp44
(dp45
g4
g12
sg6
g12
sg8
S'file'
p46
sg10
I00
sg11
g12
sg13
I00
sg14
(lp47
sg19
I00
sg20
I7
sg21
S'callous_DOG1906_7-12L7-18s_mid_BR_F.ab1'
p48
sa(dp49
g4
g12
sg6
g12
sg8
S'file'
p50
sg10
I00
sg11
g12
sg13
I00
sg14
(lp51
sg19
I01
sg20
I8
sg21
S'callous_DOG1906_7-12L7-18s_mid_BR_R.ab1'
p52
sasg19
I00
sg20
I6
sg21
S'callous_DOG1906_7-12L7-18s_mid_BR.ab1'
p53
sa(dp54
g4
S'            CGNNTAGGGANTGNCAGGTGTTCTTTTGATGACCCTGCCAGCACCTTATGAGAAATCAAAGTTTTTGGGTTCCGGGGGGAGTATGGTCGCAAGGCTGAAACTTAAAGGAATTGACGGAAGGGCACCACCAGGCGTGGAGCCTGCGGCTTAATTTGACTCAACACGGGAAAACTTACCAGGTCCAGACACGGGGAGGATTGACAGATTGAGAGCTCTTTCTTGATTCTGTGGGTGGTGGTGCATGGCCGTTCTTAGTTGGTGGGTTGCCTTGTCAGGTTGATTCCGGTAACGAACGAGACCTCAGCCTGCTAAATAGTCACATCTGCCTCTCGCAGCTGGCCGACTTCTTAGAGGGACTATTGTCGTTTAGGCAATGGAAGTATGAGGCAATAACAGGTCTGTGATGCCCTTAGATGTTCTGGGCCGCACGCGCGCTACACTGATGCGTTCAACGAGCCTATCCTTGGCCGAGAGGCCCGGGTAATCTTCGAAACCGCATCGTGATGGGGATAGATTATTGCAATTATTAGTCTTCAACGAGGAATGCCTAGTAAGCGCGAGTCATCAGCTCGCGTTGATTACGTCCCTGCCCTTTGTACACACCNNGCCCGTCGCTCCTACCGATTGAGTNN                    '
p55
sg6
S'CGNNTAGGGANTGNCAGGTGTTCTTTTGATGACCCTGCCAGCACCTTATGAGAAATCAAAGTTTTTGGGTTCCGGGGGGAGTATGGTCGCAAGGCTGAAACTTAAAGGAATTGACGGAAGGGCACCACCAGGCGTGGAGCCTGCGGCTTAATTTGACTCAACACGGGAAAACTTACCAGGTCCAGACACGGGGAGGATTGACAGATTGAGAGCTCTTTCTTGATTCTGTGGGTGGTGGTGCATGGCCGTTCTTAGTTGGTGGGTTGCCTTGTCAGGTTGATTCCGGTAACGAACGAGACCTCAGCCTGCTAAATAGTCACATCTGCCTCTCGCAGCTGGCCGACTTCTTAGAGGGACTATTGTCGTTTAGGCAATGGAAGTATGAGGCAATAACAGGTCTGTGATGCCCTTAGATGTTCTGGGCCGCACGCGCGCTACACTGATGCGTTCAACGAGCCTATCCTTGGCCGAGAGGCCCGGGTAATCTTCGAAACCGCATCGTGATGGGGATAGATTATTGCAATTATTAGTCTTCAACGAGGAATGCCTAGTAAGCGCGAGTCATCAGCTCGCGTTGATTACGTCCCTGCCCTTTGTACACACCNNGCCCGTCGCTCCTACCGATTGAGTNN'
p56
sg8
S'frwdrev'
p57
sg10
I01
sg11
g12
sg13
I01
sg14
(lp58
(dp59
g4
g12
sg6
g12
sg8
S'file'
p60
sg10
I00
sg11
g12
sg13
I00
sg14
(lp61
sg19
I00
sg20
I10
sg21
S'devil_NIL1901_5-13T2-18s_mid_BR_F.ab1'
p62
sa(dp63
g4
g12
sg6
g12
sg8
S'file'
p64
sg10
I00
sg11
g12
sg13
I00
sg14
(lp65
sg19
I01
sg20
I11
sg21
S'devil_NIL1901_5-13T2-18s_mid_BR_R.ab1'
p66
sasg19
I00
sg20
I9
sg21
S'devil_NIL1901_5-13T2-18s_mid_BR.ab1'
p67
sa(dp68
g4
g12
sg6
g12
sg8
S'file'
p69
sg10
I00
sg11
g12
sg13
I00
sg14
(lp70
sg19
I00
sg20
I12
sg21
S'envelope_GAR1930_7-12L2-18s_mid_BR_F.ab1'
p71
sa(dp72
g4
S'                CGATGCNCGA C TAGGGATTGGCAGGTGTTCTTTTGATGACCCTGCCANCA CCTNATGAGAANTGNNNAGTTTNTNGGTTCCGGNGGGAGTATGGTCGCAAGTNCTGAAACTGTAAAG GAATGTGNNGGNNGGNGNNNNNNCAGGNGTGGAGCCTGNGGNNNTAATTTGACTCAACACGGGAAAACTTACCNGGTCCAGACACGGGGAGGATTGACAGATTGAGAGCTCTTTCTTGATTCTGTGGGTGGTGGTGCATGGCCGTTCTTAGTTGGTGGGTTGCCTTGTCAGGTTGATTCCGGTAACGAACGANACCTCAGCCTGCTAAATAGTCACGTNNGCCTCTCGCAGACGGCCGACTTCTTAGAGGGACTATTGTCGTTTAGGCAATGGAAGTATGAGGCAATAACAGGTCTGTGATGCCCTTANATGTTCTGGGCCGCACGCNCGCTACACTGATGCGTTCAACGAGCCTATCCTTGGCCGAGAGGCCCGGGTAATNNNTTNNNAACCGCATNNNNGATGGGATAAGATTATTGCAATTATTAGTCTTCAACGAGGAATGCCTAGTAAGCGCGAGTCATCAG CTCGCGTTGATTACGTCCCTGCCCTTTGTACA CACCGCCCGTCGCTCCTACCGATTGAGTGTGCTGTGNGGAAGTN                         '
p73
sg6
S'CGATGCNCGACTAGGGATTGGCAGGTGTTCTTTTGATGACCCTGCCANCACCTNATGAGAANTGNNNAGTTTNTNGGTTCCGGNGGGAGTATGGTCGCAAGTNCTGAAACTGTAAAGGAATGTGNNGGNNGGNGNNNNNNCAGGNGTGGAGCCTGNGGNNNTAATTTGACTCAACACGGGAAAACTTACCNGGTCCAGACACGGGGAGGATTGACAGATTGAGAGCTCTTTCTTGATTCTGTGGGTGGTGGTGCATGGCCGTTCTTAGTTGGTGGGTTGCCTTGTCAGGTTGATTCCGGTAACGAACGANACCTCAGCCTGCTAAATAGTCACGTNNGCCTCTCGCAGACGGCCGACTTCTTAGAGGGACTATTGTCGTTTAGGCAATGGAAGTATGAGGCAATAACAGGTCTGTGATGCCCTTANATGTTCTGGGCCGCACGCNCGCTACACTGATGCGTTCAACGAGCCTATCCTTGGCCGAGAGGCCCGGGTAATNNNTTNNNAACCGCATNNNNGATGGGATAAGATTATTGCAATTATTAGTCTTCAACGAGGAATGCCTAGTAAGCGCGAGTCATCAGCTCGCGTTGATTACGTCCCTGCCCTTTGTACACACCGCCCGTCGCTCCTACCGATTGAGTGTGCTGTGNGGAAGTN'
p74
sg8
S'frwdrev'
p75
sg10
I01
sg11
g12
sg13
I01
sg14
(lp76
(dp77
g4
g12
sg6
g12
sg8
S'file'
p78
sg10
I00
sg11
g12
sg13
I00
sg14
(lp79
sg19
I00
sg20
I14
sg21
S'envelope_GAR1930_7-12L4-18s_mid_BR_F.ab1'
p80
sa(dp81
g4
g12
sg6
g12
sg8
S'file'
p82
sg10
I00
sg11
g12
sg13
I00
sg14
(lp83
sg19
I01
sg20
I15
sg21
S'envelope_GAR1930_7-12L4-18s_mid_BR_R.ab1'
p84
sasg19
I00
sg20
I13
sg21
S'envelope_GAR1930_7-12L4-18s_mid_BR.ab1'
p85
sa(dp86
g4
g12
sg6
g12
sg8
S'file'
p87
sg10
I00
sg11
g12
sg13
I00
sg14
(lp88
sg19
I00
sg20
I16
sg21
S'gear_PAN1918_5-25T3-18s_mid_BR_F.ab1'
p89
sa(dp90
g4
S'                 NNATGCCGACTAGGGATTGGCGGGTGTTTCGTTGATGACCCCGCCAGCACCTTATGAGAAATCAAAGTCTTTGGGTTCCGGGGGGAGTATGGTCGCAAGGCTGAAACTTAAAGGAATTGACGGAAGGGCACCACCAGGCGTGGAGCCTGCGGCTTAATTTGACTCAACACGGGAAAACTTACCAGGTCCAGACACGGGAAGGATTGACAGATTGAGAGCTCTTTCTTGATTCTGTGGGTGGTGGTGCATGGCCGTTCTTAGTTGGTGGGTTGCCTTGTCAGGTTGATTCCGGTAACGAACGAGACCTCAGCCTGCTAAATAGTCACAGTTGCCTCTGGCAGCTGGCTGACTTCTTAGAGGGACTATTGTCGTTTAGGCAATGGAAGTATGAGGCAATAACAGGTCTGTGATGCCCTTAGATGTTCTGGGCCGCACGCGCGCTACACTGATGCATTCAACAAGCCTATCCTTGGCCGAGAGGCCCGGGTAATCTTTGAAACTGCATCGTGATGGGGATAGATTATTGCAATTATTAGTCTTCAACGAGGAATGCCTAGTAAGCGCGAGTCATCAGCTCGCGTTGATTACGTCCCTGCCCTTTGTACACACCGCCCGTCGCTCCTACCGATTGGGNN                      '
p91
sg6
S'NNATGCCGACTAGGGATTGGCGGGTGTTTCGTTGATGACCCCGCCAGCACCTTATGAGAAATCAAAGTCTTTGGGTTCCGGGGGGAGTATGGTCGCAAGGCTGAAACTTAAAGGAATTGACGGAAGGGCACCACCAGGCGTGGAGCCTGCGGCTTAATTTGACTCAACACGGGAAAACTTACCAGGTCCAGACACGGGAAGGATTGACAGATTGAGAGCTCTTTCTTGATTCTGTGGGTGGTGGTGCATGGCCGTTCTTAGTTGGTGGGTTGCCTTGTCAGGTTGATTCCGGTAACGAACGAGACCTCAGCCTGCTAAATAGTCACAGTTGCCTCTGGCAGCTGGCTGACTTCTTAGAGGGACTATTGTCGTTTAGGCAATGGAAGTATGAGGCAATAACAGGTCTGTGATGCCCTTAGATGTTCTGGGCCGCACGCGCGCTACACTGATGCATTCAACAAGCCTATCCTTGGCCGAGAGGCCCGGGTAATCTTTGAAACTGCATCGTGATGGGGATAGATTATTGCAATTATTAGTCTTCAACGAGGAATGCCTAGTAAGCGCGAGTCATCAGCTCGCGTTGATTACGTCCCTGCCCTTTGTACACACCGCCCGTCGCTCCTACCGATTGGGNN'
p92
sg8
S'frwdrev'
p93
sg10
I01
sg11
g12
sg13
I01
sg14
(lp94
(dp95
g4
g12
sg6
g12
sg8
S'file'
p96
sg10
I00
sg11
g12
sg13
I00
sg14
(lp97
sg19
I00
sg20
I18
sg21
S'honeycomb_BDW1906B_7-5L3-18s_mid_BR_F.ab1'
p98
sa(dp99
g4
g12
sg6
g12
sg8
S'file'
p100
sg10
I00
sg11
g12
sg13
I00
sg14
(lp101
sg19
I01
sg20
I19
sg21
S'honeycomb_BDW1906B_7-5L3-18s_mid_BR_R.ab1'
p102
sasg19
I00
sg20
I17
sg21
S'honeycomb_BDW1906B_7-5L3-18s_mid_BR.ab1'
p103
sa(dp104
g4
g12
sg6
g12
sg8
S'file'
p105
sg10
I00
sg11
g12
sg13
I00
sg14
(lp106
sg19
I01
sg20
I20
sg21
S'petal_CAT20TR3_3-12T1-18s_mid_BR_R.ab1'
p107
sa(dp108
g4
S'                                              NTTGATGNCCCTGCCANCACCTTATGAGAAATCAAAGTTTTTGGGTTCCGGGGGGAGTATGGTCGCAAGGCTGAAACTTAAAGGAATTGACGGAAGGGCACCACCAGGCGTGGAGCCTGCGGCTTAATTTGACTCAACACGGGAAAACTTACCAGGTCCAGACACGGGGAGGATTGACAGATTGAGAGCTCTTTCTTGATTCTGTGGGTGGTGGTGCATGGCCGTTCTTAGTTGGTGGGTTGCCTTGTCAGGTTGATTCCGGTAACGAACGAGACCTCAGCCTGCTAAATAGTCACATCTGCCTCTCGCAGCTGGCCGACTTCTTAGAGGGACTATTGTCGTTTAGGCAATGGAAGTATGAGGCAATAACAGGTCTGTGATGCCCTTAGATGTTCTGGGCCGCACGCGCGCTACACTGATGCGTTCAACGAGCCTATCCTTGGCCGAGAGGCCCGGGTAATCTTAGAAACCGCATCGTGATGGGGATAGATTATTGCAATTATTAGTCTTCAACGAGGAATGCCTAGTAAGCGCAAGTCATCAGCTTGCGTTGATTACGTCCCTGCCCTTTGTACNCACCGCCCG                                       '
p109
sg6
S'NTTGATGNCCCTGCCANCACCTTATGAGAAATCAAAGTTTTTGGGTTCCGGGGGGAGTATGGTCGCAAGGCTGAAACTTAAAGGAATTGACGGAAGGGCACCACCAGGCGTGGAGCCTGCGGCTTAATTTGACTCAACACGGGAAAACTTACCAGGTCCAGACACGGGGAGGATTGACAGATTGAGAGCTCTTTCTTGATTCTGTGGGTGGTGGTGCATGGCCGTTCTTAGTTGGTGGGTTGCCTTGTCAGGTTGATTCCGGTAACGAACGAGACCTCAGCCTGCTAAATAGTCACATCTGCCTCTCGCAGCTGGCCGACTTCTTAGAGGGACTATTGTCGTTTAGGCAATGGAAGTATGAGGCAATAACAGGTCTGTGATGCCCTTAGATGTTCTGGGCCGCACGCGCGCTACACTGATGCGTTCAACGAGCCTATCCTTGGCCGAGAGGCCCGGGTAATCTTAGAAACCGCATCGTGATGGGGATAGATTATTGCAATTATTAGTCTTCAACGAGGAATGCCTAGTAAGCGCAAGTCATCAGCTTGCGTTGATTACGTCCCTGCCCTTTGTACNCACCGCCCG'
p110
sg8
S'frwdrev'
p111
sg10
I01
sg11
g12
sg13
I01
sg14
(lp112
(dp113
g4
g12
sg6
g12
sg8
S'file'
p114
sg10
I00
sg11
g12
sg13
I00
sg14
(lp115
sg19
I00
sg20
I22
sg21
S'squares_BLU1901_5-13T1-18s_mid_BR_F.ab1'
p116
sa(dp117
g4
g12
sg6
g12
sg8
S'file'
p118
sg10
I00
sg11
g12
sg13
I00
sg14
(lp119
sg19
I01
sg20
I23
sg21
S'squares_BLU1901_5-13T1-18s_mid_BR_R.ab1'
p120
sasg19
I00
sg20
I21
sg21
S'squares_BLU1901_5-13T1-18s_mid_BR.ab1'
p121
sasS'formatversion'
p122
S'0.9'
p123
sS'consseqsettings'
p124
(dp125
S'consensus_algorithm'
p126
S'Bayesian'
p127
sS'do_qualitytrim'
p128
I01
sS'qualitytrim_winsize'
p129
I10
sS'primermatch_threshold'
p130
F0.8
sS'trim_endgaps'
p131
I00
sS'min_confscore'
p132
I30
sS'forward_primer'
p133
g12
sS'reverse_primer'
p134
g12
sS'qualitytrim_basecnt'
p135
I8
sS'trim_consensus'
p136
I01
sS'trim_primers'
p137
I00
ssS'properties'
p138
(dp139
S'fwd_trace_searchstr'
p140
S'_F'
p141
sS'rev_trace_searchstr'
p142
S'_R'
p143
sS'trace_file_dir'
p144
S'.'
p145
ss.