(dp0
S'items'
p1
(lp2
(dp3
S'fullcons'
p4
S''
p5
sS'compactcons'
p6
g5
sS'itemtype'
p7
S'frwdrev'
p8
sS'useseq'
p9
I00
sS'notes'
p10
g5
sS'hasseq'
p11
I00
sS'children'
p12
(lp13
(dp14
g4
g5
sg6
g5
sg7
S'file'
p15
sg9
I00
sg10
g5
sg11
I00
sg12
(lp16
sS'isreverse'
p17
I00
sS'id'
p18
I9
sS'name'
p19
S'bigSphere_CAT20TR8_20220325L2-chlorITS2_2109F.ab1'
p20
sa(dp21
g4
g5
sg6
g5
sg7
S'file'
p22
sg9
I00
sg10
g5
sg11
I00
sg12
(lp23
sg17
I01
sg18
I8
sg19
S'bigSphere_CAT20TR8_20220325L2-chlorITS2_2705R.ab1'
p24
sasg17
I00
sg18
I10
sg19
S'bigSphere_CAT20TR8_20220325L2-'
p25
sa(dp26
g4
g5
sg6
g5
sg7
S'frwdrev'
p27
sg9
I00
sg10
g5
sg11
I00
sg12
(lp28
(dp29
g4
g5
sg6
g5
sg7
S'file'
p30
sg9
I00
sg10
g5
sg11
I00
sg12
(lp31
sg17
I00
sg18
I7
sg19
S'callous_BLU1901_20220325L3-chlorITS2_2109F.ab1'
p32
sa(dp33
g4
g5
sg6
g5
sg7
S'file'
p34
sg9
I00
sg10
g5
sg11
I00
sg12
(lp35
sg17
I01
sg18
I6
sg19
S'callous_BLU1901_20220325L3-chlorITS2_2705R.ab1'
p36
sasg17
I00
sg18
I11
sg19
S'callous_BLU1901_20220325L3-'
p37
sa(dp38
g4
S'                                                 NNTCGAATTTTTGNAACGCATATTGCGCTCAAGGCTTCGGCCAAGAGCATGTCTGCCTCAGCGTCGGGTTCTCCATCATCGACTCTCCTCTTCTTCCGAAGATGAGCGTCGTGGAAACTCGCAGTCCGATCCTCCGTTCTTAATCGAGCGTTGGTGAGGTCTGCCAAAGTGAAAGTAGCGCTCCGAGCATTGCCCATCCATGCGTCAGCAATGGCGTGTGTTTGGGTATGTAGCCGCACTCGAGTAGTTGTGATGACGCATGTGTTAACTCACATGTGTCTTTCCTTATTCGATTATCCTACAACTTGCTCGGCTTCTCTTTGTTGTCTTCATGACAACATCCGAGACGAACCAGCCCTATACAAGTATACCTCCCAACATGGAACCCTTCACTTCTCGACCTGAGCTCAGGCAAGATTACCCGCTGAACTTAAGCATATCAATAAGCGGAGGAAAAGAAACCAACCAGGATTCCCCTAGTAACGGCGAGCGAACCGGGATCAGCCCAACTTGAAAATCTCCCTCTTGGAGAATTGTAGTCTACAGAAGTGCCCTCTGTGGCCGTGGGAGCTCAAGTTCGCTGGAAGGCGACGTCAAAGAGGGTGAGAACCCCGTCGGCTCCCATCTGGCCGCACCACGAGGTGCTTTCCACGAGTCGGGTTGTTTGGGAATGCAGCCCAAAA TGGAGGTAANN                                                          '
p39
sg6
S'NNTCGAATTTTTGNAACGCATATTGCGCTCAAGGCTTCGGCCAAGAGCATGTCTGCCTCAGCGTCGGGTTCTCCATCATCGACTCTCCTCTTCTTCCGAAGATGAGCGTCGTGGAAACTCGCAGTCCGATCCTCCGTTCTTAATCGAGCGTTGGTGAGGTCTGCCAAAGTGAAAGTAGCGCTCCGAGCATTGCCCATCCATGCGTCAGCAATGGCGTGTGTTTGGGTATGTAGCCGCACTCGAGTAGTTGTGATGACGCATGTGTTAACTCACATGTGTCTTTCCTTATTCGATTATCCTACAACTTGCTCGGCTTCTCTTTGTTGTCTTCATGACAACATCCGAGACGAACCAGCCCTATACAAGTATACCTCCCAACATGGAACCCTTCACTTCTCGACCTGAGCTCAGGCAAGATTACCCGCTGAACTTAAGCATATCAATAAGCGGAGGAAAAGAAACCAACCAGGATTCCCCTAGTAACGGCGAGCGAACCGGGATCAGCCCAACTTGAAAATCTCCCTCTTGGAGAATTGTAGTCTACAGAAGTGCCCTCTGTGGCCGTGGGAGCTCAAGTTCGCTGGAAGGCGACGTCAAAGAGGGTGAGAACCCCGTCGGCTCCCATCTGGCCGCACCACGAGGTGCTTTCCACGAGTCGGGTTGTTTGGGAATGCAGCCCAAAATGGAGGTAANN'
p40
sg7
S'frwdrev'
p41
sg9
I01
sg10
g5
sg11
I01
sg12
(lp42
(dp43
g4
g5
sg6
g5
sg7
S'file'
p44
sg9
I00
sg10
g5
sg11
I00
sg12
(lp45
sg17
I00
sg18
I5
sg19
S'cog_P6618_20220504L3-chlorITS2_2109F.ab1'
p46
sa(dp47
g4
g5
sg6
g5
sg7
S'file'
p48
sg9
I00
sg10
g5
sg11
I00
sg12
(lp49
sg17
I01
sg18
I4
sg19
S'cog_P6618_20220504L3-chlorITS2_2705R.ab1'
p50
sasg17
I00
sg18
I12
sg19
S'cog_P6618_20220504L3-'
p51
sa(dp52
g4
S'                     NGTNGTGTGAATTGCAGATTTCCGTGAACCATCGAATTTTTGAACGCATATTGCGCTCAAGGCCTCGGCCAAGAGCATGTCTGGCTCAGCGTCGGGTTCTCCTCTACATACTCGCTTGCCAAGTTCGAGTCTAAACCACTCCTCCTTGCGGAAACAAGCGGATGTTATGAAGATCCCGTGGCAATCCATCTTGTGCAAGATGTGACAGAGGGATTGCCCAAGTCTCAACCGCGCTTCATTCGAACAACTCCCGTGCTTTTCTCATGATGAGCTCGGTAGTTTTGGATGCGCATGGGTATACGCATAACTGCTNTACTCATCCATCTTGGGCCCGTGCCAGGCAGCTTAGGCGTGCTAACAGGCAAACAAGTTTTCGTTTGAAAGTACGCGTGTGTTGTTGTTGGTTGTCCAATCACTTGGCACCTATACTTCTCGACCTGAGCTCAGGCAAGATTACCCGCTGAACTTAAGCATATCAATAAGCGGAGGAAAAGAAACCAACCAGGATTCCCCTAGTAACGGCGAGCGAACCGGGAAAAGCCCAACTTGAAAATCTCCCATCTGGAGAATTGTAGTCTACAGAAGTGCCGTCTTTGGCTAGGGGAGCTCAAGTCCGCTGGAAGGCGGCGTCATAGAGGGTGAGAACCCCGTCAGCTCCCACTTTGCTAATCTCACGAGGTGCTTTCCACGAGTCGGGTTGTTTGGGAATGCAGCCCAAACTTGGAGGTAAATCCCTNCN                                                      '
p53
sg6
S'NGTNGTGTGAATTGCAGATTTCCGTGAACCATCGAATTTTTGAACGCATATTGCGCTCAAGGCCTCGGCCAAGAGCATGTCTGGCTCAGCGTCGGGTTCTCCTCTACATACTCGCTTGCCAAGTTCGAGTCTAAACCACTCCTCCTTGCGGAAACAAGCGGATGTTATGAAGATCCCGTGGCAATCCATCTTGTGCAAGATGTGACAGAGGGATTGCCCAAGTCTCAACCGCGCTTCATTCGAACAACTCCCGTGCTTTTCTCATGATGAGCTCGGTAGTTTTGGATGCGCATGGGTATACGCATAACTGCTNTACTCATCCATCTTGGGCCCGTGCCAGGCAGCTTAGGCGTGCTAACAGGCAAACAAGTTTTCGTTTGAAAGTACGCGTGTGTTGTTGTTGGTTGTCCAATCACTTGGCACCTATACTTCTCGACCTGAGCTCAGGCAAGATTACCCGCTGAACTTAAGCATATCAATAAGCGGAGGAAAAGAAACCAACCAGGATTCCCCTAGTAACGGCGAGCGAACCGGGAAAAGCCCAACTTGAAAATCTCCCATCTGGAGAATTGTAGTCTACAGAAGTGCCGTCTTTGGCTAGGGGAGCTCAAGTCCGCTGGAAGGCGGCGTCATAGAGGGTGAGAACCCCGTCAGCTCCCACTTTGCTAATCTCACGAGGTGCTTTCCACGAGTCGGGTTGTTTGGGAATGCAGCCCAAACTTGGAGGTAAATCCCTNCN'
p54
sg7
S'frwdrev'
p55
sg9
I01
sg10
g5
sg11
I01
sg12
(lp56
(dp57
g4
g5
sg6
g5
sg7
S'file'
p58
sg9
I00
sg10
g5
sg11
I00
sg12
(lp59
sg17
I00
sg18
I3
sg19
S'comChlain_BRO1905_20220504L1-chlorITS2_2109F.ab1'
p60
sa(dp61
g4
g5
sg6
g5
sg7
S'file'
p62
sg9
I00
sg10
g5
sg11
I00
sg12
(lp63
sg17
I01
sg18
I2
sg19
S'comChlain_BRO1905_20220504L1-chlorITS2_2705R.ab1'
p64
sasg17
I00
sg18
I13
sg19
S'comChlain_BRO1905_20220504L1-'
p65
sa(dp66
g4
S'                                                                                                                                                                                                                                                                                       CGTGANACNATNCGAA T CTT  TGAANCG CATATTGCGCTGGAG GCNTTC GGCCAACAGCATGTCTGCCTCA NGCGTCGGGTTAATTCTCGCCCATCATC TTCCCT G T GTTGA T GATC  TGG GCGGAT   C TG GC T  T TC  T C AGCTC TCACGAG    N CTGGG    TTTGCTNGAAGTACAGAGGTTAATGCATNGGN NA CCC GT T AAGGGCTG NC AGCTGGTTAGG C AGTGATG  CNTATCGATTAGNCTGTNT GGTC TGG GAACTGCGTTT GAC CCTCCA  CAAG GA AACT TAGATTATTTCCTCGAC CTGAGCTCAGGCAAGATNTACCCGCTGAACT TAAGCATATCAATAAGCGGAGGAAAAN  GAAACTAACAAGGATTCCCCTAGTAACGGCGAGCGAACCGGGAATAGCCCAACTTGAAAATCTCCCTCTGGAGAATTGTAGTCTAGAGAAGCGCCCTCTGCGACGGACNGNGCCCAAGTNN              '
p67
sg6
S'CGTGANACNATNCGAATCTTTGAANCGCATATTGCGCTGGAGGCNTTCGGCCAACAGCATGTCTGCCTCANGCGTCGGGTTAATTCTCGCCCATCATCTTCCCTGTGTTGATGATCTGGGCGGATCTGGCTTTCTCAGCTCTCACGAGNCTGGGTTTGCTNGAAGTACAGAGGTTAATGCATNGGNNACCCGTTAAGGGCTGNCAGCTGGTTAGGCAGTGATGCNTATCGATTAGNCTGTNTGGTCTGGGAACTGCGTTTGACCCTCCACAAGGAAACTTAGATTATTTCCTCGACCTGAGCTCAGGCAAGATNTACCCGCTGAACTTAAGCATATCAATAAGCGGAGGAAAANGAAACTAACAAGGATTCCCCTAGTAACGGCGAGCGAACCGGGAATAGCCCAACTTGAAAATCTCCCTCTGGAGAATTGTAGTCTAGAGAAGCGCCCTCTGCGACGGACNGNGCCCAAGTNN'
p68
sg7
S'frwdrev'
p69
sg9
I01
sg10
g5
sg11
I01
sg12
(lp70
(dp71
g4
g5
sg6
g5
sg7
S'file'
p72
sg9
I00
sg10
g5
sg11
I00
sg12
(lp73
sg17
I00
sg18
I1
sg19
S'smallSphere_PAN1915_20220401L3-chlorITS2_2109F.ab1'
p74
sa(dp75
g4
g5
sg6
g5
sg7
S'file'
p76
sg9
I00
sg10
g5
sg11
I00
sg12
(lp77
sg17
I01
sg18
I0
sg19
S'smallSphere_PAN1915_20220401L3-chlorITS2_2705R.ab1'
p78
sasg17
I00
sg18
I14
sg19
S'smallSphere_PAN1915_20220401L3-'
p79
sasS'formatversion'
p80
S'0.9'
p81
sS'consseqsettings'
p82
(dp83
S'consensus_algorithm'
p84
S'Bayesian'
p85
sS'do_qualitytrim'
p86
I01
sS'qualitytrim_winsize'
p87
I10
sS'primermatch_threshold'
p88
F0.8
sS'trim_endgaps'
p89
I00
sS'min_confscore'
p90
I30
sS'forward_primer'
p91
g5
sS'reverse_primer'
p92
g5
sS'qualitytrim_basecnt'
p93
I8
sS'trim_consensus'
p94
I01
sS'trim_primers'
p95
I00
ssS'properties'
p96
(dp97
S'fwd_trace_searchstr'
p98
S'chlorITS2_2109F.ab1'
p99
sS'rev_trace_searchstr'
p100
S'chlorITS2_2705R.ab1'
p101
sS'trace_file_dir'
p102
S'.'
p103
ss.