(dp0
S'items'
p1
(lp2
(dp3
S'fullcons'
p4
S'                     ACGCAGCGAAATGCGATACGTAGTGTGAATTGCAGAATTCCGTGAACCANNGAATTTTTGAACGCATAT TGCGCTCAAGGCTTCGGCCAAGAGCATGTCTGCCTCAGCGTCGGGTTCTCCATCATCGACTCTTCTCTCTTCTCTCGAGTCGAGTNTAGAGTCATGGAAACTCGCAGTCCGATCCTATGTGTTCTTCATCGAGCACATGGGTGAGGTCTGCCAAAGTGAAAGTAGCGCTCCGAGCATTGCCCATCCATGCGTCAGAAATGGCGTGTGGTTGGGTATGTAGCCGCACTCGAGTAGTTGTGAGCTCACATGTGTTTACTCACGTGTGTTTTCCCTATTCGACTATCCTACGACTTGCTCGGCTTCTCTTTGTCGTCATCATTCTTTGATAGCAACATCCGAGACGAAACCAGCCCTATACAAGTATACCTCCCAACATGGAACCCTTCACTTCTCGACCTGAGCTCAGGCAAGATTACCCGCTGAACTTAAGCATATCAATAAGCGGAGGAAAAGAAACCAACCAGGATTCCCCTAGTAACGGCGAGCGAACCGGGATCAGCCCAACTTGAAAATCTCCCTCTTGGAGAATTGTAGTCTACAGAAGTGCCCTCTGTGGCCGTGGGAGCTCAAGTTCGCTGGAAGGCGACGTCAAAGAGGGTGAGAACCCCGTCGGCTCCCATCTGGCCGCACCACGAGGTGCTTTCCACGAGTCGGGTTGTTTGGGAATGCAGCCCAAAATTGGAGGTAAATCCCTTCTAAGGCTAAATAACGGCGAGAGACCGATA                    '
p5
sS'compactcons'
p6
S'ACGCAGCGAAATGCGATACGTAGTGTGAATTGCAGAATTCCGTGAACCANNGAATTTTTGAACGCATATTGCGCTCAAGGCTTCGGCCAAGAGCATGTCTGCCTCAGCGTCGGGTTCTCCATCATCGACTCTTCTCTCTTCTCTCGAGTCGAGTNTAGAGTCATGGAAACTCGCAGTCCGATCCTATGTGTTCTTCATCGAGCACATGGGTGAGGTCTGCCAAAGTGAAAGTAGCGCTCCGAGCATTGCCCATCCATGCGTCAGAAATGGCGTGTGGTTGGGTATGTAGCCGCACTCGAGTAGTTGTGAGCTCACATGTGTTTACTCACGTGTGTTTTCCCTATTCGACTATCCTACGACTTGCTCGGCTTCTCTTTGTCGTCATCATTCTTTGATAGCAACATCCGAGACGAAACCAGCCCTATACAAGTATACCTCCCAACATGGAACCCTTCACTTCTCGACCTGAGCTCAGGCAAGATTACCCGCTGAACTTAAGCATATCAATAAGCGGAGGAAAAGAAACCAACCAGGATTCCCCTAGTAACGGCGAGCGAACCGGGATCAGCCCAACTTGAAAATCTCCCTCTTGGAGAATTGTAGTCTACAGAAGTGCCCTCTGTGGCCGTGGGAGCTCAAGTTCGCTGGAAGGCGACGTCAAAGAGGGTGAGAACCCCGTCGGCTCCCATCTGGCCGCACCACGAGGTGCTTTCCACGAGTCGGGTTGTTTGGGAATGCAGCCCAAAATTGGAGGTAAATCCCTTCTAAGGCTAAATAACGGCGAGAGACCGATA'
p7
sS'itemtype'
p8
S'frwdrev'
p9
sS'useseq'
p10
I01
sS'notes'
p11
S''
p12
sS'hasseq'
p13
I01
sS'children'
p14
(lp15
(dp16
g4
g12
sg6
g12
sg8
S'file'
p17
sg10
I00
sg11
g12
sg13
I00
sg14
(lp18
sS'isreverse'
p19
I00
sS'id'
p20
I2
sS'name'
p21
S'star_BLU1901_20220220T1-chlorITS2_2109F.ab1'
p22
sa(dp23
g4
g12
sg6
g12
sg8
S'file'
p24
sg10
I00
sg11
g12
sg13
I00
sg14
(lp25
sg19
I01
sg20
I3
sg21
S'star_BLU1901_20220220T1-chlorITS2_2705R.ab1'
p26
sasg19
I00
sg20
I4
sg21
S'star_BLU1901_20220220T1_ITS2'
p27
sa(dp28
g4
S'                       ACGCAGCGAAATGCGATACGTAGTGTGAATTGCAGAATTCCGTGAACCATCGAATTTTTGAACGCATATTGCGCTCAAGGCTTCGGCCAAGAGCATGTCTGCCTCAGCGTCGGGTTCTCCATCATCGACTCTTCTCTCTTCTCTCGAGTCGAGTCTAGAGTCATGGAAACTCGCAGTCCGATCCTATGTGTTCTTCATCGAGCACATGGGTGAGGTCTGCCAAAGTGAAAGTAGCGCTCCGAGCATTGCCCATCCATGCGTCAGAAATGGCGTGTGGTTGGGTATGTAGCCGCACTCGAGTAGTTGTGAGCTCACATGTGTTTACTCACGTGTGTTTTCCCTATTCGACTATCCTACGACTTGCTCGGCTTCTCTTTGTCGTCATCATTCTTTGATAGCAACATCCGAGACGAAACCAGCCCTATACAAGTATACCTCCCAACATGGAACCCTTCACTTCTCGACCTGAGCTCAGGCAAGATTACCCGCTGAACTTAAGCATATCAATAAGCGGAGGAAAAGAAACCAACCAGGATTCCCCTAGTAACGGCGAGCGAACCGGGATCAGCCCAACTTGAAAATCTCCCTCTTGGAGAATTGTAGTCTACAGAAGTGCCCTCTGTGGCCGTGGGAGCTCAAGTTCGCTGGAAGGCGACGTCAAAGAGGGTGAGAACCCCGTCGGCTCCCATCTGGCCGCACCACGAGGTGCTTTCCACGAGTCGGGTTGTTTGGGAATGCAGCCCAAAATTGGAGGTAAATCCCTTCTAAGGCTAAATAACGGCGAGAGACCGA                    '
p29
sg6
S'ACGCAGCGAAATGCGATACGTAGTGTGAATTGCAGAATTCCGTGAACCATCGAATTTTTGAACGCATATTGCGCTCAAGGCTTCGGCCAAGAGCATGTCTGCCTCAGCGTCGGGTTCTCCATCATCGACTCTTCTCTCTTCTCTCGAGTCGAGTCTAGAGTCATGGAAACTCGCAGTCCGATCCTATGTGTTCTTCATCGAGCACATGGGTGAGGTCTGCCAAAGTGAAAGTAGCGCTCCGAGCATTGCCCATCCATGCGTCAGAAATGGCGTGTGGTTGGGTATGTAGCCGCACTCGAGTAGTTGTGAGCTCACATGTGTTTACTCACGTGTGTTTTCCCTATTCGACTATCCTACGACTTGCTCGGCTTCTCTTTGTCGTCATCATTCTTTGATAGCAACATCCGAGACGAAACCAGCCCTATACAAGTATACCTCCCAACATGGAACCCTTCACTTCTCGACCTGAGCTCAGGCAAGATTACCCGCTGAACTTAAGCATATCAATAAGCGGAGGAAAAGAAACCAACCAGGATTCCCCTAGTAACGGCGAGCGAACCGGGATCAGCCCAACTTGAAAATCTCCCTCTTGGAGAATTGTAGTCTACAGAAGTGCCCTCTGTGGCCGTGGGAGCTCAAGTTCGCTGGAAGGCGACGTCAAAGAGGGTGAGAACCCCGTCGGCTCCCATCTGGCCGCACCACGAGGTGCTTTCCACGAGTCGGGTTGTTTGGGAATGCAGCCCAAAATTGGAGGTAAATCCCTTCTAAGGCTAAATAACGGCGAGAGACCGA'
p30
sg8
S'frwdrev'
p31
sg10
I01
sg11
g12
sg13
I01
sg14
(lp32
(dp33
g4
g12
sg6
g12
sg8
S'file'
p34
sg10
I00
sg11
g12
sg13
I00
sg14
(lp35
sg19
I00
sg20
I0
sg21
S'star_BUG1903_20220301T1-chlorITS2_2109F.ab1'
p36
sa(dp37
g4
g12
sg6
g12
sg8
S'file'
p38
sg10
I00
sg11
g12
sg13
I00
sg14
(lp39
sg19
I01
sg20
I1
sg21
S'star_BUG1903_20220301T1-chlorITS2_2705R.ab1'
p40
sasg19
I00
sg20
I5
sg21
S'star_BUG1903_20220301T1_ITS2'
p41
sasS'formatversion'
p42
S'0.9'
p43
sS'consseqsettings'
p44
(dp45
S'consensus_algorithm'
p46
S'Bayesian'
p47
sS'do_qualitytrim'
p48
I01
sS'qualitytrim_winsize'
p49
I10
sS'primermatch_threshold'
p50
F0.8
sS'trim_endgaps'
p51
I00
sS'min_confscore'
p52
I30
sS'forward_primer'
p53
g12
sS'reverse_primer'
p54
g12
sS'qualitytrim_basecnt'
p55
I8
sS'trim_consensus'
p56
I01
sS'trim_primers'
p57
I00
ssS'properties'
p58
(dp59
S'fwd_trace_searchstr'
p60
S'chlorITS2_2109F.ab'
p61
sS'rev_trace_searchstr'
p62
S'chlorITS2_2705R.ab'
p63
sS'trace_file_dir'
p64
S'.'
p65
ss.