(dp0
S'items'
p1
(lp2
(dp3
S'fullcons'
p4
S'                        CCGACTAGGGATTGGCGGGTG TTTCGTTGATGACCCCGCCAGCACCTTATGAGAAATCAAAGTCTTTGGGTTCCGGGGGGAGTATGGTCGCAAGGCTGAAACTTAAAGGAATTGACGGAAGGGCACCACCAGGCGTGGAGCCTGCGGCTTAATTTGACTCAACACGGGAAAACTTACCAGGTCCAGACACGGGAAGGATTGACAGATTGAGAGCTCTTTCTTGATTCTGTGGGTGGTGGTGCATGGCCGTTCTTAGTTGGTGGGTTGCCTTGTCAGGTTGATTCCGGTAACGAACGAGACCTCAGCCTGCTAAATAGTCACAGTTGCCTCTGGCAGCTGGCTGACTTCTTAGAGGGACTATTGTCGTTTAGGCAATGGAAGTATGAGGCAATAACAGGTCTGTGATGCCCTTAGATGTTCTGGGCCGCACGCGCGCTACACTGATGCATTCAACAAGCCTATCCTTGGCCGAGAGGCCCGGGTAATCTTTGAAACTGCATCGTGATGGGGATAGATTATTGCAATTATTAGTCTTCAACGAGGAATGCCTAGTAAGCGCGAGTCATCAGCTCGCGTTGATTACGTCCCTGCCCTTTGTACACACCGCCCGTCGCTCCTACCGATTGGGTGT                 '
p5
sS'compactcons'
p6
S'CCGACTAGGGATTGGCGGGTGTTTCGTTGATGACCCCGCCAGCACCTTATGAGAAATCAAAGTCTTTGGGTTCCGGGGGGAGTATGGTCGCAAGGCTGAAACTTAAAGGAATTGACGGAAGGGCACCACCAGGCGTGGAGCCTGCGGCTTAATTTGACTCAACACGGGAAAACTTACCAGGTCCAGACACGGGAAGGATTGACAGATTGAGAGCTCTTTCTTGATTCTGTGGGTGGTGGTGCATGGCCGTTCTTAGTTGGTGGGTTGCCTTGTCAGGTTGATTCCGGTAACGAACGAGACCTCAGCCTGCTAAATAGTCACAGTTGCCTCTGGCAGCTGGCTGACTTCTTAGAGGGACTATTGTCGTTTAGGCAATGGAAGTATGAGGCAATAACAGGTCTGTGATGCCCTTAGATGTTCTGGGCCGCACGCGCGCTACACTGATGCATTCAACAAGCCTATCCTTGGCCGAGAGGCCCGGGTAATCTTTGAAACTGCATCGTGATGGGGATAGATTATTGCAATTATTAGTCTTCAACGAGGAATGCCTAGTAAGCGCGAGTCATCAGCTCGCGTTGATTACGTCCCTGCCCTTTGTACACACCGCCCGTCGCTCCTACCGATTGGGTGT'
p7
sS'itemtype'
p8
S'frwdrev'
p9
sS'useseq'
p10
I01
sS'notes'
p11
S''
p12
sS'hasseq'
p13
I01
sS'children'
p14
(lp15
(dp16
g4
g12
sg6
g12
sg8
S'file'
p17
sg10
I00
sg11
g12
sg13
I00
sg14
(lp18
sS'isreverse'
p19
I00
sS'id'
p20
I0
sS'name'
p21
S'spheres_PAN1918_7-12L6-mid18S_BR_F.ab1'
p22
sa(dp23
g4
g12
sg6
g12
sg8
S'file'
p24
sg10
I00
sg11
g12
sg13
I00
sg14
(lp25
sg19
I01
sg20
I1
sg21
S'spheres_PAN1918_7-12L6-mid18S_BR_R.ab1'
p26
sasg19
I00
sg20
I6
sg21
S'spheres_PAN1918_7-12L6-mid18S_BR.ab1'
p27
sa(dp28
g4
g12
sg6
g12
sg8
S'file'
p29
sg10
I00
sg11
g12
sg13
I00
sg14
(lp30
sg19
I00
sg20
I2
sg21
S'star_bug1903_7-22L1-chloro18S_F.ab1'
p31
sa(dp32
g4
g12
sg6
g12
sg8
S'file'
p33
sg10
I00
sg11
g12
sg13
I00
sg14
(lp34
sg19
I01
sg20
I3
sg21
S'star_bug1903_7-22L1-chloro18S_R.ab1'
p35
sa(dp36
g4
S'              ANGATGNCGACTAGGGATTGGCAGGTGTTCTTTTGATGACCCTGCCAGCACCTTATGAGAAATCAAAGTTTTTGGGTTCCGGGGGGAGTATGGTCGCAAGGCTGAAACTTAAAGGAATTGACGGAAGGGCACCACCAGGCGTGGAGCCTGCGGCTTAATTTGACTCAACACGGGAAAACTTACCAGGTCCAGACACGGGGAGGATTGACAGATTGAGAGCTCTTTCTTGATTCTGTGGGTGGTGGTGCATGGCCGTTCTTAGTTGGTGGGTTGCCTTGTCAGGTTGATTCCGGTAACNAACGAGACCTCAGCCTGCTAAATAGTCACATCTGCCTCTCGCAGCTGGCCGACTTCTTAGAGGGACTATTGTCGTTTAGGCAATGGAAGTATGAGGCAATAACAGGTCTGTGATGCCCTTAGATGTTCTGGGCCGCACGCGCGCTACACTGATGCGTTCAACGAGCCTATCCTTGGCCGAGAGGTCCGGGTAATCTTCGAAACCGCATCGTGATGGGGATAGATTATTGCAATTATTAGTCTTCAACGAGGAATGCCTAGTAAGCGCGAGTCATCAGCTCGCGTTGATTACGTCCCTGCCCTTTGTACACACCGCCCGTCGCTCCTACCGATTGGGTGT                  '
p37
sg6
S'ANGATGNCGACTAGGGATTGGCAGGTGTTCTTTTGATGACCCTGCCAGCACCTTATGAGAAATCAAAGTTTTTGGGTTCCGGGGGGAGTATGGTCGCAAGGCTGAAACTTAAAGGAATTGACGGAAGGGCACCACCAGGCGTGGAGCCTGCGGCTTAATTTGACTCAACACGGGAAAACTTACCAGGTCCAGACACGGGGAGGATTGACAGATTGAGAGCTCTTTCTTGATTCTGTGGGTGGTGGTGCATGGCCGTTCTTAGTTGGTGGGTTGCCTTGTCAGGTTGATTCCGGTAACNAACGAGACCTCAGCCTGCTAAATAGTCACATCTGCCTCTCGCAGCTGGCCGACTTCTTAGAGGGACTATTGTCGTTTAGGCAATGGAAGTATGAGGCAATAACAGGTCTGTGATGCCCTTAGATGTTCTGGGCCGCACGCGCGCTACACTGATGCGTTCAACGAGCCTATCCTTGGCCGAGAGGTCCGGGTAATCTTCGAAACCGCATCGTGATGGGGATAGATTATTGCAATTATTAGTCTTCAACGAGGAATGCCTAGTAAGCGCGAGTCATCAGCTCGCGTTGATTACGTCCCTGCCCTTTGTACACACCGCCCGTCGCTCCTACCGATTGGGTGT'
p38
sg8
S'frwdrev'
p39
sg10
I01
sg11
g12
sg13
I01
sg14
(lp40
(dp41
g4
g12
sg6
g12
sg8
S'file'
p42
sg10
I00
sg11
g12
sg13
I00
sg14
(lp43
sg19
I00
sg20
I4
sg21
S'star_bug1903_7-22L1-mid18S_BR_F.ab1'
p44
sa(dp45
g4
g12
sg6
g12
sg8
S'file'
p46
sg10
I00
sg11
g12
sg13
I00
sg14
(lp47
sg19
I01
sg20
I5
sg21
S'star_bug1903_7-22L1-mid18S_BR_R.ab1'
p48
sasg19
I00
sg20
I8
sg21
S'star_bug1903_7-22L1-mid18S_BR.ab1'
p49
sasS'formatversion'
p50
S'0.9'
p51
sS'consseqsettings'
p52
(dp53
S'consensus_algorithm'
p54
S'Bayesian'
p55
sS'do_qualitytrim'
p56
I01
sS'qualitytrim_winsize'
p57
I10
sS'primermatch_threshold'
p58
F0.8
sS'trim_endgaps'
p59
I00
sS'min_confscore'
p60
I30
sS'forward_primer'
p61
g12
sS'reverse_primer'
p62
g12
sS'qualitytrim_basecnt'
p63
I8
sS'trim_consensus'
p64
I01
sS'trim_primers'
p65
I00
ssS'properties'
p66
(dp67
S'fwd_trace_searchstr'
p68
S'_F'
p69
sS'rev_trace_searchstr'
p70
S'_R'
p71
sS'trace_file_dir'
p72
S'/home/cengstro/ownCloud/proj/single_cell/data/seq/single_cell/BR_30-749982103'
p73
ss.