(dp0
S'items'
p1
(lp2
(dp3
S'fullcons'
p4
S'                      GCAGCGAAATGCGATACGTAGTGTGAATTGCAGAATTCCGTGAACCATCGAATTTTTGAACGCATATTGCGCTCAAGGCTTCGGCCAAGAGCATGTCTGCCTCAGCGTCGGGTTCTCCATCATGGACTCTCCTCTCTTCTTTCGATTAGAGTGGCGAGTCGTGGAAACTCGCAGTCCGATCCTCCGTTCTTCATTGAGCGTTGGTGAGGTCTGCCAAAGTGAAAGTAGTGCTCCGAGCATCGCCCATCCATGTGTCAGCAATGGCGTGTGTTTGGGTATGTAGCCGCACTCGAGTAGTTGTGATCTCACATGTGTTCACTCACNTGTGTTTTTCCTATTCGACTATCCTACAATTTGCTCGGCTTCTCTTTGTTGTCATCACCATGTGTGATAGCAACATCCGAGACGACCCCAGCCCTATATTAGTATACCTCCCAACATGGAACCCTTCACTTCTCGACCTGAGCTCAGGCAAGATTACCCGCTGAACTTAAGCATATCAATAAGCGGAGGAAAAGAAACCAACCAGGATTCCCCTAGTAACGGCGAGCGAACCGGGATCAGCCCAACTTGAAAATCTCCCTCTTGGAGAATTGTAGTCTACAGAAGTGCCCTCTGTGGCCGTGGGAGCTCAAGTTCGCTGGAAGGCGACGTCAAAGAGGGTGAGAACCCCGTCGGCTCCCATNTGGCTGCACCACGAGGTGCTTTCCACGAGTCGGGTTGTTTGGGAATGCAGCCCAAAATTGGAGGTAAATCCCTTCTAAGGCTAAATAACGGCGANAGA                        '
p5
sS'compactcons'
p6
S'GCAGCGAAATGCGATACGTAGTGTGAATTGCAGAATTCCGTGAACCATCGAATTTTTGAACGCATATTGCGCTCAAGGCTTCGGCCAAGAGCATGTCTGCCTCAGCGTCGGGTTCTCCATCATGGACTCTCCTCTCTTCTTTCGATTAGAGTGGCGAGTCGTGGAAACTCGCAGTCCGATCCTCCGTTCTTCATTGAGCGTTGGTGAGGTCTGCCAAAGTGAAAGTAGTGCTCCGAGCATCGCCCATCCATGTGTCAGCAATGGCGTGTGTTTGGGTATGTAGCCGCACTCGAGTAGTTGTGATCTCACATGTGTTCACTCACNTGTGTTTTTCCTATTCGACTATCCTACAATTTGCTCGGCTTCTCTTTGTTGTCATCACCATGTGTGATAGCAACATCCGAGACGACCCCAGCCCTATATTAGTATACCTCCCAACATGGAACCCTTCACTTCTCGACCTGAGCTCAGGCAAGATTACCCGCTGAACTTAAGCATATCAATAAGCGGAGGAAAAGAAACCAACCAGGATTCCCCTAGTAACGGCGAGCGAACCGGGATCAGCCCAACTTGAAAATCTCCCTCTTGGAGAATTGTAGTCTACAGAAGTGCCCTCTGTGGCCGTGGGAGCTCAAGTTCGCTGGAAGGCGACGTCAAAGAGGGTGAGAACCCCGTCGGCTCCCATNTGGCTGCACCACGAGGTGCTTTCCACGAGTCGGGTTGTTTGGGAATGCAGCCCAAAATTGGAGGTAAATCCCTTCTAAGGCTAAATAACGGCGANAGA'
p7
sS'itemtype'
p8
S'frwdrev'
p9
sS'useseq'
p10
I01
sS'notes'
p11
S''
p12
sS'hasseq'
p13
I01
sS'children'
p14
(lp15
(dp16
g4
g12
sg6
g12
sg8
S'file'
p17
sg10
I00
sg11
g12
sg13
I00
sg14
(lp18
sS'isreverse'
p19
I00
sS'id'
p20
I10
sS'name'
p21
S'petal_BUG1902_20220312T1-chlorITS2_2109F.ab1'
p22
sa(dp23
g4
g12
sg6
g12
sg8
S'file'
p24
sg10
I00
sg11
g12
sg13
I00
sg14
(lp25
sg19
I01
sg20
I9
sg21
S'petal_BUG1902_20220312T1-chlorITS2_2705R.ab1'
p26
sasg19
I00
sg20
I11
sg21
S'petal_BUG1902_20220312T1-.ab1'
p27
sa(dp28
g4
S'                       NCGCAGCGAAATGCGATACGTAGTGTGAATTGCAGAATTCCGTGAACCATCGAATTTTTGAACGCATATTGCGCTCAAGGCTTCGGCCAAGAGCATGTCTGCCTCAGCGTCGGGTTCTCCATCATGGACTCTCCTCTCTTCTTTCGATTAGAGTGGCGAGTCGTGGAAACTCGCAGTCCGATCCTCCGTTCTTCATTGAGCGTTGGTGAGGTCTGCCAAAGTGAAAGTAGTGCTCCGAGCATCGCCCATCCATGTGTCAGCAATGGCGTGTGTTTGGGTATGTAGCCGCACTCGAGTAGTTGTGATCTCACATGTGTTCACTCACGTGTGTTTTTCCTATTCGACTATCCTACAATTTGCTCGGCTTCTCTTTGTTGTCATCACCATGTGTGATAGCAACATCCGAGACGACCCCAGCCCTATATTAGTATACCTCCCAACATGGAACCCTTCACTTCTCGACCTGAGCTCAGGCAAGATTACCCGCTGAACTTAAGCATATCAATAAGCGGAGGAAAAGAAACCAACCAGGATTCCCCTAGTAACGGCGAGCGAACCGGGATCAGCCCAACTTGAAAATCTCCCTCTTGGAGAATTGTAGTCTACAGAAGTGCCCTCTGTGGCCGTGGGAGCTCAAGTTCGCTGGAAGGCGACGTCAAAGAGGGTGAGAACCCCGTCGGCTCCCATCTGGCTGCACCACGAGGTGCTTTCCACGAGTCGGGTTGTTTGGGAATGCAGCCCAAAATTGGAGGTAAATCCCTTCTAAGGCTAAATAACGGCGAGAGACC                        '
p29
sg6
S'NCGCAGCGAAATGCGATACGTAGTGTGAATTGCAGAATTCCGTGAACCATCGAATTTTTGAACGCATATTGCGCTCAAGGCTTCGGCCAAGAGCATGTCTGCCTCAGCGTCGGGTTCTCCATCATGGACTCTCCTCTCTTCTTTCGATTAGAGTGGCGAGTCGTGGAAACTCGCAGTCCGATCCTCCGTTCTTCATTGAGCGTTGGTGAGGTCTGCCAAAGTGAAAGTAGTGCTCCGAGCATCGCCCATCCATGTGTCAGCAATGGCGTGTGTTTGGGTATGTAGCCGCACTCGAGTAGTTGTGATCTCACATGTGTTCACTCACGTGTGTTTTTCCTATTCGACTATCCTACAATTTGCTCGGCTTCTCTTTGTTGTCATCACCATGTGTGATAGCAACATCCGAGACGACCCCAGCCCTATATTAGTATACCTCCCAACATGGAACCCTTCACTTCTCGACCTGAGCTCAGGCAAGATTACCCGCTGAACTTAAGCATATCAATAAGCGGAGGAAAAGAAACCAACCAGGATTCCCCTAGTAACGGCGAGCGAACCGGGATCAGCCCAACTTGAAAATCTCCCTCTTGGAGAATTGTAGTCTACAGAAGTGCCCTCTGTGGCCGTGGGAGCTCAAGTTCGCTGGAAGGCGACGTCAAAGAGGGTGAGAACCCCGTCGGCTCCCATCTGGCTGCACCACGAGGTGCTTTCCACGAGTCGGGTTGTTTGGGAATGCAGCCCAAAATTGGAGGTAAATCCCTTCTAAGGCTAAATAACGGCGAGAGACC'
p30
sg8
S'frwdrev'
p31
sg10
I01
sg11
g12
sg13
I01
sg14
(lp32
(dp33
g4
g12
sg6
g12
sg8
S'file'
p34
sg10
I00
sg11
g12
sg13
I00
sg14
(lp35
sg19
I00
sg20
I8
sg21
S'petal_BUG1902_20220318T1-chlorITS2_2109F.ab1'
p36
sa(dp37
g4
g12
sg6
g12
sg8
S'file'
p38
sg10
I00
sg11
g12
sg13
I00
sg14
(lp39
sg19
I01
sg20
I7
sg21
S'petal_BUG1902_20220318T1-chlorITS2_2705R.ab1'
p40
sasg19
I00
sg20
I12
sg21
S'petal_BUG1902_20220318T1-.ab1'
p41
sa(dp42
g4
g12
sg6
g12
sg8
S'frwdrev'
p43
sg10
I00
sg11
g12
sg13
I00
sg14
(lp44
(dp45
g4
g12
sg6
g12
sg8
S'file'
p46
sg10
I00
sg11
g12
sg13
I00
sg14
(lp47
sg19
I00
sg20
I6
sg21
S'petal_CAT20TR3_20220312T1-chlorITS2_2109F.ab1'
p48
sa(dp49
g4
g12
sg6
g12
sg8
S'file'
p50
sg10
I00
sg11
g12
sg13
I00
sg14
(lp51
sg19
I01
sg20
I5
sg21
S'petal_CAT20TR3_20220312T1-chlorITS2_2705R.ab1'
p52
sasg19
I00
sg20
I13
sg21
S'petal_CAT20TR3_20220312T1-.ab1'
p53
sa(dp54
g4
S'                      ACGCAGCGAAATGCGATACGTAGTGTGAATTGCAGAATTCCGTGAACCATCGAATTTTTGAACGCATATTGCGCTCAAGGCTTCGGCCAAGAGCATGTCTGCCTCAGCGTCGGGTTCTCCATCATGGACTCTCCTCTCTTCTTTCGATTAGAGTGGCGAGTCGTGGAAACTCGCAGTCCGATCCTCCGTTCTTCATTGAGCGTTGGTGAGGTCTGCCAAAGTGAAAGTAGTGCTCCGAGCATCGCCCATCCATGTGTCAGCAATGGCGTGTGTTTGGGTATGTAGCCGCACTCGAGTAGTTGTGATCTCACATGTGTTCACTCACNTGTGTTTTTCCTATTCGACTATCCTACAATTTGCTCGGCTTCTCTTTGTTGTCATCACCATGTGTGATAGCAACATCCGAGACGACCCCAGCCCTATATTAGTATACCTCCCAACATGGAACCCTTCACTTCTCGACCTGAGCTCAGGCAAGATTACCCGCTGAACTTAAGCATATCAATAAGCGGAGGAAAAGAAACCAACCAGGATTCCCCTAGTAACGGCGAGCGAACCGGGATCAGCCCAACTTGAAAATCTCCCTCTTGGAGAATTGTAGTCTACAGAAGTGCCCTCTGTGGCCGTGGGAGCTCAAGTTCGCTGGAAGGCGACGTCAAAGAGGGTGAGAACCCCGTCGGCTCCCATNTGGCTGCACCACGAGGTGCTTTCCACGAGTCGGGTTGTTTGGGAATGCAGCCCAAAATTGGAGGTAAATCCCTTCTAANGNTAAATAACGGCGAGAGACCGATA                    '
p55
sg6
S'ACGCAGCGAAATGCGATACGTAGTGTGAATTGCAGAATTCCGTGAACCATCGAATTTTTGAACGCATATTGCGCTCAAGGCTTCGGCCAAGAGCATGTCTGCCTCAGCGTCGGGTTCTCCATCATGGACTCTCCTCTCTTCTTTCGATTAGAGTGGCGAGTCGTGGAAACTCGCAGTCCGATCCTCCGTTCTTCATTGAGCGTTGGTGAGGTCTGCCAAAGTGAAAGTAGTGCTCCGAGCATCGCCCATCCATGTGTCAGCAATGGCGTGTGTTTGGGTATGTAGCCGCACTCGAGTAGTTGTGATCTCACATGTGTTCACTCACNTGTGTTTTTCCTATTCGACTATCCTACAATTTGCTCGGCTTCTCTTTGTTGTCATCACCATGTGTGATAGCAACATCCGAGACGACCCCAGCCCTATATTAGTATACCTCCCAACATGGAACCCTTCACTTCTCGACCTGAGCTCAGGCAAGATTACCCGCTGAACTTAAGCATATCAATAAGCGGAGGAAAAGAAACCAACCAGGATTCCCCTAGTAACGGCGAGCGAACCGGGATCAGCCCAACTTGAAAATCTCCCTCTTGGAGAATTGTAGTCTACAGAAGTGCCCTCTGTGGCCGTGGGAGCTCAAGTTCGCTGGAAGGCGACGTCAAAGAGGGTGAGAACCCCGTCGGCTCCCATNTGGCTGCACCACGAGGTGCTTTCCACGAGTCGGGTTGTTTGGGAATGCAGCCCAAAATTGGAGGTAAATCCCTTCTAANGNTAAATAACGGCGAGAGACCGATA'
p56
sg8
S'frwdrev'
p57
sg10
I01
sg11
g12
sg13
I01
sg14
(lp58
(dp59
g4
g12
sg6
g12
sg8
S'file'
p60
sg10
I00
sg11
g12
sg13
I00
sg14
(lp61
sg19
I00
sg20
I4
sg21
S'petal_CAT20TR3_20220318T2-chlorITS2_2109F.ab1'
p62
sa(dp63
g4
g12
sg6
g12
sg8
S'file'
p64
sg10
I00
sg11
g12
sg13
I00
sg14
(lp65
sg19
I01
sg20
I3
sg21
S'petal_CAT20TR3_20220318T2-chlorITS2_2705R.ab1'
p66
sasg19
I00
sg20
I14
sg21
S'petal_CAT20TR3_20220318T2-.ab1'
p67
sa(dp68
g4
S'                                         NTAGTGTGAATTGCAGAATTCCGTGAACCATCGAATTTTTGAACGCATATTGCGCTCAAGGCTTCGGCCAAGAGCATGTCTGCCTCAGCGTCGGGTTCTCCATCATGGACTCTCCTCTCTTCTNTCGATTAGAGTGNNGAGTCGTGGAAACTCGCAGTCCGATC  CTCCGTTCTTCATTGAGC CNTNGGTGAGGTCTGCCAAAGTGAAAGTAGTGCTCCGAGCATCGCCCATCCATGTGTCAGCAATGGCGTGTGTTTGGGTATGTAGCCGCACTCGAGTAGTTGTGATCTCACATGTGTTNACTCACGTGTGTTTTNCCTATTCGACTATCCTACAATTTGCTCGGCTTCTCTTTGTTGTCATCA CCATGTGTGATAGCAACATCCGAGACGACCCCAGCCCTATANNAGTATACCTCCCAACATGGAACCCTTCACTTCTCGACCTGAGCTCAGGCAAGATTACCCGCTGAACTTAAGCATATCAATAAGCGGAGGAAAAGAAACCAACCAGGATTCCCCTAGTAACGGCGAGCGAACCGGGATCAGCCCAACTTGAAAATCTCCCTCTTGGAGAATTGTAGTCTACAGAAGTGCCCTCTGTGGCCGTGGGAGCTCAAGTTCGCTGGAAGGCGACGTCAAAGAGGGTGAGAACCCCGTCGGCTCCCATCTGGCNGCACCACGAGGTGCTTTCCACGAGTCGGGTTGTTTGGGAATGCAGCCCAAAATTGGAGGTAAATCCCTTCTAAGGCTAAATAACGGCGAGAGACCGA                     '
p69
sg6
S'NTAGTGTGAATTGCAGAATTCCGTGAACCATCGAATTTTTGAACGCATATTGCGCTCAAGGCTTCGGCCAAGAGCATGTCTGCCTCAGCGTCGGGTTCTCCATCATGGACTCTCCTCTCTTCTNTCGATTAGAGTGNNGAGTCGTGGAAACTCGCAGTCCGATCCTCCGTTCTTCATTGAGCCNTNGGTGAGGTCTGCCAAAGTGAAAGTAGTGCTCCGAGCATCGCCCATCCATGTGTCAGCAATGGCGTGTGTTTGGGTATGTAGCCGCACTCGAGTAGTTGTGATCTCACATGTGTTNACTCACGTGTGTTTTNCCTATTCGACTATCCTACAATTTGCTCGGCTTCTCTTTGTTGTCATCACCATGTGTGATAGCAACATCCGAGACGACCCCAGCCCTATANNAGTATACCTCCCAACATGGAACCCTTCACTTCTCGACCTGAGCTCAGGCAAGATTACCCGCTGAACTTAAGCATATCAATAAGCGGAGGAAAAGAAACCAACCAGGATTCCCCTAGTAACGGCGAGCGAACCGGGATCAGCCCAACTTGAAAATCTCCCTCTTGGAGAATTGTAGTCTACAGAAGTGCCCTCTGTGGCCGTGGGAGCTCAAGTTCGCTGGAAGGCGACGTCAAAGAGGGTGAGAACCCCGTCGGCTCCCATCTGGCNGCACCACGAGGTGCTTTCCACGAGTCGGGTTGTTTGGGAATGCAGCCCAAAATTGGAGGTAAATCCCTTCTAAGGCTAAATAACGGCGAGAGACCGA'
p70
sg8
S'frwdrev'
p71
sg10
I01
sg11
g12
sg13
I01
sg14
(lp72
(dp73
g4
g12
sg6
g12
sg8
S'file'
p74
sg10
I00
sg11
g12
sg13
I00
sg14
(lp75
sg19
I00
sg20
I2
sg21
S'petal_CAT20TR8_20220318T1-chlorITS2_2109F.ab1'
p76
sa(dp77
g4
g12
sg6
g12
sg8
S'file'
p78
sg10
I00
sg11
g12
sg13
I00
sg14
(lp79
sg19
I01
sg20
I1
sg21
S'petal_CAT20TR8_20220318T1-chlorITS2_2705R.ab1'
p80
sasg19
I00
sg20
I15
sg21
S'petal_CAT20TR8_20220318T1-.ab1'
p81
sa(dp82
g4
g12
sg6
g12
sg8
S'file'
p83
sg10
I00
sg11
g12
sg13
I00
sg14
(lp84
sg19
I00
sg20
I0
sg21
S'petal_CAT20TR8_20220318T2-chlorITS2_2109F.ab1'
p85
sasS'formatversion'
p86
S'0.9'
p87
sS'consseqsettings'
p88
(dp89
S'consensus_algorithm'
p90
S'Bayesian'
p91
sS'do_qualitytrim'
p92
I01
sS'qualitytrim_winsize'
p93
I10
sS'primermatch_threshold'
p94
F0.8
sS'trim_endgaps'
p95
I00
sS'min_confscore'
p96
I30
sS'forward_primer'
p97
g12
sS'reverse_primer'
p98
g12
sS'qualitytrim_basecnt'
p99
I8
sS'trim_consensus'
p100
I01
sS'trim_primers'
p101
I00
ssS'properties'
p102
(dp103
S'fwd_trace_searchstr'
p104
S'chlorITS2_2109F'
p105
sS'rev_trace_searchstr'
p106
S'chlorITS2_2705R'
p107
sS'trace_file_dir'
p108
S'.'
p109
ss.