(dp0
S'items'
p1
(lp2
(dp3
S'fullcons'
p4
S''
p5
sS'compactcons'
p6
g5
sS'itemtype'
p7
S'frwdrev'
p8
sS'useseq'
p9
I00
sS'notes'
p10
g5
sS'hasseq'
p11
I00
sS'children'
p12
(lp13
(dp14
g4
g5
sg6
g5
sg7
S'file'
p15
sg9
I00
sg10
g5
sg11
I00
sg12
(lp16
sS'isreverse'
p17
I00
sS'id'
p18
I1
sS'name'
p19
S'chlainBean_sil1901_5-25L1-chlorITS2F.ab1'
p20
sa(dp21
g4
g5
sg6
g5
sg7
S'file'
p22
sg9
I00
sg10
g5
sg11
I00
sg12
(lp23
sg17
I01
sg18
I2
sg19
S'chlainBean_sil1901_5-25L1-chlorITS2R.ab1'
p24
sasg17
I00
sg18
I0
sg19
S'chlainBean_sil1901_5-25L1-'
p25
sa(dp26
g4
g5
sg6
g5
sg7
S'frwdrev'
p27
sg9
I00
sg10
g5
sg11
I00
sg12
(lp28
(dp29
g4
g5
sg6
g5
sg7
S'file'
p30
sg9
I00
sg10
g5
sg11
I00
sg12
(lp31
sg17
I00
sg18
I4
sg19
S'chlainFooty_pan1918_5-25L2-chlorITS2F.ab1'
p32
sa(dp33
g4
g5
sg6
g5
sg7
S'file'
p34
sg9
I00
sg10
g5
sg11
I00
sg12
(lp35
sg17
I01
sg18
I5
sg19
S'chlainFooty_pan1918_5-25L2-chlorITS2R.ab1'
p36
sasg17
I00
sg18
I3
sg19
S'chlainFooty_pan1918_5-25L2-'
p37
sa(dp38
g4
g5
sg6
g5
sg7
S'file'
p39
sg9
I00
sg10
g5
sg11
I00
sg12
(lp40
sg17
I00
sg18
I6
sg19
S'cog_P6618_5-4L3-remiasii_rbcLF.ab1'
p41
sa(dp42
g4
g5
sg6
g5
sg7
S'file'
p43
sg9
I00
sg10
g5
sg11
I00
sg12
(lp44
sg17
I00
sg18
I7
sg19
S'cog_P6618_5-4L3-remiasii_rbcLR.ab1'
p45
sa(dp46
g4
g5
sg6
g5
sg7
S'file'
p47
sg9
I00
sg10
g5
sg11
I00
sg12
(lp48
sg17
I00
sg18
I8
sg19
S'culture_hol2118-chlor18SF.ab1'
p49
sa(dp50
g4
g5
sg6
g5
sg7
S'file'
p51
sg9
I00
sg10
g5
sg11
I00
sg12
(lp52
sg17
I00
sg18
I9
sg19
S'culture_hol2118-chlor18SmidF.ab1'
p53
sa(dp54
g4
g5
sg6
g5
sg7
S'file'
p55
sg9
I00
sg10
g5
sg11
I00
sg12
(lp56
sg17
I00
sg18
I10
sg19
S'culture_hol2118-chlor18SmidR.ab1'
p57
sa(dp58
g4
g5
sg6
g5
sg7
S'file'
p59
sg9
I00
sg10
g5
sg11
I00
sg12
(lp60
sg17
I00
sg18
I11
sg19
S'culture_hol2118-chlor18SR.ab1'
p61
sa(dp62
g4
g5
sg6
g5
sg7
S'frwdrev'
p63
sg9
I00
sg10
g5
sg11
I00
sg12
(lp64
(dp65
g4
g5
sg6
g5
sg7
S'file'
p66
sg9
I00
sg10
g5
sg11
I00
sg12
(lp67
sg17
I00
sg18
I13
sg19
S'gear_pan1918_5-25L3-chlorITS2F.ab1'
p68
sa(dp69
g4
g5
sg6
g5
sg7
S'file'
p70
sg9
I00
sg10
g5
sg11
I00
sg12
(lp71
sg17
I01
sg18
I14
sg19
S'gear_pan1918_5-25L3-chlorITS2R.ab1'
p72
sasg17
I00
sg18
I12
sg19
S'gear_pan1918_5-25L3-'
p73
sa(dp74
g4
g5
sg6
g5
sg7
S'file'
p75
sg9
I00
sg10
g5
sg11
I00
sg12
(lp76
sg17
I00
sg18
I15
sg19
S'nowall_bak1906_5-18L1-chlor18SF.ab1'
p77
sa(dp78
g4
g5
sg6
g5
sg7
S'frwdrev'
p79
sg9
I00
sg10
g5
sg11
I00
sg12
(lp80
(dp81
g4
g5
sg6
g5
sg7
S'file'
p82
sg9
I00
sg10
g5
sg11
I00
sg12
(lp83
sg17
I00
sg18
I18
sg19
S'spikyChlain_ech2201_6-21L1-chlorITS2F.ab1'
p84
sa(dp85
g4
g5
sg6
g5
sg7
S'file'
p86
sg9
I00
sg10
g5
sg11
I00
sg12
(lp87
sg17
I01
sg18
I19
sg19
S'spikyChlain_ech2201_6-21L1-chlorITS2R.ab1'
p88
sasg17
I00
sg18
I17
sg19
S'spikyChlain_ech2201_6-21L1-'
p89
sa(dp90
g4
S'                   NGCAGCGANANGNGATNCGTAATGCGAATTGCAGAATTCAGTGAATCATCAAATCTTTGAACGCAAATTGCGCTCTTGGGTAGCCCTAGGAGCACGCCTCTCTCAGTATCGGTTCAACAACCTCTCAGCAGCGTACGCAAGTGCGTGTTGGCTGGACAATGAGAGTCTGACGATCTCGCATCGTTAGTCTCTTTAAGTACATCGAGTGACTATGGAACGAACCAATCAACTTTGTCGCCGGTCTCACCGGTGACAATAGCCGGTCTCTGACTGTTGATGCATGCGTGACGTGAATACTGGCCCTCGTGGTCTTCTTTACGTGTAACATGTGCGTCGATACTAAAGTCTAGGATAAGCGAAACGACTGGCTTAGTGATATTTACGTAGTGTGGGCAACCACAATCGACTTGGAGTGCGTCGTACGCAAGTACGACTCCCTCTCTGTCTGAATTTTGATCTGAGATGAAGCGAGACAACCCCCTGAATTTAAGCATATTAATAAGGGGAGGAAAAGAAACTAACAAGGATTCCCCCAGTAACGGCGAGTGAAGCGGGAAGAGCTCAATTTGAAAATCGATTACCCAAGCGGGTCATCGAATTGTAGCCTAGAGACGTGCCATCAGCTGAAACCTGGGTATAAGTTCTTTGGAATGAGGCATCATAGAGGGTGAGAATCCCGTATATGACCCAAAGCTTTCAGCGTACGATGCATGTTCATCGAGTCGAGTTGTTTGGGATTGCAGCTCTAAATGGGTGGTAAGTTTCATCTAAAGCNAAATAN                    '
p91
sg6
S'NGCAGCGANANGNGATNCGTAATGCGAATTGCAGAATTCAGTGAATCATCAAATCTTTGAACGCAAATTGCGCTCTTGGGTAGCCCTAGGAGCACGCCTCTCTCAGTATCGGTTCAACAACCTCTCAGCAGCGTACGCAAGTGCGTGTTGGCTGGACAATGAGAGTCTGACGATCTCGCATCGTTAGTCTCTTTAAGTACATCGAGTGACTATGGAACGAACCAATCAACTTTGTCGCCGGTCTCACCGGTGACAATAGCCGGTCTCTGACTGTTGATGCATGCGTGACGTGAATACTGGCCCTCGTGGTCTTCTTTACGTGTAACATGTGCGTCGATACTAAAGTCTAGGATAAGCGAAACGACTGGCTTAGTGATATTTACGTAGTGTGGGCAACCACAATCGACTTGGAGTGCGTCGTACGCAAGTACGACTCCCTCTCTGTCTGAATTTTGATCTGAGATGAAGCGAGACAACCCCCTGAATTTAAGCATATTAATAAGGGGAGGAAAAGAAACTAACAAGGATTCCCCCAGTAACGGCGAGTGAAGCGGGAAGAGCTCAATTTGAAAATCGATTACCCAAGCGGGTCATCGAATTGTAGCCTAGAGACGTGCCATCAGCTGAAACCTGGGTATAAGTTCTTTGGAATGAGGCATCATAGAGGGTGAGAATCCCGTATATGACCCAAAGCTTTCAGCGTACGATGCATGTTCATCGAGTCGAGTTGTTTGGGATTGCAGCTCTAAATGGGTGGTAAGTTTCATCTAAAGCNAAATAN'
p92
sg7
S'frwdrev'
p93
sg9
I00
sg10
g5
sg11
I01
sg12
(lp94
(dp95
g4
g5
sg6
g5
sg7
S'file'
p96
sg9
I00
sg10
g5
sg11
I00
sg12
(lp97
sg17
I00
sg18
I21
sg19
S'square_blu1901_3-25L3-chlorITS2F.ab1'
p98
sa(dp99
g4
g5
sg6
g5
sg7
S'file'
p100
sg9
I00
sg10
g5
sg11
I00
sg12
(lp101
sg17
I01
sg18
I22
sg19
S'square_blu1901_3-25L3-chlorITS2R.ab1'
p102
sasg17
I00
sg18
I20
sg19
S'square_blu1901_3-25L3-'
p103
sasS'formatversion'
p104
S'0.9'
p105
sS'consseqsettings'
p106
(dp107
S'consensus_algorithm'
p108
S'Bayesian'
p109
sS'do_qualitytrim'
p110
I01
sS'qualitytrim_winsize'
p111
I10
sS'primermatch_threshold'
p112
F0.8
sS'trim_endgaps'
p113
I00
sS'min_confscore'
p114
I30
sS'forward_primer'
p115
g5
sS'reverse_primer'
p116
g5
sS'qualitytrim_basecnt'
p117
I8
sS'trim_consensus'
p118
I01
sS'trim_primers'
p119
I00
ssS'properties'
p120
(dp121
S'fwd_trace_searchstr'
p122
S'chlorITS2F.ab1'
p123
sS'rev_trace_searchstr'
p124
S'chlorITS2R.ab1'
p125
sS'trace_file_dir'
p126
S'.'
p127
ss.