(dp0
S'items'
p1
(lp2
(dp3
S'fullcons'
p4
S'                    NACGCAGCGAAATGCGATACGTAGTGTGAATTGCAGAATTCCGTGAACCATCGAATTTTTGAACGCATATTGCGCTCAAGGCTTCGGCCAAGAGCATGTCTGCCTCAGCGTCGGGTTCTCCATCATGGACTCTCCTCTCTTCTTTCGATTAGAGTGGCGAGTCGTGGAAACTCGCAGTCCGATCCTCCGTTCTTCATTGAGCGTTGGTGAGGTCTGCCAAAGTGAAAGTAGTGCTCCGAGCATCGCCCATCCATGTGTCAGCAATGGCGTGTGTTTGGGTATGTAGCCGCACTCGAGTAGTTGTGATCTCACATGTGTTCACTCACGTGTGTTTTTCCTATTCGACTATCCTACAATTTGCTCGGCTTCTCTTTGTTGTCATCACCATGTGTGATAGCAACATCCGAGACGACCCCAGCCCTATATTAGTATACCTCCCAACATGGAACCCTTCACTTCTCGACCTGAGCTCAGGCAAGATTACCCGCTGAACTTAAGCATATCAATAAGCGGAGGAAAAGAAACCAACCAGGATTCCCCTAGTAACGGCGAGCGAACCGGGATCAGCCCAACTTGAAAATCTCCCTCTTGGAGAATTGTAGTCTACAGAAGTGCCCTCTGTGGCCGTGGGAGCTCAAGTTCGCTGGAAGGCGACGTCAAAGAGGGTGAGAACCCCGTCGGCTCCCATCTGGCTGCACCACGAGGTGCTTTCCACGAGTCGGGTTGTTTGGGAATGCAGCCCAAAATTGGAGGTAAATCCCTTCTAAGGCTAAATAACGGCGAGAGACCGATA                  '
p5
sS'compactcons'
p6
S'NACGCAGCGAAATGCGATACGTAGTGTGAATTGCAGAATTCCGTGAACCATCGAATTTTTGAACGCATATTGCGCTCAAGGCTTCGGCCAAGAGCATGTCTGCCTCAGCGTCGGGTTCTCCATCATGGACTCTCCTCTCTTCTTTCGATTAGAGTGGCGAGTCGTGGAAACTCGCAGTCCGATCCTCCGTTCTTCATTGAGCGTTGGTGAGGTCTGCCAAAGTGAAAGTAGTGCTCCGAGCATCGCCCATCCATGTGTCAGCAATGGCGTGTGTTTGGGTATGTAGCCGCACTCGAGTAGTTGTGATCTCACATGTGTTCACTCACGTGTGTTTTTCCTATTCGACTATCCTACAATTTGCTCGGCTTCTCTTTGTTGTCATCACCATGTGTGATAGCAACATCCGAGACGACCCCAGCCCTATATTAGTATACCTCCCAACATGGAACCCTTCACTTCTCGACCTGAGCTCAGGCAAGATTACCCGCTGAACTTAAGCATATCAATAAGCGGAGGAAAAGAAACCAACCAGGATTCCCCTAGTAACGGCGAGCGAACCGGGATCAGCCCAACTTGAAAATCTCCCTCTTGGAGAATTGTAGTCTACAGAAGTGCCCTCTGTGGCCGTGGGAGCTCAAGTTCGCTGGAAGGCGACGTCAAAGAGGGTGAGAACCCCGTCGGCTCCCATCTGGCTGCACCACGAGGTGCTTTCCACGAGTCGGGTTGTTTGGGAATGCAGCCCAAAATTGGAGGTAAATCCCTTCTAAGGCTAAATAACGGCGAGAGACCGATA'
p7
sS'itemtype'
p8
S'frwdrev'
p9
sS'useseq'
p10
I01
sS'notes'
p11
S''
p12
sS'hasseq'
p13
I01
sS'children'
p14
(lp15
(dp16
g4
g12
sg6
g12
sg8
S'file'
p17
sg10
I00
sg11
g12
sg13
I00
sg14
(lp18
sS'isreverse'
p19
I00
sS'id'
p20
I10
sS'name'
p21
S'petal_BUG1901_20220308T1-chlorITS2_2109F.ab1'
p22
sa(dp23
g4
g12
sg6
g12
sg8
S'file'
p24
sg10
I00
sg11
g12
sg13
I00
sg14
(lp25
sg19
I01
sg20
I9
sg21
S'petal_BUG1901_20220308T1-chlorITS2_2705R.ab1'
p26
sasg19
I00
sg20
I11
sg21
S'petal_BUG1901_20220308T1_ITS2'
p27
sa(dp28
g4
g12
sg6
g12
sg8
S'file'
p29
sg10
I00
sg11
g12
sg13
I00
sg14
(lp30
sg19
I00
sg20
I8
sg21
S'petal_BUG1901_20220313TX-chlorITS2_2109F.ab1'
p31
sa(dp32
g4
S'                  AGAACGCAGCGAAATGCGATACGTAGTGTGAATTGCAGAATTCCGTGAAC CATCGAATT TTTGAACG CATATTGCGCTCAAGGCTTCGGCCAAGAGCATGTCTGCCTCAGCGTCGGGTTCTCCATCATCGACTCTTCTCTCTTCTCTCGAGTCGAGTCTAGAGTCATGGAAACTCGCAGTCCGATCCTATGTGTTCTTCATCGAGCACATGGGTGAGGTCTGCCAAAGTGAAAGTAGCGCTCCGAGCATTGCCCATCCATGCGTCAGAAATGGCGTGTGGTTGGGTATGTAGCCGCACTCGAGTAGTTGTGAGCTCACATGTGTTTACTCACGTGTGTTTTCCCTATTCGACTATCCTACGACTTGCTCGGCTTCTCTTTGTCGTCATCATTCTTTGATAGCAACATCCGAGACGAAACCAGCCCTATACAAGTATACCTCCCAACATGGAACCCTTCACTTCTCGACCTGAGCTCAGGCAAGATTACCCGCTGAACTTAAGCATATCAATAAGCGGAGGAAAAGAAACCAACCAGGATTCCCCTAGTAACGGCGAGCGAACCGGGATCAGCCCAACTTGAAAATCTCCCTCTTGGAGAATTGTAGTCTACAGAAGTGCCCTCTGTGGCCGTGGGAGCTCAAGTTCGCTGGAAGGCGACGTCAAAGAGGGTGAGAACCCCGTCGGCTCCCATCTGGCCGCACCACGAGGTGCTTTCCACGAGTCGGGTTGTTTGGGAATGCAGCCCAAAATTGGA GGTAAATCCCTTCTAAGGCTAAATAACGGCGAGAGACC                          '
p33
sg6
S'AGAACGCAGCGAAATGCGATACGTAGTGTGAATTGCAGAATTCCGTGAACCATCGAATTTTTGAACGCATATTGCGCTCAAGGCTTCGGCCAAGAGCATGTCTGCCTCAGCGTCGGGTTCTCCATCATCGACTCTTCTCTCTTCTCTCGAGTCGAGTCTAGAGTCATGGAAACTCGCAGTCCGATCCTATGTGTTCTTCATCGAGCACATGGGTGAGGTCTGCCAAAGTGAAAGTAGCGCTCCGAGCATTGCCCATCCATGCGTCAGAAATGGCGTGTGGTTGGGTATGTAGCCGCACTCGAGTAGTTGTGAGCTCACATGTGTTTACTCACGTGTGTTTTCCCTATTCGACTATCCTACGACTTGCTCGGCTTCTCTTTGTCGTCATCATTCTTTGATAGCAACATCCGAGACGAAACCAGCCCTATACAAGTATACCTCCCAACATGGAACCCTTCACTTCTCGACCTGAGCTCAGGCAAGATTACCCGCTGAACTTAAGCATATCAATAAGCGGAGGAAAAGAAACCAACCAGGATTCCCCTAGTAACGGCGAGCGAACCGGGATCAGCCCAACTTGAAAATCTCCCTCTTGGAGAATTGTAGTCTACAGAAGTGCCCTCTGTGGCCGTGGGAGCTCAAGTTCGCTGGAAGGCGACGTCAAAGAGGGTGAGAACCCCGTCGGCTCCCATCTGGCCGCACCACGAGGTGCTTTCCACGAGTCGGGTTGTTTGGGAATGCAGCCCAAAATTGGAGGTAAATCCCTTCTAAGGCTAAATAACGGCGAGAGACC'
p34
sg8
S'frwdrev'
p35
sg10
I01
sg11
g12
sg13
I01
sg14
(lp36
(dp37
g4
g12
sg6
g12
sg8
S'file'
p38
sg10
I00
sg11
g12
sg13
I00
sg14
(lp39
sg19
I00
sg20
I7
sg21
S'star_BLU1901_20220312T1-chlorITS2_2109F.ab1'
p40
sa(dp41
g4
g12
sg6
g12
sg8
S'file'
p42
sg10
I00
sg11
g12
sg13
I00
sg14
(lp43
sg19
I01
sg20
I6
sg21
S'star_BLU1901_20220312T1-chlorITS2_2705R.ab1'
p44
sasg19
I00
sg20
I12
sg21
S'star_BLU1901_20220312T1_ITS2'
p45
sa(dp46
g4
S'                                  GAAATGCGATACGTAGTGTGAATTGCAGAATTCCGTGAACNCANTCGAA TT TTTGAACGCATATTGCGCTCAAGGCTTCGGCCAAGAGCATGTCTGCCTCAGCGTCGGGTTCTCCATCATCGACTCTTCTCTCTTCTCTCGAGTCGAGTCTAGAGTCATGGAAACTCGCAGTCCGATCCTATGTGTTCTTCATCGAGCACATGGGTGAGGTCTGCCAAAGTGAAAGTAGCGCTCCGAGCATTGCCCATCCATGCGTCAGAAATGGCGTGTGGTTGGGTATGTAGCCGCACTCGAGTAGTTGTGAGCTCACATGTGTTTACTCACGTGTGTTTTCCCTATTCGACTATCCTACGACTTGCTCGGCTTCTCTTTGTCGTCATCATTCTTTGATAGCAACATCCGAGACGAAACCAGCCCTATACAAGTATACCTCCCAACATGGAACCCTTCACTTCTCGACCTGAGCTCAGGCAAGATTACCCGCTGAACTTAAGCATATCAATAAGCGGAGGAAAAGAAACCAACCAGGATTCCCCTAGTAACGGCGAGCGAACCGGGATCAGCCCAACTTGAAAATCTCCCTCTTGGAGAATTGTAGTCTACAGAAGTGCCCTCTGTGGCCGTGGGAGCTCAAGTTCGCTGGAAGGCGACGTCAAAGAGGGTGAGAACCCCGTCGGCTCCCATCTGGCCGCACCACGAGGTGCTTTCCACGAGTCGGGTTGTTTGGGAATGCAGCCCAAAATTGGAGGTAAATCCCTTCTAAGGCTAAATAACGGCGAGAGAN                       '
p47
sg6
S'GAAATGCGATACGTAGTGTGAATTGCAGAATTCCGTGAACNCANTCGAATTTTTGAACGCATATTGCGCTCAAGGCTTCGGCCAAGAGCATGTCTGCCTCAGCGTCGGGTTCTCCATCATCGACTCTTCTCTCTTCTCTCGAGTCGAGTCTAGAGTCATGGAAACTCGCAGTCCGATCCTATGTGTTCTTCATCGAGCACATGGGTGAGGTCTGCCAAAGTGAAAGTAGCGCTCCGAGCATTGCCCATCCATGCGTCAGAAATGGCGTGTGGTTGGGTATGTAGCCGCACTCGAGTAGTTGTGAGCTCACATGTGTTTACTCACGTGTGTTTTCCCTATTCGACTATCCTACGACTTGCTCGGCTTCTCTTTGTCGTCATCATTCTTTGATAGCAACATCCGAGACGAAACCAGCCCTATACAAGTATACCTCCCAACATGGAACCCTTCACTTCTCGACCTGAGCTCAGGCAAGATTACCCGCTGAACTTAAGCATATCAATAAGCGGAGGAAAAGAAACCAACCAGGATTCCCCTAGTAACGGCGAGCGAACCGGGATCAGCCCAACTTGAAAATCTCCCTCTTGGAGAATTGTAGTCTACAGAAGTGCCCTCTGTGGCCGTGGGAGCTCAAGTTCGCTGGAAGGCGACGTCAAAGAGGGTGAGAACCCCGTCGGCTCCCATCTGGCCGCACCACGAGGTGCTTTCCACGAGTCGGGTTGTTTGGGAATGCAGCCCAAAATTGGAGGTAAATCCCTTCTAAGGCTAAATAACGGCGAGAGAN'
p48
sg8
S'frwdrev'
p49
sg10
I01
sg11
g12
sg13
I01
sg14
(lp50
(dp51
g4
g12
sg6
g12
sg8
S'file'
p52
sg10
I00
sg11
g12
sg13
I00
sg14
(lp53
sg19
I00
sg20
I5
sg21
S'star_BLU1901_20220312T2-chlorITS2_2109F.ab1'
p54
sa(dp55
g4
g12
sg6
g12
sg8
S'file'
p56
sg10
I00
sg11
g12
sg13
I00
sg14
(lp57
sg19
I01
sg20
I4
sg21
S'star_BLU1901_20220312T2-chlorITS2_2705R.ab1'
p58
sasg19
I00
sg20
I13
sg21
S'star_BLU1901_20220312T2_ITS2'
p59
sa(dp60
g4
g12
sg6
g12
sg8
S'frwdrev'
p61
sg10
I00
sg11
g12
sg13
I00
sg14
(lp62
(dp63
g4
g12
sg6
g12
sg8
S'file'
p64
sg10
I00
sg11
g12
sg13
I00
sg14
(lp65
sg19
I00
sg20
I3
sg21
S'star_BUG1903_20220308T2-chlorITS2_2109F.ab1'
p66
sa(dp67
g4
g12
sg6
g12
sg8
S'file'
p68
sg10
I00
sg11
g12
sg13
I00
sg14
(lp69
sg19
I01
sg20
I2
sg21
S'star_BUG1903_20220308T2-chlorITS2_2705R.ab1'
p70
sasg19
I00
sg20
I14
sg21
S'star_BUG1903_20220308T2_ITS2'
p71
sa(dp72
g4
S'                 NNACGCAGCGAAATGCGATACGTAGTGTGAATTGCAGAATTCCGTGAAC CA TCGAA TTNTTTGAACGCATATTGCGCTCAAGGCTTCGGCCAAGAGCATGTCTGCCTCAGCGTCGGGTTCTCCATCATCGACTCTTCTCTCTTCTCTCGAGTCGAGTCTAGAGTCATGGAAACTCGCAGTCCGATCCTATGTGTTCTTCATCGAGCACATGGGTGAGGTCTGCCAAAGTGAAAGTAGCGCTCCGAGCATTGCCCATCCATGCGTCAGAAATGGCGTGTGGTTGGGTATGTAGCCGCACTCGAGTAGTTGTGAGCTCACATGTGTTTACTCACGTGTGTTTTCCCTATTCGACTATCCTACGACTTGCTCGGCTTCTCTTTGTCGTCATCATTCTTTGATAGCAACATCCGAGACGAAACCAGCCCTATACAAGTATACCTCCCAACATGGAACCCTTCACTTCTCGACCTGAGCTCAGGCAAGATTACCCGCTGAACTTAAGCATATCAATAAGCGGAGGAAAAGAAACCAACCAGGATTCCCCTAGTAACGGCGAGCGAACCGGGATCAGCCCAACTTGAAAATCTCCCTCTTGGAGAATTGTAGTCTACAGAAGTGCCCTCTGTGGCCGTGGGAGCTCAAGTTCGCTGGAAGGCGACGTCAAAGAGGGTGAGAACCCCGTCGGCTCCCATCTGGCCGCACCACGAGGTGCTTTCCACGAGTCGGGTTGTTTGGGAATGCAGCCCAAAATTGGAGGTAAATCCCTTCTAAGGNTAAATAACGGCGAGAGANCGNT                     '
p73
sg6
S'NNACGCAGCGAAATGCGATACGTAGTGTGAATTGCAGAATTCCGTGAACCATCGAATTNTTTGAACGCATATTGCGCTCAAGGCTTCGGCCAAGAGCATGTCTGCCTCAGCGTCGGGTTCTCCATCATCGACTCTTCTCTCTTCTCTCGAGTCGAGTCTAGAGTCATGGAAACTCGCAGTCCGATCCTATGTGTTCTTCATCGAGCACATGGGTGAGGTCTGCCAAAGTGAAAGTAGCGCTCCGAGCATTGCCCATCCATGCGTCAGAAATGGCGTGTGGTTGGGTATGTAGCCGCACTCGAGTAGTTGTGAGCTCACATGTGTTTACTCACGTGTGTTTTCCCTATTCGACTATCCTACGACTTGCTCGGCTTCTCTTTGTCGTCATCATTCTTTGATAGCAACATCCGAGACGAAACCAGCCCTATACAAGTATACCTCCCAACATGGAACCCTTCACTTCTCGACCTGAGCTCAGGCAAGATTACCCGCTGAACTTAAGCATATCAATAAGCGGAGGAAAAGAAACCAACCAGGATTCCCCTAGTAACGGCGAGCGAACCGGGATCAGCCCAACTTGAAAATCTCCCTCTTGGAGAATTGTAGTCTACAGAAGTGCCCTCTGTGGCCGTGGGAGCTCAAGTTCGCTGGAAGGCGACGTCAAAGAGGGTGAGAACCCCGTCGGCTCCCATCTGGCCGCACCACGAGGTGCTTTCCACGAGTCGGGTTGTTTGGGAATGCAGCCCAAAATTGGAGGTAAATCCCTTCTAAGGNTAAATAACGGCGAGAGANCGNT'
p74
sg8
S'frwdrev'
p75
sg10
I01
sg11
g12
sg13
I01
sg14
(lp76
(dp77
g4
g12
sg6
g12
sg8
S'file'
p78
sg10
I00
sg11
g12
sg13
I00
sg14
(lp79
sg19
I00
sg20
I1
sg21
S'star_BUG1903_20220313TX-chlorITS2_2109F.ab1'
p80
sa(dp81
g4
g12
sg6
g12
sg8
S'file'
p82
sg10
I00
sg11
g12
sg13
I00
sg14
(lp83
sg19
I01
sg20
I0
sg21
S'star_BUG1903_20220313TX-chlorITS2_2705R.ab1'
p84
sasg19
I00
sg20
I15
sg21
S'star_BUG1903_20220313TX_ITS2'
p85
sasS'formatversion'
p86
S'0.9'
p87
sS'consseqsettings'
p88
(dp89
S'consensus_algorithm'
p90
S'Bayesian'
p91
sS'do_qualitytrim'
p92
I01
sS'qualitytrim_winsize'
p93
I10
sS'primermatch_threshold'
p94
F0.8
sS'trim_endgaps'
p95
I00
sS'min_confscore'
p96
I30
sS'forward_primer'
p97
g12
sS'reverse_primer'
p98
g12
sS'qualitytrim_basecnt'
p99
I8
sS'trim_consensus'
p100
I01
sS'trim_primers'
p101
I00
ssS'properties'
p102
(dp103
S'fwd_trace_searchstr'
p104
S'chlorITS2_2109F'
p105
sS'rev_trace_searchstr'
p106
S'chlorITS2_2705R'
p107
sS'trace_file_dir'
p108
S'.'
p109
ss.