(dp0
S'items'
p1
(lp2
(dp3
S'fullcons'
p4
S'                   NNAAGGTTTCCGTAGGTGAACCTGCGGAAGGATCATTGAATCTATCAATACCCACACCGTGAACCAAAATGTCTGACCTCTAACCTCTGCTTGCAGAGGTGGGGCGTTTGGCTCAGCCTTTATTGGCTGTTCCTAACGGGTCTAGGCTAGGCTTCGGCCAAGTTCGGACCGGTCTCCCAAACCTATCAACACCTAATCAATCATATAAAGTAAACTTTCAGCCGGCTTTGCCGCTGAATCATAACCAAGACAACTCTCAACAACGGATATCTTGGCTCTTGCAACGATGAAGAACGCAGCGAAATGCGATACGTAGTGTGAATTGCAGAAAACCGTGAACCATCGAATCTTTGAACGCATATTGCGCTGGAGGCTTCGGCCAACAGCATGTCTGCCTCAGCGTCGGGTTAATTCTCGCCCATCATCTTCCCTGTGTTGATGATTTGGGCGGATCTGGCTTTCTCAGCTCTCACGAGCTGGGTTTGCTGAAGTACAGAGGTTAATGCATGGACCCGTTAAGGGCTGCAGCTGGTTAGGCAGTGATGCTATCGATTAGCTGTTGGTCTGGGAACTGCGTTTGACCCTCCACAAGGAAACTTAATTATTTCCTCGACCTGAGCTCAGGCAAGATTACCCGCTGAACTTAAGCATATCAATAANCGGAAGGAN'
p5
sS'compactcons'
p6
S'NNAAGGTTTCCGTAGGTGAACCTGCGGAAGGATCATTGAATCTATCAATACCCACACCGTGAACCAAAATGTCTGACCTCTAACCTCTGCTTGCAGAGGTGGGGCGTTTGGCTCAGCCTTTATTGGCTGTTCCTAACGGGTCTAGGCTAGGCTTCGGCCAAGTTCGGACCGGTCTCCCAAACCTATCAACACCTAATCAATCATATAAAGTAAACTTTCAGCCGGCTTTGCCGCTGAATCATAACCAAGACAACTCTCAACAACGGATATCTTGGCTCTTGCAACGATGAAGAACGCAGCGAAATGCGATACGTAGTGTGAATTGCAGAAAACCGTGAACCATCGAATCTTTGAACGCATATTGCGCTGGAGGCTTCGGCCAACAGCATGTCTGCCTCAGCGTCGGGTTAATTCTCGCCCATCATCTTCCCTGTGTTGATGATTTGGGCGGATCTGGCTTTCTCAGCTCTCACGAGCTGGGTTTGCTGAAGTACAGAGGTTAATGCATGGACCCGTTAAGGGCTGCAGCTGGTTAGGCAGTGATGCTATCGATTAGCTGTTGGTCTGGGAACTGCGTTTGACCCTCCACAAGGAAACTTAATTATTTCCTCGACCTGAGCTCAGGCAAGATTACCCGCTGAACTTAAGCATATCAATAANCGGAAGGAN'
p7
sS'itemtype'
p8
S'frwdrev'
p9
sS'useseq'
p10
I01
sS'notes'
p11
S''
p12
sS'hasseq'
p13
I01
sS'children'
p14
(lp15
(dp16
g4
g12
sg6
g12
sg8
S'file'
p17
sg10
I00
sg11
g12
sg13
I00
sg14
(lp18
sS'isreverse'
p19
I00
sS'id'
p20
I28
sS'name'
p21
S'bigSphere_BUG1902_7-21L1-chloroITS2F.ab1'
p22
sa(dp23
g4
g12
sg6
g12
sg8
S'file'
p24
sg10
I00
sg11
g12
sg13
I00
sg14
(lp25
sg19
I01
sg20
I27
sg21
S'bigSphere_BUG1902_7-21L1-ITS4seqR.ab1'
p26
sasg19
I00
sg20
I38
sg21
S'bigSphere_BUG1902_7-21L1-'
p27
sa(dp28
g4
S'                    NNAAGGTTTCCGTAGGTGAACCTGCGGAAGGATCATTGAATCTATCAATACCCACACCGTGAACCAAAATGTCTGACCTCTAACCTCTGCTTGCAGAGGTGGGGCGTTTGGCTCAGCNTTTATTGGCTGTTCCTAACGGGTCTAGGCTAGGCTTCGGCCAAGTTCGGACCGGTCTCCCAAACCTATCAACACCTAATCAATCATATAAAGTAAACTTTCAGCCGGCTTTGCCGCTGAATCATAACCAAGACAACTCTCAACAACGGATATCTTGGCTCTTGCAACGATGAAGAACGCAGCGAAATGCGATACGTAGTGTGAATTGCAGAAAACCGTGAACCATCGAATCTTTGAACGCATATTGCGCTGGAGGCTTCGGCCAACAGCATGTCTGCCTCAGCGTCGGGTTAATTCTCGCCCATCATCTTCCCTGTGTTGATGATTTGGGCGGATCTGGCTTTCTCAGCTCTCACGAGCTGGGTTTGCTGAAGTACAGAGGTTAATGCATGGACCCGTTAAGGGCTGCAGCTGGTTAGGCAGTGATGCTATCGATTAGCTGTTGGTCTGGGAACTGCGTTTGACCCTCCACAAGGAAACTTAATTATTTCCTCGACCTGAGCTCAGGCAAGATTANCCGCTGAACTTAAGCATATCAATANN          '
p29
sg6
S'NNAAGGTTTCCGTAGGTGAACCTGCGGAAGGATCATTGAATCTATCAATACCCACACCGTGAACCAAAATGTCTGACCTCTAACCTCTGCTTGCAGAGGTGGGGCGTTTGGCTCAGCNTTTATTGGCTGTTCCTAACGGGTCTAGGCTAGGCTTCGGCCAAGTTCGGACCGGTCTCCCAAACCTATCAACACCTAATCAATCATATAAAGTAAACTTTCAGCCGGCTTTGCCGCTGAATCATAACCAAGACAACTCTCAACAACGGATATCTTGGCTCTTGCAACGATGAAGAACGCAGCGAAATGCGATACGTAGTGTGAATTGCAGAAAACCGTGAACCATCGAATCTTTGAACGCATATTGCGCTGGAGGCTTCGGCCAACAGCATGTCTGCCTCAGCGTCGGGTTAATTCTCGCCCATCATCTTCCCTGTGTTGATGATTTGGGCGGATCTGGCTTTCTCAGCTCTCACGAGCTGGGTTTGCTGAAGTACAGAGGTTAATGCATGGACCCGTTAAGGGCTGCAGCTGGTTAGGCAGTGATGCTATCGATTAGCTGTTGGTCTGGGAACTGCGTTTGACCCTCCACAAGGAAACTTAATTATTTCCTCGACCTGAGCTCAGGCAAGATTANCCGCTGAACTTAAGCATATCAATANN'
p30
sg8
S'frwdrev'
p31
sg10
I01
sg11
g12
sg13
I01
sg14
(lp32
(dp33
g4
g12
sg6
g12
sg8
S'file'
p34
sg10
I00
sg11
g12
sg13
I00
sg14
(lp35
sg19
I00
sg20
I26
sg21
S'bigSphere_CAT20TR8_7-22L3-chloroITS2F.ab1'
p36
sa(dp37
g4
g12
sg6
g12
sg8
S'file'
p38
sg10
I00
sg11
g12
sg13
I00
sg14
(lp39
sg19
I01
sg20
I25
sg21
S'bigSphere_CAT20TR8_7-22L3-ITS4seqR.ab1'
p40
sasg19
I00
sg20
I39
sg21
S'bigSphere_CAT20TR8_7-22L3-'
p41
sa(dp42
g4
S'                NNCAAGGTTTCCGTAGGTGAACCTGCGGAAGGATCATTGAATCTATCAATACCCACACCGCGAACCAAGATGTCTGACCTCTAACCTTTGCTTGCNGAGGTGGGGCGTTTGGCTTAGCCTTCATTGGCTGTTCCGAACGGGTCTAGGCGAGGCTTCGGCCGAGTTCGGACCGGTCTCCCAAACCTATCAACACCTAATCAATAATATAAAGTAANNTTTCAGCCGGCTTCGCCGCTGAATCATAACCAAGACAACTCTCAACAACGGATATCTTGGCTCTTGCAACGATGAAGAACGCAGCGAAATGCGATACGTAGTGTGAATTGCAGAAAACCGTGAACCATCGAATCTTTGAACGCATATTGCGCTGGAGGCTTCGGCCAACAGCATGTCTGCCTCAGCGTCGGGTTAATTTTCGCCCATCATCTTCCTTGTGTTGATGATTTGGGCGGATCTGGCTTTCTCAGCTCTCACGAGCTGGGTTTGTTGAAGTACAGAGGTTAATGCATGGACCCGTTAAGGGCTGCAGCTGGTTAGGCAGTGATGCTATCGATTAGTTGTTGGTCTGGGAACTGCGTTTGACCCTCCACAAGGAAACTTAATTATTTCCTCGACCTGAGCTCAGGCAAGATTACCCGCTGAACTTAAGCATATCAATANN           '
p43
sg6
S'NNCAAGGTTTCCGTAGGTGAACCTGCGGAAGGATCATTGAATCTATCAATACCCACACCGCGAACCAAGATGTCTGACCTCTAACCTTTGCTTGCNGAGGTGGGGCGTTTGGCTTAGCCTTCATTGGCTGTTCCGAACGGGTCTAGGCGAGGCTTCGGCCGAGTTCGGACCGGTCTCCCAAACCTATCAACACCTAATCAATAATATAAAGTAANNTTTCAGCCGGCTTCGCCGCTGAATCATAACCAAGACAACTCTCAACAACGGATATCTTGGCTCTTGCAACGATGAAGAACGCAGCGAAATGCGATACGTAGTGTGAATTGCAGAAAACCGTGAACCATCGAATCTTTGAACGCATATTGCGCTGGAGGCTTCGGCCAACAGCATGTCTGCCTCAGCGTCGGGTTAATTTTCGCCCATCATCTTCCTTGTGTTGATGATTTGGGCGGATCTGGCTTTCTCAGCTCTCACGAGCTGGGTTTGTTGAAGTACAGAGGTTAATGCATGGACCCGTTAAGGGCTGCAGCTGGTTAGGCAGTGATGCTATCGATTAGTTGTTGGTCTGGGAACTGCGTTTGACCCTCCACAAGGAAACTTAATTATTTCCTCGACCTGAGCTCAGGCAAGATTACCCGCTGAACTTAAGCATATCAATANN'
p44
sg8
S'frwdrev'
p45
sg10
I01
sg11
g12
sg13
I01
sg14
(lp46
(dp47
g4
g12
sg6
g12
sg8
S'file'
p48
sg10
I00
sg11
g12
sg13
I00
sg14
(lp49
sg19
I00
sg20
I24
sg21
S'bigSphere_WED2206_7-26L2-chloroITS2F.ab1'
p50
sa(dp51
g4
g12
sg6
g12
sg8
S'file'
p52
sg10
I00
sg11
g12
sg13
I00
sg14
(lp53
sg19
I01
sg20
I23
sg21
S'bigSphere_WED2206_7-26L2-ITS4seqR.ab1'
p54
sasg19
I00
sg20
I40
sg21
S'bigSphere_WED2206_7-26L2-'
p55
sa(dp56
g4
S'                               ACCATCGAATTTTTGAACGCATATTGCGCTCAAGGCCTCGGCCAAGAGCATGTCTGGCTCAGCGTCGGGTTCTCCTCTACATACCCGCTTGCCATGCAGGATGTTCCACCTTGCATGCCCCCACTTTGCCTTCGCGGAAGCAAGCGGATGTATGAAGATCCCGTGGCAATCCATCTTGTGCAAGATGTGACAGAGGGATTGCCCAAGTCTCAACCGCGCTTCAATCGTACAACTCCTTCTTCTCGTCCCCATGAGTTTTGGTGTTCTTTGGATGCGCATGGGTACAGGCTCTAATGCTCAACTCTCATCTATCCCCGTTTTCGCCTTGAAAACGCAGTTGTCACTTTGAAATACGCGTATGTTGTTGTTGGTCGCCCAATCACTTGGCACCTATACTTCTCGACCTGAGCTCAGGCAAGATTACCCGCTGAACTTAAGCATATCAATAAGCGGAGGAAAAGAAACCAACCAGGATTCCCCTAGTAACGGCGAGCGAACCGGGAAAAGCCCAACTTGAAAATCTCCCATCTGGAGAATTGTAGTCTACAGAAGTGCCGTCTTTGGCTAGGGGAGCTCAAGTCCGCTGGAAGGCGGCGTCATAGAGGGTGAGAACCCCGTCAGCTCCCACTTTGCTAATCTCACGAGGTGCTTTCCACGAGTCGGGTTGTTTGGGAATGCAGCCCAAACNN                          '
p57
sg6
S'ACCATCGAATTTTTGAACGCATATTGCGCTCAAGGCCTCGGCCAAGAGCATGTCTGGCTCAGCGTCGGGTTCTCCTCTACATACCCGCTTGCCATGCAGGATGTTCCACCTTGCATGCCCCCACTTTGCCTTCGCGGAAGCAAGCGGATGTATGAAGATCCCGTGGCAATCCATCTTGTGCAAGATGTGACAGAGGGATTGCCCAAGTCTCAACCGCGCTTCAATCGTACAACTCCTTCTTCTCGTCCCCATGAGTTTTGGTGTTCTTTGGATGCGCATGGGTACAGGCTCTAATGCTCAACTCTCATCTATCCCCGTTTTCGCCTTGAAAACGCAGTTGTCACTTTGAAATACGCGTATGTTGTTGTTGGTCGCCCAATCACTTGGCACCTATACTTCTCGACCTGAGCTCAGGCAAGATTACCCGCTGAACTTAAGCATATCAATAAGCGGAGGAAAAGAAACCAACCAGGATTCCCCTAGTAACGGCGAGCGAACCGGGAAAAGCCCAACTTGAAAATCTCCCATCTGGAGAATTGTAGTCTACAGAAGTGCCGTCTTTGGCTAGGGGAGCTCAAGTCCGCTGGAAGGCGGCGTCATAGAGGGTGAGAACCCCGTCAGCTCCCACTTTGCTAATCTCACGAGGTGCTTTCCACGAGTCGGGTTGTTTGGGAATGCAGCCCAAACNN'
p58
sg8
S'frwdrev'
p59
sg10
I01
sg11
g12
sg13
I01
sg14
(lp60
(dp61
g4
g12
sg6
g12
sg8
S'file'
p62
sg10
I00
sg11
g12
sg13
I00
sg14
(lp63
sg19
I00
sg20
I21
sg21
S'chlain_P6618_7-13L3-chloroITS2F.ab1'
p64
sa(dp65
g4
g12
sg6
g12
sg8
S'file'
p66
sg10
I00
sg11
g12
sg13
I00
sg14
(lp67
sg19
I01
sg20
I20
sg21
S'chlain_P6618_7-13L3-chloroITS2R.ab1'
p68
sasg19
I00
sg20
I29
sg21
S'chlain_P6618_7-13L3-chloroITS2'
p69
sa(dp70
g4
S'                                  CCATCGAATTTTTGAACGCATATTGCGCTCAAGGCCTCGGCCAAGAGCATGTCTGGCTCAGCGTCGGGTTCTCCTCTACATACTCGCTTGCCAAGTTCGAGTCTAAACCACTCCTCCTTGCGGAAACAAGCGGATGTTATGAANATCCCGTGGCAATCCATNTNGTGCAAGATGTGACAGAGGGATTGCCCAAGTCTCAACCGCGCTTCATTCGAACAACTCCCGTGCTTTTCTCATGATGAGCTCGGTAGTTTTGGATGNGCATGGGTATACGCATANCTGCTCTACTCATCCATCTNGGGCCCGTGCCAGGCAGCTTAGGCGTGCTAACAGGCAAACAAGTTTTCGTTTGAAAGTACGCGTGTGTTGTTGTTGGTTGTCCAATCACTTGGCACCTATACTTCTCGACCTGAGCTCAGGCAAGATTACCCGCTGAACTTAAGCATATCAATAAGCGGAGGAAAAGAAACCAACCAGGATTCCCCTAGTAACGGCGAGCGAACCGGGAAAAGCCCAACTTGAAAATCTCCCATCTGGAGAATTGTAGTCTACAGAAGTGCCGTCTTTGGCTAGGGGAGCTCAAGTCCGCTGGAAGGCGGCGTCATAGAGGGTGAGAACCCCGTCAGCTCCCACTTTGCTAATCTCACGAGGTGCTTTCCACGAGTCGGGTTGTTTGGGAATGCAGCCCAAACNN                            '
p71
sg6
S'CCATCGAATTTTTGAACGCATATTGCGCTCAAGGCCTCGGCCAAGAGCATGTCTGGCTCAGCGTCGGGTTCTCCTCTACATACTCGCTTGCCAAGTTCGAGTCTAAACCACTCCTCCTTGCGGAAACAAGCGGATGTTATGAANATCCCGTGGCAATCCATNTNGTGCAAGATGTGACAGAGGGATTGCCCAAGTCTCAACCGCGCTTCATTCGAACAACTCCCGTGCTTTTCTCATGATGAGCTCGGTAGTTTTGGATGNGCATGGGTATACGCATANCTGCTCTACTCATCCATCTNGGGCCCGTGCCAGGCAGCTTAGGCGTGCTAACAGGCAAACAAGTTTTCGTTTGAAAGTACGCGTGTGTTGTTGTTGGTTGTCCAATCACTTGGCACCTATACTTCTCGACCTGAGCTCAGGCAAGATTACCCGCTGAACTTAAGCATATCAATAAGCGGAGGAAAAGAAACCAACCAGGATTCCCCTAGTAACGGCGAGCGAACCGGGAAAAGCCCAACTTGAAAATCTCCCATCTGGAGAATTGTAGTCTACAGAAGTGCCGTCTTTGGCTAGGGGAGCTCAAGTCCGCTGGAAGGCGGCGTCATAGAGGGTGAGAACCCCGTCAGCTCCCACTTTGCTAATCTCACGAGGTGCTTTCCACGAGTCGGGTTGTTTGGGAATGCAGCCCAAACNN'
p72
sg8
S'frwdrev'
p73
sg10
I01
sg11
g12
sg13
I01
sg14
(lp74
(dp75
g4
g12
sg6
g12
sg8
S'file'
p76
sg10
I00
sg11
g12
sg13
I00
sg14
(lp77
sg19
I00
sg20
I19
sg21
S'chlain_PER2015_7-27L9-chloroITS2F.ab1'
p78
sa(dp79
g4
g12
sg6
g12
sg8
S'file'
p80
sg10
I00
sg11
g12
sg13
I00
sg14
(lp81
sg19
I01
sg20
I18
sg21
S'chlain_PER2015_7-27L9-chloroITS2R.ab1'
p82
sasg19
I00
sg20
I30
sg21
S'chlain_PER2015_7-27L9-chloroITS2'
p83
sa(dp84
g4
S'                        NATTTCCGTGAACCATCGAATTTTTGAACGCATATTGCGCTCAAGGCCTCGGCCAAGAGCATGTCTGGCTCAGCGTCGGGTTCTCCTCTACATACTCGCTTGCCAAGCTCGAGTGGTATCACCACTCNGCCTTGTGGAAACAAGCGGATGTTATGAAGATCCCGTGGCAATCCGTCTGTGCAACATGAGACAGAGGGATTGCCCAAGTCTCAACCGCGTTTAATCGAAAAACGATCACTAATCCACATGTGTACGCGCTGTGCAAACATGGGAGTTAAAGTAGGTCGGATGCGCATGGGTATTGACCTCTAAGGTTTCCTCTCATAACTGACCTACACCTCACCCTTTTTCGATTCGCGACTGTTGTTGTTGTAGGTTGTCCATTCACTTGGCACCCATACTTCTCGACCTGAGCTCAGGCAAGATTACCCGCTGAACTTAAGCATATCAATAAGCGGAGGAAAAGAAACCAACCAGGATTCCCCTAGTAACGGCGAGCGAACCGGGAAAAGCCCAACTTGAAAATCTCCCATCTGGAGAATTGTAGTCTACAGAAGTGCCGTCTTTGGCTAGGGGAGCTCAAGTCCGCTGGAAGGCGGCGTCATAGAGGGTGAGAACCCCGTCAGCTCCCACTTTGCTAATCTCACGAGGTGCTTTCCACGAGTCGGGTTGTTTGGGAATGCAGCCCAANN                             '
p85
sg6
S'NATTTCCGTGAACCATCGAATTTTTGAACGCATATTGCGCTCAAGGCCTCGGCCAAGAGCATGTCTGGCTCAGCGTCGGGTTCTCCTCTACATACTCGCTTGCCAAGCTCGAGTGGTATCACCACTCNGCCTTGTGGAAACAAGCGGATGTTATGAAGATCCCGTGGCAATCCGTCTGTGCAACATGAGACAGAGGGATTGCCCAAGTCTCAACCGCGTTTAATCGAAAAACGATCACTAATCCACATGTGTACGCGCTGTGCAAACATGGGAGTTAAAGTAGGTCGGATGCGCATGGGTATTGACCTCTAAGGTTTCCTCTCATAACTGACCTACACCTCACCCTTTTTCGATTCGCGACTGTTGTTGTTGTAGGTTGTCCATTCACTTGGCACCCATACTTCTCGACCTGAGCTCAGGCAAGATTACCCGCTGAACTTAAGCATATCAATAAGCGGAGGAAAAGAAACCAACCAGGATTCCCCTAGTAACGGCGAGCGAACCGGGAAAAGCCCAACTTGAAAATCTCCCATCTGGAGAATTGTAGTCTACAGAAGTGCCGTCTTTGGCTAGGGGAGCTCAAGTCCGCTGGAAGGCGGCGTCATAGAGGGTGAGAACCCCGTCAGCTCCCACTTTGCTAATCTCACGAGGTGCTTTCCACGAGTCGGGTTGTTTGGGAATGCAGCCCAANN'
p86
sg8
S'frwdrev'
p87
sg10
I01
sg11
g12
sg13
I01
sg14
(lp88
(dp89
g4
g12
sg6
g12
sg8
S'file'
p90
sg10
I00
sg11
g12
sg13
I00
sg14
(lp91
sg19
I00
sg20
I17
sg21
S'chlain_PER2016_7-27L10-chloroITS2F.ab1'
p92
sa(dp93
g4
g12
sg6
g12
sg8
S'file'
p94
sg10
I00
sg11
g12
sg13
I00
sg14
(lp95
sg19
I01
sg20
I16
sg21
S'chlain_PER2016_7-27L10-chloroITS2R.ab1'
p96
sasg19
I00
sg20
I31
sg21
S'chlain_PER2016_7-27L10-chloroITS2'
p97
sa(dp98
g4
S'                                AACCATCGAATTTTTGAACGCATATTGCGCTCAAGGCTTCGGCCAAGAGCATGTCTGCCTCAGCGTCGGGTTCTCCATCATCGACTCTCCTCTTCTTCCGAAGATGAGCGTCGTGGAAACTCGCAGTCCGATCCTCCGTTCTTAATCGAGCGTTGGTGAGGTCTGCCAAAGTGAAAGTAGCGCTCCGAGCATTGCCCATCCATGCGTCAGCAATGGCGTTTGTTTGGGTATGTAGCCGCACTCGAGTAGTTGTGATGACGCATGTGTTAACTCACATGTGTCTTTCCTTATTCGATTATCCTACAACTTGCTCGGCTTCTCTTTGTTGTCTTCATGACAACATCCGAGACGAACCAGCCCTATACAAGTATACCTCCCAACATGGAACCCTTCACTTCTCGACCTGAGCTCAGGCAAGATTACCCGCTGAACTTAAGCATATCAATAAGCGGAGGAAAAGAAACCAACCAGGATTCCCCTAGTAACGGCGAGCGAACCGGGATCAGCCCAACTTGAAAATCTCCCTCTTGGAGAATTGTAGTCTACAGAAGTGCCCTCTGTGGCCGTGGGAGCTCAAGTTCGCTGGAAGGCGACGTCAAAGAGGGTGAGAACCCCGTCGGCTCCCATCTGGCCGCACCACGAGGTGCTTTCCACGAGTCGGGTTGTTTGGGAATGCAGCCCAAAATN                             '
p99
sg6
S'AACCATCGAATTTTTGAACGCATATTGCGCTCAAGGCTTCGGCCAAGAGCATGTCTGCCTCAGCGTCGGGTTCTCCATCATCGACTCTCCTCTTCTTCCGAAGATGAGCGTCGTGGAAACTCGCAGTCCGATCCTCCGTTCTTAATCGAGCGTTGGTGAGGTCTGCCAAAGTGAAAGTAGCGCTCCGAGCATTGCCCATCCATGCGTCAGCAATGGCGTTTGTTTGGGTATGTAGCCGCACTCGAGTAGTTGTGATGACGCATGTGTTAACTCACATGTGTCTTTCCTTATTCGATTATCCTACAACTTGCTCGGCTTCTCTTTGTTGTCTTCATGACAACATCCGAGACGAACCAGCCCTATACAAGTATACCTCCCAACATGGAACCCTTCACTTCTCGACCTGAGCTCAGGCAAGATTACCCGCTGAACTTAAGCATATCAATAAGCGGAGGAAAAGAAACCAACCAGGATTCCCCTAGTAACGGCGAGCGAACCGGGATCAGCCCAACTTGAAAATCTCCCTCTTGGAGAATTGTAGTCTACAGAAGTGCCCTCTGTGGCCGTGGGAGCTCAAGTTCGCTGGAAGGCGACGTCAAAGAGGGTGAGAACCCCGTCGGCTCCCATCTGGCCGCACCACGAGGTGCTTTCCACGAGTCGGGTTGTTTGGGAATGCAGCCCAAAATN'
p100
sg8
S'frwdrev'
p101
sg10
I01
sg11
g12
sg13
I01
sg14
(lp102
(dp103
g4
g12
sg6
g12
sg8
S'file'
p104
sg10
I00
sg11
g12
sg13
I00
sg14
(lp105
sg19
I00
sg20
I15
sg21
S'cog_TEM2003_7-27L8-chloroITS2F.ab1'
p106
sa(dp107
g4
g12
sg6
g12
sg8
S'file'
p108
sg10
I00
sg11
g12
sg13
I00
sg14
(lp109
sg19
I01
sg20
I14
sg21
S'cog_TEM2003_7-27L8-chloroITS2R.ab1'
p110
sasg19
I00
sg20
I32
sg21
S'cog_TEM2003_7-27L8-chloroITS2'
p111
sa(dp112
g4
S'                              ACCATCGAATTTTTGAACGCATATTGCGCTCAAGGCTTCGGCCAAGAGCATGTCTGNCTCAGCGTCGGGTTCTCCATCATCGACTCTCTCCTTCTNTNGAAGAGGAGAGTCGTGGAAACTCGCAGTCCGATCCTCCGTTCTTCATTGAGCGNTNGGTGAGGTCTGCCAAAGTGAAAGTAGCGCTCCGAGCATTGCCCATCTACNCGTCAGCAATGGCGTGTGGTTGGGTATGTAGCCGCACTCGAGTANNTGTGATCTCACATGTGTTAACTCACGTGTGTTTTTCCCTTACCCGACTATCCTACGCCTTGCTNGTCATCTCTTTGNCGTCTTCATGACNACATCNGAGACGAAACCAGCCTATACAAGTATACCTCCCAACATGGAACCCTTCACTTCTCGACCTGAGCTCAGGCAAGATTACCCGCTGAACTTAAGCATATCAATAAGCGGAGGAAAAGAAACCAACCAGGATTCCCCTAGTAACGGCGAGCGAACCGGGATCANCCCAACTTGAAAATCTCCCTCTTGGAGAATTGTANTCTACAGAAGTGCCCTCTGTGGCCGTGGGAGCTCAAGTTCGCTGGAAGGCGACGTCAAAGAGGGTGAGAA CCCCGTCGGCTCCCATCTGGCCGCACCACGAGGTGCTTTCCACGAGTCGGGTTGTTTGGGAATGCAGCCCAAAATNGGAGGN                                 '
p113
sg6
S'ACCATCGAATTTTTGAACGCATATTGCGCTCAAGGCTTCGGCCAAGAGCATGTCTGNCTCAGCGTCGGGTTCTCCATCATCGACTCTCTCCTTCTNTNGAAGAGGAGAGTCGTGGAAACTCGCAGTCCGATCCTCCGTTCTTCATTGAGCGNTNGGTGAGGTCTGCCAAAGTGAAAGTAGCGCTCCGAGCATTGCCCATCTACNCGTCAGCAATGGCGTGTGGTTGGGTATGTAGCCGCACTCGAGTANNTGTGATCTCACATGTGTTAACTCACGTGTGTTTTTCCCTTACCCGACTATCCTACGCCTTGCTNGTCATCTCTTTGNCGTCTTCATGACNACATCNGAGACGAAACCAGCCTATACAAGTATACCTCCCAACATGGAACCCTTCACTTCTCGACCTGAGCTCAGGCAAGATTACCCGCTGAACTTAAGCATATCAATAAGCGGAGGAAAAGAAACCAACCAGGATTCCCCTAGTAACGGCGAGCGAACCGGGATCANCCCAACTTGAAAATCTCCCTCTTGGAGAATTGTANTCTACAGAAGTGCCCTCTGTGGCCGTGGGAGCTCAAGTTCGCTGGAAGGCGACGTCAAAGAGGGTGAGAACCCCGTCGGCTCCCATCTGGCCGCACCACGAGGTGCTTTCCACGAGTCGGGTTGTTTGGGAATGCAGCCCAAAATNGGAGGN'
p114
sg8
S'frwdrev'
p115
sg10
I01
sg11
g12
sg13
I01
sg14
(lp116
(dp117
g4
g12
sg6
g12
sg8
S'file'
p118
sg10
I00
sg11
g12
sg13
I00
sg14
(lp119
sg19
I00
sg20
I13
sg21
S'envelope_GAR1930_7-12L4-chloroITS2F.ab1'
p120
sa(dp121
g4
g12
sg6
g12
sg8
S'file'
p122
sg10
I00
sg11
g12
sg13
I00
sg14
(lp123
sg19
I01
sg20
I12
sg21
S'envelope_GAR1930_7-12L4-chloroITS2R.ab1'
p124
sasg19
I00
sg20
I33
sg21
S'envelope_GAR1930_7-12L4-chloroITS2'
p125
sa(dp126
g4
S'                                  CCATCGAATTTTTGAACGCATATTGCGCTCAAGGCTTCGGCCAAGAGCATGTCTGCCTCAGCGTCGGGTTCTCCATCATGGACTCTCCTCTCTTCTTTCGATTAGAGTGGCGAGTCGTGGAAACTCGCAGTCCGATCCTCCGTTCTTCATTGAGCGTTGGTGAGGTCTGCCAAAGTGAAAGTAGTGCTCCGAGCATCGCCCATCCATGTGTCAGCAATGGCGTGTGTTTGGGTATGTAGCCGCACTCGAGTAGTTGTGATCTCACATGTGTTCACTCACGTGTGTTTTTCCTATTCGACTATCCTACAATTTGCTCGGCTTCTCTTTGTTGTCATCACCATGTGTGATAGCAACATCCGAGACGACCCCAGCCCTATATTAGTATACCTCCCAACATGGAACCCTTCACTTCTCGACCTGAGCTCAGGCAAGATTACCCGCTGAACTTAAGCATATCAATAAGCGGAGGAAAAGAAACCAACCAGGATTCCCCTAGTAACGGCGAGCGAACCGGGATCAGCCCAACTTGAAAATCTCCCTCTTGGAGAATTGTAGTCTACAGAAGTGCCCTCTGTGGCCGTGGGAGCTCAAGTTCGCTGGAAGGCGACGTCAAAGAGGGTGAGAACCCCGTCGGCTCCCATCTGNNNGCNCCACGAGGTGCTTTCCACGAGTCGGGTTGTTTGGGAATGCAGCCCAAAATTGGAGG                      '
p127
sg6
S'CCATCGAATTTTTGAACGCATATTGCGCTCAAGGCTTCGGCCAAGAGCATGTCTGCCTCAGCGTCGGGTTCTCCATCATGGACTCTCCTCTCTTCTTTCGATTAGAGTGGCGAGTCGTGGAAACTCGCAGTCCGATCCTCCGTTCTTCATTGAGCGTTGGTGAGGTCTGCCAAAGTGAAAGTAGTGCTCCGAGCATCGCCCATCCATGTGTCAGCAATGGCGTGTGTTTGGGTATGTAGCCGCACTCGAGTAGTTGTGATCTCACATGTGTTCACTCACGTGTGTTTTTCCTATTCGACTATCCTACAATTTGCTCGGCTTCTCTTTGTTGTCATCACCATGTGTGATAGCAACATCCGAGACGACCCCAGCCCTATATTAGTATACCTCCCAACATGGAACCCTTCACTTCTCGACCTGAGCTCAGGCAAGATTACCCGCTGAACTTAAGCATATCAATAAGCGGAGGAAAAGAAACCAACCAGGATTCCCCTAGTAACGGCGAGCGAACCGGGATCAGCCCAACTTGAAAATCTCCCTCTTGGAGAATTGTAGTCTACAGAAGTGCCCTCTGTGGCCGTGGGAGCTCAAGTTCGCTGGAAGGCGACGTCAAAGAGGGTGAGAACCCCGTCGGCTCCCATCTGNNNGCNCCACGAGGTGCTTTCCACGAGTCGGGTTGTTTGGGAATGCAGCCCAAAATTGGAGG'
p128
sg8
S'frwdrev'
p129
sg10
I01
sg11
g12
sg13
I01
sg14
(lp130
(dp131
g4
g12
sg6
g12
sg8
S'file'
p132
sg10
I00
sg11
g12
sg13
I00
sg14
(lp133
sg19
I00
sg20
I11
sg21
S'envelope_WED2206_7-26L1-chloroITS2F.ab1'
p134
sa(dp135
g4
g12
sg6
g12
sg8
S'file'
p136
sg10
I00
sg11
g12
sg13
I00
sg14
(lp137
sg19
I01
sg20
I10
sg21
S'envelope_WED2206_7-26L1-chloroITS2R.ab1'
p138
sasg19
I00
sg20
I34
sg21
S'envelope_WED2206_7-26L1-chloroITS2'
p139
sa(dp140
g4
S'    GAAATGCGATA CGTAGTGTGAATTGCAGAAAACCGTGAACCATCGAATCTTTGAACGCATATTGCGCTGGAGGCTTCGGCCAACAGCATGTCTGCCTCAGCGTCGGGTTAATTCTCGCCCATCATCATCCCTGTGGTGATGATCTGGGCGGATCTGGCTCTCTCAGTCGTTCCTCACCGAAAGACTGGGTCTGCTGAAGTACAGAGGTTGATGCATGGACCCGTTAAGGGCTGCAACTGGTTAGGCAGCGATGCTACGATTAGTTGTTAGCCTGGGAACTGCGTTCGACCCTCCACAAGGAAACTTAATTATTTCCTCGACCTGAGCTCAGGCAAGATTACCCGCTGAACTTAAGCATATCAATAAGCGGAGGAAAAGAAACTAACAAGGATTCCCCTAGTAACGGCGAGCGAACCGGGAATAGCCCAACTTGAAAATCTCCCTCTGGAGAATTGTAGTCTAGAGAAGCGCCCTCTGCGACGGACGGAGCCCAAGTTCGCTGGAAAGCGACGTCAGAGAGGGTGAGAACCCCGTCGGCTCTGTTCCTGTTGCCCCACGAGGTGCTTTCCACGAGTCGGGTTGTTTGGGAATGCAGCCCAAAATGGGAGGTAAATCCCTTCTAAGGCTAAATACTGGCAAGAGACCGA                     '
p141
sg6
S'GAAATGCGATACGTAGTGTGAATTGCAGAAAACCGTGAACCATCGAATCTTTGAACGCATATTGCGCTGGAGGCTTCGGCCAACAGCATGTCTGCCTCAGCGTCGGGTTAATTCTCGCCCATCATCATCCCTGTGGTGATGATCTGGGCGGATCTGGCTCTCTCAGTCGTTCCTCACCGAAAGACTGGGTCTGCTGAAGTACAGAGGTTGATGCATGGACCCGTTAAGGGCTGCAACTGGTTAGGCAGCGATGCTACGATTAGTTGTTAGCCTGGGAACTGCGTTCGACCCTCCACAAGGAAACTTAATTATTTCCTCGACCTGAGCTCAGGCAAGATTACCCGCTGAACTTAAGCATATCAATAAGCGGAGGAAAAGAAACTAACAAGGATTCCCCTAGTAACGGCGAGCGAACCGGGAATAGCCCAACTTGAAAATCTCCCTCTGGAGAATTGTAGTCTAGAGAAGCGCCCTCTGCGACGGACGGAGCCCAAGTTCGCTGGAAAGCGACGTCAGAGAGGGTGAGAACCCCGTCGGCTCTGTTCCTGTTGCCCCACGAGGTGCTTTCCACGAGTCGGGTTGTTTGGGAATGCAGCCCAAAATGGGAGGTAAATCCCTTCTAAGGCTAAATACTGGCAAGAGACCGA'
p142
sg8
S'frwdrev'
p143
sg10
I01
sg11
g12
sg13
I01
sg14
(lp144
(dp145
g4
g12
sg6
g12
sg8
S'file'
p146
sg10
I00
sg11
g12
sg13
I00
sg14
(lp147
sg19
I00
sg20
I9
sg21
S'halo_PAN1930_7-27L7-chloroITS2F.ab1'
p148
sa(dp149
g4
g12
sg6
g12
sg8
S'file'
p150
sg10
I00
sg11
g12
sg13
I00
sg14
(lp151
sg19
I01
sg20
I8
sg21
S'halo_PAN1930_7-27L7-chloroITS2R.ab1'
p152
sasg19
I00
sg20
I35
sg21
S'halo_PAN1930_7-27L7-chloroITS2'
p153
sa(dp154
g4
S'                         TCCGTGAACCATCGAATTTTTGAACGCATATTGCGCTCAAGGCTTCGGCCAAGAGCATGTCTGCCTCAGCGTCGGGTTCTCCATCATGGACTCTCCTCTCTTCTTTCGATTAGAGTGGCGAGTCGTGGAAACTCGCAGTCCGATCCTCCGTTCTTCATTGAGCGTTGGTGAGGTCTGCCAAAGTGAAAGTAGTGCTCCGAGCATCGCCCATCCATGTGTCAGCAATGGCGTGTGTTTGGGTATGTAGCCGCACTCGAGTAGTTGTGATCTCACATGTGTTCACTCACGTGTGTTTTTCCTATTCGACTATCCTACAATTTGCTCGGCTTCTCTTTGTTGTCATCACCATGTGTGATAGCAACATCCGAGACGACCCCAGCCCTATATTAGTATACCTCCCAACATGGAACCCTTCACTTCTCGACCTGAGCTCAGGCAAGATTACCCGCTGAACTTAAGCATATCAATAAGCGGAGGAAAAGAAACCAACCAGGATTCCCCTAGTAACGGCGAGCGAACCGGGATCAGCCCAACTTGAAAATCTCCCTCTTGGAGAATTGTAGTCTACAGAAGTGCCCTCTGTGGCCGTGGGAGCTCAAGTTCGCTGGAAGGCGACGTCAAAGAGGGTGAGAACCCCGTCGGCTCCCATCTGGCTGCACCACGAGGTGCTTTCCACGAGTCGGGTTGTTTGGGAATGCAGCCCAAAATTGGAGG                      '
p155
sg6
S'TCCGTGAACCATCGAATTTTTGAACGCATATTGCGCTCAAGGCTTCGGCCAAGAGCATGTCTGCCTCAGCGTCGGGTTCTCCATCATGGACTCTCCTCTCTTCTTTCGATTAGAGTGGCGAGTCGTGGAAACTCGCAGTCCGATCCTCCGTTCTTCATTGAGCGTTGGTGAGGTCTGCCAAAGTGAAAGTAGTGCTCCGAGCATCGCCCATCCATGTGTCAGCAATGGCGTGTGTTTGGGTATGTAGCCGCACTCGAGTAGTTGTGATCTCACATGTGTTCACTCACGTGTGTTTTTCCTATTCGACTATCCTACAATTTGCTCGGCTTCTCTTTGTTGTCATCACCATGTGTGATAGCAACATCCGAGACGACCCCAGCCCTATATTAGTATACCTCCCAACATGGAACCCTTCACTTCTCGACCTGAGCTCAGGCAAGATTACCCGCTGAACTTAAGCATATCAATAAGCGGAGGAAAAGAAACCAACCAGGATTCCCCTAGTAACGGCGAGCGAACCGGGATCAGCCCAACTTGAAAATCTCCCTCTTGGAGAATTGTAGTCTACAGAAGTGCCCTCTGTGGCCGTGGGAGCTCAAGTTCGCTGGAAGGCGACGTCAAAGAGGGTGAGAACCCCGTCGGCTCCCATCTGGCTGCACCACGAGGTGCTTTCCACGAGTCGGGTTGTTTGGGAATGCAGCCCAAAATTGGAGG'
p156
sg8
S'frwdrev'
p157
sg10
I01
sg11
g12
sg13
I01
sg14
(lp158
(dp159
g4
g12
sg6
g12
sg8
S'file'
p160
sg10
I00
sg11
g12
sg13
I00
sg14
(lp161
sg19
I00
sg20
I7
sg21
S'petal_CAT20TR8_7-22L2-chloroITS2F.ab1'
p162
sa(dp163
g4
g12
sg6
g12
sg8
S'file'
p164
sg10
I00
sg11
g12
sg13
I00
sg14
(lp165
sg19
I01
sg20
I6
sg21
S'petal_CAT20TR8_7-22L2-chloroITS2R.ab1'
p166
sasg19
I00
sg20
I36
sg21
S'petal_CAT20TR8_7-22L2-chloroITS2'
p167
sa(dp168
g4
S'                          NCAAGGTTTCCGTAGGTGAACCTGCGGAAGGATCATTGAATCTATCAATACCCACACCGTGAACCAAGATGTCTGACCTCTAACCTCTGCTTGCAGAGGTGGGGCGTTTGGCCCGGCCTTTATTGGCTGTTCCGAACGGGTCTAGGCTAGGCTTCGGCCAAGTTCGGACCGGTCTCCCAAACCTATCAACACCTAATCAATCATATAAAGTAAACTTTCAGCCGGCTTTGCCGCTGAATCATAACCAAGACAACTCTCAACAACGGATATCTTGGCTCTTGCAACGATGAAGAACGCAGCGAAATGCGATACGTAGTGTGAATTGCAGAAAACCGTGAACCATCGAATCTTTGAACGCATATTGCGCTGGAGGCTTCGGCCAACAGCATGTCTGCCTCAGCGTCGGGTTAATTCTCGCCCATCATCTTCCCTGTGTTGATGATCTGGGCGGATCTGGCTTTCTCAGCTCTCACGAGCTGGGTCTGCTGAAGTACAGAGGTTAATGCATGGACCCGTTAAGGGCTGCAGCTGGTTAGGCAGTGATGCTATCGATTAGCTGTTGGTCTGGGAACTGCGTTTGACCCTCCACAAGGAAACTTAATTATTTCCTCGACCTGAGCTCAGGCAAGATTACCCGCTGAACTTAAGCATATCAATANN          '
p169
sg6
S'NCAAGGTTTCCGTAGGTGAACCTGCGGAAGGATCATTGAATCTATCAATACCCACACCGTGAACCAAGATGTCTGACCTCTAACCTCTGCTTGCAGAGGTGGGGCGTTTGGCCCGGCCTTTATTGGCTGTTCCGAACGGGTCTAGGCTAGGCTTCGGCCAAGTTCGGACCGGTCTCCCAAACCTATCAACACCTAATCAATCATATAAAGTAAACTTTCAGCCGGCTTTGCCGCTGAATCATAACCAAGACAACTCTCAACAACGGATATCTTGGCTCTTGCAACGATGAAGAACGCAGCGAAATGCGATACGTAGTGTGAATTGCAGAAAACCGTGAACCATCGAATCTTTGAACGCATATTGCGCTGGAGGCTTCGGCCAACAGCATGTCTGCCTCAGCGTCGGGTTAATTCTCGCCCATCATCTTCCCTGTGTTGATGATCTGGGCGGATCTGGCTTTCTCAGCTCTCACGAGCTGGGTCTGCTGAAGTACAGAGGTTAATGCATGGACCCGTTAAGGGCTGCAGCTGGTTAGGCAGTGATGCTATCGATTAGCTGTTGGTCTGGGAACTGCGTTTGACCCTCCACAAGGAAACTTAATTATTTCCTCGACCTGAGCTCAGGCAAGATTACCCGCTGAACTTAAGCATATCAATANN'
p170
sg8
S'frwdrev'
p171
sg10
I01
sg11
g12
sg13
I01
sg14
(lp172
(dp173
g4
g12
sg6
g12
sg8
S'file'
p174
sg10
I00
sg11
g12
sg13
I00
sg14
(lp175
sg19
I00
sg20
I5
sg21
S'shotSpike_LOU1901_7-27L6-chloroITS2F.ab1'
p176
sa(dp177
g4
g12
sg6
g12
sg8
S'file'
p178
sg10
I00
sg11
g12
sg13
I00
sg14
(lp179
sg19
I01
sg20
I4
sg21
S'shotSpike_LOU1901_7-27L6-ITS4seqR.ab1'
p180
sasg19
I00
sg20
I41
sg21
S'shotSpike_LOU1901_7-27L6-'
p181
sa(dp182
g4
S'            AGAAGTTCGTAACAAGGTTTCCGTAGGTGAACCTGCGGAAGGATCATTGAATCTATCAATACCCACACCGTGAACCAAAATGTCTGACCTCTAACCTCTGCTTGCAGAGGTGGGGCGTTTGGCTCAGCCTTTATTGGCTGTTCCTAACGGGTCTAGGCTAGGCTTCGGCCAAGTTCGGACCGGTCTCCCAAACCTATCAACACCTAATCAATCATATAAAGTAAACTTTCAGCCGGCTTTGCCGCTGAATCATAACCAAGACAACTCTCAACAACGGATATCTTGGCTCTTGCAACGATGAAGAACGCAGCGAAATGCGATACGTAGTGTGAATTGCAGAAAACCGTGAACCATCGAATCTTTGAACGCATATTGCGCTGGAGGCTTCGGCCAACAGCATGTCTGCCTCAGCGTCGGGTTAATTCTCGCCCATCATCTTCCCTGTGTTGATGATTTGGGCGGATCTGGCTTTCTCAGCTCTCACGAGCTGGGTTTGCTGAAGTACAGAGGTTAATGCATGGACCCGTTAAGGGCTGCAGCTGGTTAGGCAGTGATGCTATCGATTAGCTGTTGGTCTGGGAACTGCGTTTGACCCTCCACAAGGAAACTTAATTATTTCCTCGACCTGAGCTCAGGCAAGATTACCCGCTGAACTTAAGCATATCAATANN                                           '
p183
sg6
S'AGAAGTTCGTAACAAGGTTTCCGTAGGTGAACCTGCGGAAGGATCATTGAATCTATCAATACCCACACCGTGAACCAAAATGTCTGACCTCTAACCTCTGCTTGCAGAGGTGGGGCGTTTGGCTCAGCCTTTATTGGCTGTTCCTAACGGGTCTAGGCTAGGCTTCGGCCAAGTTCGGACCGGTCTCCCAAACCTATCAACACCTAATCAATCATATAAAGTAAACTTTCAGCCGGCTTTGCCGCTGAATCATAACCAAGACAACTCTCAACAACGGATATCTTGGCTCTTGCAACGATGAAGAACGCAGCGAAATGCGATACGTAGTGTGAATTGCAGAAAACCGTGAACCATCGAATCTTTGAACGCATATTGCGCTGGAGGCTTCGGCCAACAGCATGTCTGCCTCAGCGTCGGGTTAATTCTCGCCCATCATCTTCCCTGTGTTGATGATTTGGGCGGATCTGGCTTTCTCAGCTCTCACGAGCTGGGTTTGCTGAAGTACAGAGGTTAATGCATGGACCCGTTAAGGGCTGCAGCTGGTTAGGCAGTGATGCTATCGATTAGCTGTTGGTCTGGGAACTGCGTTTGACCCTCCACAAGGAAACTTAATTATTTCCTCGACCTGAGCTCAGGCAAGATTACCCGCTGAACTTAAGCATATCAATANN'
p184
sg8
S'frwdrev'
p185
sg10
I01
sg11
g12
sg13
I01
sg14
(lp186
(dp187
g4
g12
sg6
g12
sg8
S'file'
p188
sg10
I00
sg11
g12
sg13
I00
sg14
(lp189
sg19
I00
sg20
I3
sg21
S'smallSphere_BUG1902_7-27L5-chloroITS2F.ab1'
p190
sa(dp191
g4
g12
sg6
g12
sg8
S'file'
p192
sg10
I00
sg11
g12
sg13
I00
sg14
(lp193
sg19
I01
sg20
I2
sg21
S'smallSphere_BUG1902_7-27L5-ITS4seqR.ab1'
p194
sasg19
I00
sg20
I42
sg21
S'smallSphere_BUG1902_7-27L5-'
p195
sa(dp196
g4
S'                       NAATTCCGNGNNCCNTCGAATTTTTGAACGCATATTGCGCTCAAGGCTTCGGCCAAGAGCATGTCTGCCTCAGCGTCGGGTTCTCCATCATCGACTCTTCTCTCTTCTCTCGAGTCGAGTCTAGAGTCATGGAAACTCGCAGTCCGATCCTATGTGTTCTTCATCGAGCACATGGGTGAGGTCTGCCAAAGTGAAAGTAGCGCTCCGAGCATTGCCCATCCATGCGTCAGAAATGGCGTGTGGTTGGGTATGTAGCCGCACTCGAGTAGTTGTGAGCTCACATGTGTTTACTCACGTGTGTTTTCCCTATTCGACTATCCTACGACTTGCTCGGCTTCTCTTTGTCGTCATCATTCTTTGATAGCAACATCCGAGACGAAACCAGCCCTATACAAGTATACCTCCCAACATGGAACCCTTCACTTCTCGACCTGAGCTCAGGCAAGATTACCCGCTGAACTTAAGCATATCAATAAGCGGAGGAAAAGAAACCAACCAGGATTCCCCTAGTAACGGCGAGCGAACCGGGATCAGCCCAACTTGAAAATCTCCCTCTTGGAGAATTGTAGTCTACAGAAGTGCCCTCTGTGGCCGTGGGAGCTCAAGTTCGCTGGAAGGCGACGTCAAAGAGGGTGAGAACCCCGTCGGCTCCCATCTGGCCGCACCACGAGGTGCTTTCCACGAGTCGGGTTGTTTGGGAATGCAGCCCAAAATTGGA                          '
p197
sg6
S'NAATTCCGNGNNCCNTCGAATTTTTGAACGCATATTGCGCTCAAGGCTTCGGCCAAGAGCATGTCTGCCTCAGCGTCGGGTTCTCCATCATCGACTCTTCTCTCTTCTCTCGAGTCGAGTCTAGAGTCATGGAAACTCGCAGTCCGATCCTATGTGTTCTTCATCGAGCACATGGGTGAGGTCTGCCAAAGTGAAAGTAGCGCTCCGAGCATTGCCCATCCATGCGTCAGAAATGGCGTGTGGTTGGGTATGTAGCCGCACTCGAGTAGTTGTGAGCTCACATGTGTTTACTCACGTGTGTTTTCCCTATTCGACTATCCTACGACTTGCTCGGCTTCTCTTTGTCGTCATCATTCTTTGATAGCAACATCCGAGACGAAACCAGCCCTATACAAGTATACCTCCCAACATGGAACCCTTCACTTCTCGACCTGAGCTCAGGCAAGATTACCCGCTGAACTTAAGCATATCAATAAGCGGAGGAAAAGAAACCAACCAGGATTCCCCTAGTAACGGCGAGCGAACCGGGATCAGCCCAACTTGAAAATCTCCCTCTTGGAGAATTGTAGTCTACAGAAGTGCCCTCTGTGGCCGTGGGAGCTCAAGTTCGCTGGAAGGCGACGTCAAAGAGGGTGAGAACCCCGTCGGCTCCCATCTGGCCGCACCACGAGGTGCTTTCCACGAGTCGGGTTGTTTGGGAATGCAGCCCAAAATTGGA'
p198
sg8
S'frwdrev'
p199
sg10
I01
sg11
g12
sg13
I01
sg14
(lp200
(dp201
g4
g12
sg6
g12
sg8
S'file'
p202
sg10
I00
sg11
g12
sg13
I00
sg14
(lp203
sg19
I00
sg20
I1
sg21
S'star_BUG1903_7-22L1-chloroITS2F.ab1'
p204
sa(dp205
g4
g12
sg6
g12
sg8
S'file'
p206
sg10
I00
sg11
g12
sg13
I00
sg14
(lp207
sg19
I01
sg20
I0
sg21
S'star_BUG1903_7-22L1-chloroITS2R.ab1'
p208
sasg19
I00
sg20
I37
sg21
S'star_BUG1903_7-22L1-chloroITS2'
p209
sasS'formatversion'
p210
S'0.9'
p211
sS'consseqsettings'
p212
(dp213
S'consensus_algorithm'
p214
S'Bayesian'
p215
sS'do_qualitytrim'
p216
I01
sS'qualitytrim_winsize'
p217
I10
sS'primermatch_threshold'
p218
F0.8
sS'trim_endgaps'
p219
I00
sS'min_confscore'
p220
I30
sS'forward_primer'
p221
g12
sS'reverse_primer'
p222
g12
sS'qualitytrim_basecnt'
p223
I8
sS'trim_consensus'
p224
I01
sS'trim_primers'
p225
I00
ssS'properties'
p226
(dp227
S'fwd_trace_searchstr'
p228
S'chloroITS2F.ab1'
p229
sS'rev_trace_searchstr'
p230
S'ITS4seqR.ab1'
p231
sS'trace_file_dir'
p232
S'.'
p233
ss.